
Allocating common symbols
Common symbol       size              file

NetOurEther         0x6               net/libnet.o
gMiim_phyRevId      0x800             board/Realtek/rtl838x/librtl838x.o
NetState            0x4               net/libnet.o
rtk_hal_stack_ports
                    0x80              board/Realtek/rtl838x/librtl838x.o
NetServerEther      0x6               net/libnet.o
NetRxPacketLen      0x4               net/libnet.o
rtkDev              0x14              board/Realtek/rtl838x/librtl838x.o
NetArpWaitReplyIP   0x4               net/libnet.o
NetRxPacket         0x4               net/libnet.o
NetIPID             0x4               net/libnet.o
console_buffer      0x201             common/libcommon.o
NetArpWaitPacketIP  0x4               net/libnet.o
hal_ctrl            0x1340            board/Realtek/rtl838x/librtl838x.o
BootpTry            0x4               net/libnet.o
his_pad_char        0x1               common/libcommon.o
pTxPktHdr           0x4               board/Realtek/rtl838x/librtl838x.o
send_ptr            0x4               common/libcommon.o
pRxPktHdr           0x4               board/Realtek/rtl838x/librtl838x.o
hwp_unit_sem        0x4               board/Realtek/rtl838x/librtl838x.o
swDescpEmpty        0x668             board/Realtek/rtl838x/librtl838x.o
NetRxPackets        0x10              net/libnet.o
g_gpioDevConfig     0x14              board/Realtek/rtl838x/librtl838x.o
NetBootFileSize     0x2               net/libnet.o
NetArpWaitTxPacketSize
                    0x4               net/libnet.o
send_parms          0x14              common/libcommon.o
ioal_db             0x340             board/Realtek/rtl838x/librtl838x.o
NetArpWaitTry       0x4               net/libnet.o
save_addr           0x4               common/libcommon.o
g_extGPIODev_init   0x4               board/Realtek/rtl838x/librtl838x.o
NetOurGatewayIP     0x4               net/libnet.o
monitor_flash_len   0x4               arch/mips/lib/libmips.o
testLen             0x4               board/Realtek/rtl838x/librtl838x.o
NetArpWaitTimerStart
                    0x4               net/libnet.o
pkt                 0x5fa             board/Realtek/rtl838x/librtl838x.o
save_size           0x4               common/libcommon.o
pkt_recv            0x5fa             board/Realtek/rtl838x/librtl838x.o
isFail              0x4               board/Realtek/rtl838x/librtl838x.o
NetRestartWrap      0x4               net/libnet.o
hwpEmpty            0x58              board/Realtek/rtl838x/librtl838x.o
PktBuf              0x1e20            net/libnet.o
his_eol             0x1               common/libcommon.o
pMgmt_node          0x40              board/Realtek/rtl838x/librtl838x.o
scDescpEmpty        0x8               board/Realtek/rtl838x/librtl838x.o
BootFile            0x80              net/libnet.o
NetOurSubnetMask    0x4               net/libnet.o
unitInfoEmpty       0x830             board/Realtek/rtl838x/librtl838x.o
serdesDescpEmpty    0x2               board/Realtek/rtl838x/librtl838x.o
NetArpWaitTxPacket  0x4               net/libnet.o
NetTxPacket         0x4               net/libnet.o
rcvLen              0x4               board/Realtek/rtl838x/librtl838x.o
parsedInfoEmpty     0x3134            board/Realtek/rtl838x/librtl838x.o
unitMapStruct       0x80              board/Realtek/rtl838x/librtl838x.o
gI2C_dev            0x6800            board/Realtek/rtl838x/librtl838x.o
os_data_char        0x4               common/libcommon.o
his_pad_count       0x4               common/libcommon.o
portDescpEmpty      0x14              board/Realtek/rtl838x/librtl838x.o
NetPingIP           0x4               net/libnet.o
hist_lines          0x2814            common/libcommon.o
NetOurIP            0x4               net/libnet.o
os_data_init        0x4               common/libcommon.o
___strtok           0x4               lib/libgeneric.o
NetArpWaitPacketMAC
                    0x4               net/libnet.o
NetArpWaitPacketBuf
                    0x620             net/libnet.o
NetOurDNSIP         0x4               net/libnet.o
NetServerIP         0x4               net/libnet.o
hist_list           0x50              common/libcommon.o
images              0x8c              common/libcommon.o
NetEtherNullAddr    0x6               net/libnet.o
rtl8218d_info       0x400             board/Realtek/rtl838x/librtl838x.o
his_quote           0x1               common/libcommon.o
NetBootFileXferSize
                    0x4               net/libnet.o
BootpID             0x4               net/libnet.o

Discarded input sections

 .data          0x0000000000000000        0x0 arch/mips/cpu/mips4kec/start.o
 .bss           0x0000000000000000        0x0 arch/mips/cpu/mips4kec/start.o
 .reginfo       0x0000000000000000       0x18 arch/mips/cpu/mips4kec/start.o
 .reginfo       0x0000000000000000       0x18 arch/mips/cpu/mips4kec/rtl838x/librtl838x.o
 .text._DTR_DDR1_MRS_setting
                0x0000000000000000       0x60 arch/mips/cpu/mips4kec/rtl838x/librtl838x.o
 .text.plat_memctl_dram_pad_drv
                0x0000000000000000        0x8 arch/mips/cpu/mips4kec/rtl838x/librtl838x.o
 .text.plat_memctl_dram_zq_setting
                0x0000000000000000        0x8 arch/mips/cpu/mips4kec/rtl838x/librtl838x.o
 .text.plat_memctl_choose_delay_value
                0x0000000000000000       0x34 arch/mips/cpu/mips4kec/rtl838x/librtl838x.o
 .text.plat_memctl_IO_PAD_patch
                0x0000000000000000        0x8 arch/mips/cpu/mips4kec/rtl838x/librtl838x.o
 .text.concur_test_for_cali
                0x0000000000000000      0x144 arch/mips/cpu/mips4kec/rtl838x/librtl838x.o
 .text.CPU_cache_flush_setting
                0x0000000000000000       0x8c arch/mips/cpu/mips4kec/rtl838x/librtl838x.o
 .text.CPU_cache_flush_checking
                0x0000000000000000       0x2c arch/mips/cpu/mips4kec/rtl838x/librtl838x.o
 .text.unaligned_test_kickoff
                0x0000000000000000       0x10 arch/mips/cpu/mips4kec/rtl838x/librtl838x.o
 .text.unaligned_test_setting
                0x0000000000000000       0xa4 arch/mips/cpu/mips4kec/rtl838x/librtl838x.o
 .text.unaligned_test_checking
                0x0000000000000000      0x10c arch/mips/cpu/mips4kec/rtl838x/librtl838x.o
 .text.CPU_KICKOFF
                0x0000000000000000       0x3c arch/mips/cpu/mips4kec/rtl838x/librtl838x.o
 .text.CPU_setting
                0x0000000000000000       0x60 arch/mips/cpu/mips4kec/rtl838x/librtl838x.o
 .text.CPU_checking
                0x0000000000000000       0x60 arch/mips/cpu/mips4kec/rtl838x/librtl838x.o
 .text._write_pattern
                0x0000000000000000       0x88 arch/mips/cpu/mips4kec/rtl838x/librtl838x.o
 .text._verify_pattern
                0x0000000000000000       0xd8 arch/mips/cpu/mips4kec/rtl838x/librtl838x.o
 .text.endian_swap
                0x0000000000000000       0x2c arch/mips/cpu/mips4kec/rtl838x/librtl838x.o
 .text.bzero    0x0000000000000000       0x20 arch/mips/cpu/mips4kec/rtl838x/librtl838x.o
 .text.arch_dram_test_prepare
                0x0000000000000000       0x3c arch/mips/cpu/mips4kec/rtl838x/librtl838x.o
 .data          0x0000000000000000        0x0 arch/mips/cpu/mips4kec/rtl838x/librtl838x.o
 .data.unaligned_patterns
                0x0000000000000000       0x50 arch/mips/cpu/mips4kec/rtl838x/librtl838x.o
 .bss           0x0000000000000000        0x0 arch/mips/cpu/mips4kec/rtl838x/librtl838x.o
 .bss.s3.1293   0x0000000000000000        0x4 arch/mips/cpu/mips4kec/rtl838x/librtl838x.o
 .bss.s2.1292   0x0000000000000000        0x4 arch/mips/cpu/mips4kec/rtl838x/librtl838x.o
 .bss.s1.1291   0x0000000000000000        0x4 arch/mips/cpu/mips4kec/rtl838x/librtl838x.o
 .pdr           0x0000000000000000      0xf00 arch/mips/cpu/mips4kec/rtl838x/librtl838x.o
 .reginfo       0x0000000000000000       0x18 arch/mips/cpu/mips4kec/libmips4kec.o
 .text          0x0000000000000000        0x0 arch/mips/cpu/mips4kec/libmips4kec.o
 .text.set_exception_base
                0x0000000000000000       0x28 arch/mips/cpu/mips4kec/libmips4kec.o
 .text.soc_ramtest
                0x0000000000000000       0x14 arch/mips/cpu/mips4kec/libmips4kec.o
 .data          0x0000000000000000        0x0 arch/mips/cpu/mips4kec/libmips4kec.o
 .bss           0x0000000000000000        0x0 arch/mips/cpu/mips4kec/libmips4kec.o
 .pdr           0x0000000000000000       0xc0 arch/mips/cpu/mips4kec/libmips4kec.o
 .reginfo       0x0000000000000000       0x18 arch/mips/lib/libmips.o
 .text          0x0000000000000000        0x0 arch/mips/lib/libmips.o
 .text.__ashrdi3
                0x0000000000000000       0x40 arch/mips/lib/libmips.o
 .text.serial_putc_raw
                0x0000000000000000       0x1c arch/mips/lib/libmips.o
 .text.serial_chan_putc
                0x0000000000000000       0x18 arch/mips/lib/libmips.o
 .text.serial_chan_puts
                0x0000000000000000       0x5c arch/mips/lib/libmips.o
 .text.serial_chan_getc
                0x0000000000000000       0x28 arch/mips/lib/libmips.o
 .text.serial_chan_tstc
                0x0000000000000000       0x14 arch/mips/lib/libmips.o
 .text.serial_IoCtl
                0x0000000000000000       0x78 arch/mips/lib/libmips.o
 .text.spi_flash_sectorsize
                0x0000000000000000        0xc arch/mips/lib/libmips.o
 .rodata.mips_io_port_base
                0x0000000000000000        0x4 arch/mips/lib/libmips.o
 .data          0x0000000000000000        0x0 arch/mips/lib/libmips.o
 .bss           0x0000000000000000        0x0 arch/mips/lib/libmips.o
 .pdr           0x0000000000000000      0x700 arch/mips/lib/libmips.o
 .reginfo       0x0000000000000000       0x18 common/libcommon.o
 .text          0x0000000000000000        0x0 common/libcommon.o
 .text.setenv_addr
                0x0000000000000000       0x40 common/libcommon.o
 .text.serial_printf
                0x0000000000000000       0x44 common/libcommon.o
 .text.fgetc    0x0000000000000000       0x34 common/libcommon.o
 .text.ftstc    0x0000000000000000       0x34 common/libcommon.o
 .text.fputc    0x0000000000000000       0x38 common/libcommon.o
 .text.disable_ctrlc
                0x0000000000000000       0x10 common/libcommon.o
 .text.dbg      0x0000000000000000       0x10 common/libcommon.o
 .text.stdio_print_current_devices
                0x0000000000000000        0x8 common/libcommon.o
 .text.realloc  0x0000000000000000      0x580 common/libcommon.o
 .text.memalign
                0x0000000000000000      0x164 common/libcommon.o
 .text.valloc   0x0000000000000000       0x10 common/libcommon.o
 .text.pvalloc  0x0000000000000000       0x18 common/libcommon.o
 .text.cfree    0x0000000000000000        0x8 common/libcommon.o
 .text.malloc_usable_size
                0x0000000000000000       0x54 common/libcommon.o
 .text.mallopt  0x0000000000000000       0x7c common/libcommon.o
 .text.getenv_bootm_low
                0x0000000000000000       0x3c common/libcommon.o
 .text.getenv_bootm_size
                0x0000000000000000       0x74 common/libcommon.o
 .text.getenv_bootm_mapsize
                0x0000000000000000       0x44 common/libcommon.o
 .text.get_table_entry_id
                0x0000000000000000       0x58 common/libcommon.o
 .text.genimg_get_os_id
                0x0000000000000000       0x1c common/libcommon.o
 .text.genimg_get_arch_id
                0x0000000000000000       0x1c common/libcommon.o
 .text.genimg_get_type_id
                0x0000000000000000       0x1c common/libcommon.o
 .text.genimg_get_comp_id
                0x0000000000000000       0x1c common/libcommon.o
 .text.genimg_has_config
                0x0000000000000000        0x8 common/libcommon.o
 .text.get_ram_size
                0x0000000000000000      0x110 common/libcommon.o
 .text.CYGACC_COMM_IF_PUTC
                0x0000000000000000        0xc common/libcommon.o
 .data          0x0000000000000000        0x0 common/libcommon.o
 .data.mmap_threshold
                0x0000000000000000        0x4 common/libcommon.o
 .bss           0x0000000000000000        0x0 common/libcommon.o
 .bss.n_mmaps_max
                0x0000000000000000        0x4 common/libcommon.o
 .pdr           0x0000000000000000     0x1700 common/libcommon.o
 .reginfo       0x0000000000000000       0x18 disk/libdisk.o
 .text          0x0000000000000000        0x0 disk/libdisk.o
 .text.get_dev  0x0000000000000000        0x8 disk/libdisk.o
 .data          0x0000000000000000        0x0 disk/libdisk.o
 .bss           0x0000000000000000        0x0 disk/libdisk.o
 .comment       0x0000000000000000       0x44 disk/libdisk.o
 .pdr           0x0000000000000000       0x20 disk/libdisk.o
 .debug_aranges
                0x0000000000000000       0x20 disk/libdisk.o
 .debug_info    0x0000000000000000      0x248 disk/libdisk.o
 .debug_abbrev  0x0000000000000000       0xd7 disk/libdisk.o
 .debug_line    0x0000000000000000       0xba disk/libdisk.o
 .debug_frame   0x0000000000000000       0x20 disk/libdisk.o
 .debug_str     0x0000000000000000      0x261 disk/libdisk.o
 .debug_ranges  0x0000000000000000       0x10 disk/libdisk.o
 .gnu.attributes
                0x0000000000000000       0x10 disk/libdisk.o
 .mdebug.abi32  0x0000000000000000        0x0 disk/libdisk.o
 .reginfo       0x0000000000000000       0x18 drivers/pcmcia/libpcmcia.o
 .text          0x0000000000000000        0x0 drivers/pcmcia/libpcmcia.o
 .data          0x0000000000000000        0x0 drivers/pcmcia/libpcmcia.o
 .bss           0x0000000000000000        0x0 drivers/pcmcia/libpcmcia.o
 .comment       0x0000000000000000       0x88 drivers/pcmcia/libpcmcia.o
 .pdr           0x0000000000000000        0x0 drivers/pcmcia/libpcmcia.o
 .debug_aranges
                0x0000000000000000       0x30 drivers/pcmcia/libpcmcia.o
 .debug_info    0x0000000000000000       0xf4 drivers/pcmcia/libpcmcia.o
 .debug_abbrev  0x0000000000000000       0x64 drivers/pcmcia/libpcmcia.o
 .debug_line    0x0000000000000000       0x75 drivers/pcmcia/libpcmcia.o
 .debug_str     0x0000000000000000      0x39f drivers/pcmcia/libpcmcia.o
 .gnu.attributes
                0x0000000000000000       0x10 drivers/pcmcia/libpcmcia.o
 .mdebug.abi32  0x0000000000000000        0x0 drivers/pcmcia/libpcmcia.o
 .reginfo       0x0000000000000000       0x18 drivers/rtc/librtc.o
 .text          0x0000000000000000        0x0 drivers/rtc/librtc.o
 .text.mktime   0x0000000000000000       0xa4 drivers/rtc/librtc.o
 .data          0x0000000000000000        0x0 drivers/rtc/librtc.o
 .bss           0x0000000000000000        0x0 drivers/rtc/librtc.o
 .pdr           0x0000000000000000       0x60 drivers/rtc/librtc.o
 .reginfo       0x0000000000000000       0x18 lib/libgeneric.o
 .text          0x0000000000000000        0x0 lib/libgeneric.o
 .text.crc7     0x0000000000000000       0x38 lib/libgeneric.o
 .text.display_options
                0x0000000000000000       0x2c lib/libgeneric.o
 .text.hstrstr_r
                0x0000000000000000       0xd4 lib/libgeneric.o
 .text.ldiv     0x0000000000000000       0x34 lib/libgeneric.o
 .text.strmhz   0x0000000000000000       0x94 lib/libgeneric.o
 .text.strcat   0x0000000000000000       0x38 lib/libgeneric.o
 .text.strncat  0x0000000000000000       0x4c lib/libgeneric.o
 .text.strrchr  0x0000000000000000       0x58 lib/libgeneric.o
 .text.strspn   0x0000000000000000       0x38 lib/libgeneric.o
 .text.strpbrk  0x0000000000000000       0x3c lib/libgeneric.o
 .text.strtok   0x0000000000000000       0xa0 lib/libgeneric.o
 .text.strsep   0x0000000000000000       0x58 lib/libgeneric.o
 .text.strswab  0x0000000000000000       0x50 lib/libgeneric.o
 .text.bcopy    0x0000000000000000       0x30 lib/libgeneric.o
 .text.memscan  0x0000000000000000       0x2c lib/libgeneric.o
 .text.strstr   0x0000000000000000       0x9c lib/libgeneric.o
 .text.ustrtoul
                0x0000000000000000       0x9c lib/libgeneric.o
 .text.simple_strtoull
                0x0000000000000000       0xfc lib/libgeneric.o
 .text.panic    0x0000000000000000       0x50 lib/libgeneric.o
 .text.__assert_fail
                0x0000000000000000       0x18 lib/libgeneric.o
 .rodata.crc7_syndrome_table
                0x0000000000000000      0x100 lib/libgeneric.o
 .data          0x0000000000000000        0x0 lib/libgeneric.o
 .bss           0x0000000000000000        0x0 lib/libgeneric.o
 .pdr           0x0000000000000000      0x860 lib/libgeneric.o
 COMMON         0x0000000000000000        0x4 lib/libgeneric.o
 .reginfo       0x0000000000000000       0x18 lib/lzma/liblzma.o
 .text          0x0000000000000000        0x0 lib/lzma/liblzma.o
 .text.LzmaDec_InitDicAndState
                0x0000000000000000       0x38 lib/lzma/liblzma.o
 .text.LzmaDec_DecodeToBuf
                0x0000000000000000      0x140 lib/lzma/liblzma.o
 .text.LzmaDec_Free
                0x0000000000000000       0x44 lib/lzma/liblzma.o
 .text.LzmaDec_Allocate
                0x0000000000000000       0xd8 lib/lzma/liblzma.o
 .data          0x0000000000000000        0x0 lib/lzma/liblzma.o
 .bss           0x0000000000000000        0x0 lib/lzma/liblzma.o
 .pdr           0x0000000000000000      0x220 lib/lzma/liblzma.o
 .reginfo       0x0000000000000000       0x18 lib/zlib/libz.o
 .text          0x0000000000000000        0x0 lib/zlib/libz.o
 .text.inflateInit_
                0x0000000000000000       0x18 lib/zlib/libz.o
 .rodata.z_errmsg
                0x0000000000000000       0x28 lib/zlib/libz.o
 .data          0x0000000000000000        0x0 lib/zlib/libz.o
 .bss           0x0000000000000000        0x0 lib/zlib/libz.o
 .pdr           0x0000000000000000      0x140 lib/zlib/libz.o
 .reginfo       0x0000000000000000       0x18 net/libnet.o
 .text          0x0000000000000000        0x0 net/libnet.o
 .text.eth_setenv_enetaddr
                0x0000000000000000       0x40 net/libnet.o
 .text.eth_get_dev_by_name
                0x0000000000000000       0x9c net/libnet.o
 .text.eth_get_dev_by_index
                0x0000000000000000       0x38 net/libnet.o
 .text.eth_unregister
                0x0000000000000000       0x9c net/libnet.o
 .text.NetInit  0x0000000000000000        0xc net/libnet.o
 .text.VLAN_to_string
                0x0000000000000000       0x3c net/libnet.o
 .rodata.__FUNCTION__.3618
                0x0000000000000000       0x14 net/libnet.o
 .data          0x0000000000000000        0x0 net/libnet.o
 .data.TftpRRQTimeoutMSecs
                0x0000000000000000        0x4 net/libnet.o
 .bss           0x0000000000000000        0x0 net/libnet.o
 .pdr           0x0000000000000000      0x700 net/libnet.o
 .reginfo       0x0000000000000000       0x18 board/Realtek/rtl838x/librtl838x.o
 .text          0x0000000000000000        0x0 board/Realtek/rtl838x/librtl838x.o
 .text.do_mem_mtest_dtr
                0x0000000000000000      0x214 board/Realtek/rtl838x/librtl838x.o
 .text.eraseFlash
                0x0000000000000000       0xc8 board/Realtek/rtl838x/librtl838x.o
 .text._rx_callback
                0x0000000000000000       0x8c board/Realtek/rtl838x/librtl838x.o
 .text._rtk_comboport_port_media_set
                0x0000000000000000       0x64 board/Realtek/rtl838x/librtl838x.o
 .text.rtk_comboport_portcopper
                0x0000000000000000       0x18 board/Realtek/rtl838x/librtl838x.o
 .text.rtk_comboport_portfiber
                0x0000000000000000       0x38 board/Realtek/rtl838x/librtl838x.o
 .text.rtk_sfp_speed_set
                0x0000000000000000       0x6c board/Realtek/rtl838x/librtl838x.o
 .text.rtk_sysEsd_set
                0x0000000000000000      0x24c board/Realtek/rtl838x/librtl838x.o
 .text._rtcore_ledSync_init
                0x0000000000000000        0x8 board/Realtek/rtl838x/librtl838x.o
 .text.rtcore_customer_init
                0x0000000000000000        0x8 board/Realtek/rtl838x/librtl838x.o
 .text.rtcore_unit_attach
                0x0000000000000000        0x8 board/Realtek/rtl838x/librtl838x.o
 .text._hwp_unitInfo2unitIdx_get
                0x0000000000000000       0x34 board/Realtek/rtl838x/librtl838x.o
 .text._hwp_debug_portCnt_show
                0x0000000000000000       0x30 board/Realtek/rtl838x/librtl838x.o
 .text.hwp_unit_show
                0x0000000000000000       0x94 board/Realtek/rtl838x/librtl838x.o
 .text.hwp_parsedInfo_show
                0x0000000000000000      0x86c board/Realtek/rtl838x/librtl838x.o
 .text._phyType_name
                0x0000000000000000       0x74 board/Realtek/rtl838x/librtl838x.o
 .text._hwp_infoPortCntPortMask_show
                0x0000000000000000       0x78 board/Realtek/rtl838x/librtl838x.o
 .text.hwp_info_show
                0x0000000000000000      0x5c8 board/Realtek/rtl838x/librtl838x.o
 .text.hwp_unitID_allocate
                0x0000000000000000       0x68 board/Realtek/rtl838x/librtl838x.o
 .text.hwp_unit_detach
                0x0000000000000000       0x94 board/Realtek/rtl838x/librtl838x.o
 .text.hwp_portmaskAttriValid_Chk
                0x0000000000000000      0x188 board/Realtek/rtl838x/librtl838x.o
 .text.hwp_portmaskEthTypeValid_Chk
                0x0000000000000000      0x188 board/Realtek/rtl838x/librtl838x.o
 .text.hwp_portmaskMediumValid_Chk
                0x0000000000000000      0x174 board/Realtek/rtl838x/librtl838x.o
 .text.hwp_unit_get_next
                0x0000000000000000       0x4c board/Realtek/rtl838x/librtl838x.o
 .text.hwp_multiSdsPortLaneNum_get
                0x0000000000000000       0x88 board/Realtek/rtl838x/librtl838x.o
 .text.hwp_get_port_by_baseport_offset
                0x0000000000000000       0xd4 board/Realtek/rtl838x/librtl838x.o
 .text.hwp_get_offset_by_baseport_port
                0x0000000000000000       0xd0 board/Realtek/rtl838x/librtl838x.o
 .text.hwp_identifier_get
                0x0000000000000000       0x68 board/Realtek/rtl838x/librtl838x.o
 .text.hwp_forceProfile
                0x0000000000000000       0x68 board/Realtek/rtl838x/librtl838x.o
 .text.ioal_debug_show
                0x0000000000000000       0xac board/Realtek/rtl838x/librtl838x.o
 .text.ioal_param_ledInitFlag_get
                0x0000000000000000        0xc board/Realtek/rtl838x/librtl838x.o
 .text.ioal_param_sysMac_get
                0x0000000000000000        0x8 board/Realtek/rtl838x/librtl838x.o
 .text.ioal_log_bootMsgLevel_get
                0x0000000000000000       0xcc board/Realtek/rtl838x/librtl838x.o
 .text.ioal_mem32_hraCb_register
                0x0000000000000000       0x48 board/Realtek/rtl838x/librtl838x.o
 .text.rt_bsp_pinFrcRstout_phy_reset
                0x0000000000000000        0x8 board/Realtek/rtl838x/librtl838x.o
 .text.osal_time_sleep
                0x0000000000000000       0x10 board/Realtek/rtl838x/librtl838x.o
 .text.osal_sem_mutex_destroy
                0x0000000000000000        0x8 board/Realtek/rtl838x/librtl838x.o
 .text.osal_sem_create
                0x0000000000000000        0x8 board/Realtek/rtl838x/librtl838x.o
 .text.osal_sem_destroy
                0x0000000000000000        0x8 board/Realtek/rtl838x/librtl838x.o
 .text.osal_sem_take
                0x0000000000000000        0x8 board/Realtek/rtl838x/librtl838x.o
 .text.osal_sem_give
                0x0000000000000000        0x8 board/Realtek/rtl838x/librtl838x.o
 .text.osal_spl_spin_lock_create
                0x0000000000000000        0x8 board/Realtek/rtl838x/librtl838x.o
 .text.osal_spl_spin_lock_destroy
                0x0000000000000000        0x8 board/Realtek/rtl838x/librtl838x.o
 .text.osal_spl_spin_lock
                0x0000000000000000        0x8 board/Realtek/rtl838x/librtl838x.o
 .text.osal_spl_spin_unlock
                0x0000000000000000        0x8 board/Realtek/rtl838x/librtl838x.o
 .text.osal_spl_spin_lock_irqsave
                0x0000000000000000        0x8 board/Realtek/rtl838x/librtl838x.o
 .text.osal_spl_spin_unlock_irqrestore
                0x0000000000000000        0x8 board/Realtek/rtl838x/librtl838x.o
 .text.osal_thread_create
                0x0000000000000000        0x8 board/Realtek/rtl838x/librtl838x.o
 .text.osal_thread_destroy
                0x0000000000000000        0x8 board/Realtek/rtl838x/librtl838x.o
 .text.osal_thread_exit
                0x0000000000000000        0x8 board/Realtek/rtl838x/librtl838x.o
 .text.drv_swcore_jtag_intf_set
                0x0000000000000000       0x90 board/Realtek/rtl838x/librtl838x.o
 .text.drv_swcore_jtag_intf_get
                0x0000000000000000       0x74 board/Realtek/rtl838x/librtl838x.o
 .text.drv_swcore_family_cid_get
                0x0000000000000000       0x44 board/Realtek/rtl838x/librtl838x.o
 .text.drv_swcore_CPU_freq_get_8390
                0x0000000000000000       0xb0 board/Realtek/rtl838x/librtl838x.o
 .text.drv_swcore_CPU_freq_get_8380
                0x0000000000000000      0x10c board/Realtek/rtl838x/librtl838x.o
 .text.drv_swcore_CPU_freq_get_9310
                0x0000000000000000        0x8 board/Realtek/rtl838x/librtl838x.o
 .text.drv_swcore_CPU_freq_get_9300
                0x0000000000000000        0x8 board/Realtek/rtl838x/librtl838x.o
 .text.drv_swcore_CPU_freq_get
                0x0000000000000000       0x40 board/Realtek/rtl838x/librtl838x.o
 .text._drv_swcore_uart0RegBase_get
                0x0000000000000000       0x50 board/Realtek/rtl838x/librtl838x.o
 .text._drv_swcore_gpioRegBase_get
                0x0000000000000000       0x50 board/Realtek/rtl838x/librtl838x.o
 .text.drv_swcore_register_dump
                0x0000000000000000      0x1d8 board/Realtek/rtl838x/librtl838x.o
 .text.drv_swcore_earlyInit_start
                0x0000000000000000       0x10 board/Realtek/rtl838x/librtl838x.o
 .text.drv_swcore_cid_cmp
                0x0000000000000000       0x50 board/Realtek/rtl838x/librtl838x.o
 .text._nic_swNicRst_get
                0x0000000000000000       0x34 board/Realtek/rtl838x/librtl838x.o
 .text._nic_swNicRst_set
                0x0000000000000000       0x34 board/Realtek/rtl838x/librtl838x.o
 .text._nic_cpuL2FloodMask_remove
                0x0000000000000000       0x34 board/Realtek/rtl838x/librtl838x.o
 .text._nic_holRingCnt_get
                0x0000000000000000       0x34 board/Realtek/rtl838x/librtl838x.o
 .text._nic_holRingCnt_set
                0x0000000000000000       0x34 board/Realtek/rtl838x/librtl838x.o
 .text._nic_ringBaseAddr_get
                0x0000000000000000       0x34 board/Realtek/rtl838x/librtl838x.o
 .text._nic_rxTruncateLength_get
                0x0000000000000000       0x34 board/Realtek/rtl838x/librtl838x.o
 .text._nic_nicEnable_get
                0x0000000000000000       0x34 board/Realtek/rtl838x/librtl838x.o
 .text._nic_nicTxBusySts_get
                0x0000000000000000       0x34 board/Realtek/rtl838x/librtl838x.o
 .text._nic_cpuTagId_set
                0x0000000000000000       0x34 board/Realtek/rtl838x/librtl838x.o
 .text.drv_nic_rx_status_get
                0x0000000000000000       0x44 board/Realtek/rtl838x/librtl838x.o
 .text.drv_nic_rx_unregister
                0x0000000000000000       0x78 board/Realtek/rtl838x/librtl838x.o
 .text.drv_nic_pkt_alloc
                0x0000000000000000       0x4c board/Realtek/rtl838x/librtl838x.o
 .text.drv_nic_pkt_free
                0x0000000000000000       0x54 board/Realtek/rtl838x/librtl838x.o
 .text.drv_nic_reset
                0x0000000000000000      0x298 board/Realtek/rtl838x/librtl838x.o
 .text.drv_nic_dbg_get
                0x0000000000000000       0x44 board/Realtek/rtl838x/librtl838x.o
 .text.drv_nic_dbg_set
                0x0000000000000000       0x40 board/Realtek/rtl838x/librtl838x.o
 .text.drv_nic_cntr_dump
                0x0000000000000000       0x98 board/Realtek/rtl838x/librtl838x.o
 .text.drv_nic_cntr_clear
                0x0000000000000000       0x68 board/Realtek/rtl838x/librtl838x.o
 .text.drv_nic_ringbuf_dump
                0x0000000000000000      0x570 board/Realtek/rtl838x/librtl838x.o
 .text.drv_nic_pktHdrMBuf_dump
                0x0000000000000000      0x2f8 board/Realtek/rtl838x/librtl838x.o
 .text.osal_isr_unregister
                0x0000000000000000       0x48 board/Realtek/rtl838x/librtl838x.o
 .text.drv_extGpio_devReady_get
                0x0000000000000000      0x1a4 board/Realtek/rtl838x/librtl838x.o
 .text.drv_extGpio_dev_get
                0x0000000000000000       0x7c board/Realtek/rtl838x/librtl838x.o
 .text.drv_extGpio_devEnable_get
                0x0000000000000000      0x198 board/Realtek/rtl838x/librtl838x.o
 .text.drv_extGpio_syncEnable_get
                0x0000000000000000      0x140 board/Realtek/rtl838x/librtl838x.o
 .text.drv_extGpio_syncEnable_set
                0x0000000000000000      0x198 board/Realtek/rtl838x/librtl838x.o
 .text.drv_extGpio_syncStatus_get
                0x0000000000000000      0x140 board/Realtek/rtl838x/librtl838x.o
 .text.drv_extGpio_sync_start
                0x0000000000000000      0x174 board/Realtek/rtl838x/librtl838x.o
 .text.drv_extGpio_pin_get
                0x0000000000000000      0x320 board/Realtek/rtl838x/librtl838x.o
 .text.drv_extGpio_devRecovery_start
                0x0000000000000000      0x178 board/Realtek/rtl838x/librtl838x.o
 .text.drv_extGpio_direction_get
                0x0000000000000000      0x26c board/Realtek/rtl838x/librtl838x.o
 .text.drv_extGpio_i2c_init
                0x0000000000000000        0x8 board/Realtek/rtl838x/librtl838x.o
 .text.drv_extGpio_i2c_get
                0x0000000000000000        0x8 board/Realtek/rtl838x/librtl838x.o
 .text.drv_extGpio_i2c_read
                0x0000000000000000        0x8 board/Realtek/rtl838x/librtl838x.o
 .text.drv_extGpio_i2c_write
                0x0000000000000000        0x8 board/Realtek/rtl838x/librtl838x.o
 .text.drv_rtl8231_mdcSem_register
                0x0000000000000000       0x48 board/Realtek/rtl838x/librtl838x.o
 .text.drv_rtl8231_mdcSem_unregister
                0x0000000000000000       0x48 board/Realtek/rtl838x/librtl838x.o
 .text.drv_rtl8231_intrEnable_get
                0x0000000000000000       0x54 board/Realtek/rtl838x/librtl838x.o
 .text.drv_rtl8231_intrMode_get
                0x0000000000000000       0x54 board/Realtek/rtl838x/librtl838x.o
 .text.drv_rtl8231_intrStatus_get
                0x0000000000000000       0x54 board/Realtek/rtl838x/librtl838x.o
 .text.drv_rtl8231_intrStatus_clear
                0x0000000000000000       0x54 board/Realtek/rtl838x/librtl838x.o
 .text.drv_rtl8231_extGPIOIntrStatus_get
                0x0000000000000000       0x54 board/Realtek/rtl838x/librtl838x.o
 .text.drv_rtl8231_directAccess_set
                0x0000000000000000       0x54 board/Realtek/rtl838x/librtl838x.o
 .text.drv_rtl8231_extra_devEnable_get
                0x0000000000000000       0x34 board/Realtek/rtl838x/librtl838x.o
 .text.drv_rtl8231_extra_direction_get
                0x0000000000000000       0x34 board/Realtek/rtl838x/librtl838x.o
 .text.drv_rtl8231_extra_devReady_get
                0x0000000000000000       0x34 board/Realtek/rtl838x/librtl838x.o
 .text.drv_gpio_isr_get
                0x0000000000000000       0x90 board/Realtek/rtl838x/librtl838x.o
 .text.drv_gpio_isr_clear
                0x0000000000000000       0x84 board/Realtek/rtl838x/librtl838x.o
 .text.drv_spiPin_init
                0x0000000000000000       0x24 board/Realtek/rtl838x/librtl838x.o
 .text.drv_spi_transfer_start
                0x0000000000000000       0x30 board/Realtek/rtl838x/librtl838x.o
 .text.drv_spi_transfer_stop
                0x0000000000000000       0x30 board/Realtek/rtl838x/librtl838x.o
 .text.drv_spi_raw_read
                0x0000000000000000        0x8 board/Realtek/rtl838x/librtl838x.o
 .text.drv_spi_raw_write
                0x0000000000000000        0x8 board/Realtek/rtl838x/librtl838x.o
 .text.drv_software_i2c_type_get
                0x0000000000000000       0x60 board/Realtek/rtl838x/librtl838x.o
 .text.drv_software_i2c_group_get
                0x0000000000000000       0x6c board/Realtek/rtl838x/librtl838x.o
 .text.drv_software_i2c_list
                0x0000000000000000      0x134 board/Realtek/rtl838x/librtl838x.o
 .text.rt_util_crc32_cal
                0x0000000000000000      0x184 board/Realtek/rtl838x/librtl838x.o
 .text.rt_util_flashVar_get
                0x0000000000000000      0x1f8 board/Realtek/rtl838x/librtl838x.o
 .text.rt_util_ascii2hex
                0x0000000000000000       0x68 board/Realtek/rtl838x/librtl838x.o
 .text.rt_util_sysMac_get
                0x0000000000000000       0xf0 board/Realtek/rtl838x/librtl838x.o
 .text.rt_util_ledInitFlag_get
                0x0000000000000000       0xa4 board/Realtek/rtl838x/librtl838x.o
 .text.rt_util_macCmp
                0x0000000000000000       0x24 board/Realtek/rtl838x/librtl838x.o
 .text.rt_util_actListIndex_get
                0x0000000000000000       0x54 board/Realtek/rtl838x/librtl838x.o
 .text.rt_util_actListAction_get
                0x0000000000000000       0x44 board/Realtek/rtl838x/librtl838x.o
 .text.rt_util_ipLength2Mask_ret
                0x0000000000000000       0x2c board/Realtek/rtl838x/librtl838x.o
 .text.rt_util_ip6Length2Mask_ret
                0x0000000000000000       0xd8 board/Realtek/rtl838x/librtl838x.o
 .text.rt_util_ipMask2Length_ret
                0x0000000000000000       0x28 board/Realtek/rtl838x/librtl838x.o
 .text.rt_util_ip6Mask2Length_ret
                0x0000000000000000       0x48 board/Realtek/rtl838x/librtl838x.o
 .text.rt_util_ipMaxMatchLength_ret
                0x0000000000000000       0x44 board/Realtek/rtl838x/librtl838x.o
 .text.rt_util_ipv6MaxMatchLength_ret
                0x0000000000000000       0x60 board/Realtek/rtl838x/librtl838x.o
 .text.rt_util_ipv6IsZero_ret
                0x0000000000000000       0x34 board/Realtek/rtl838x/librtl838x.o
 .text.rt_util_ipv6IsAllOnes_ret
                0x0000000000000000       0x38 board/Realtek/rtl838x/librtl838x.o
 .text.rt_util_ipv6Cmp
                0x0000000000000000       0x3c board/Realtek/rtl838x/librtl838x.o
 .text.rt_util_grayToBinary
                0x0000000000000000       0x2c board/Realtek/rtl838x/librtl838x.o
 .text.rt_util_upinkPort_mask2Reg
                0x0000000000000000       0xa4 board/Realtek/rtl838x/librtl838x.o
 .text.rt_util_upinkPort_reg2Mask
                0x0000000000000000       0xe4 board/Realtek/rtl838x/librtl838x.o
 .text.rt_util_portmask_portReg2Portmask
                0x0000000000000000       0x88 board/Realtek/rtl838x/librtl838x.o
 .text.rt_util_portmask_portmask2PortReg
                0x0000000000000000       0x6c board/Realtek/rtl838x/librtl838x.o
 .text.rt_util_tblEntry2Field
                0x0000000000000000       0x1c board/Realtek/rtl838x/librtl838x.o
 .text.rt_util_field2TblEntry
                0x0000000000000000       0x1c board/Realtek/rtl838x/librtl838x.o
 .text.rtk_portmask2bitPortmask_get
                0x0000000000000000       0x74 board/Realtek/rtl838x/librtl838x.o
 .text.rt_bitop_numberOfSetBits
                0x0000000000000000       0x54 board/Realtek/rtl838x/librtl838x.o
 .text.rt_bitop_findFirstBit
                0x0000000000000000       0x34 board/Realtek/rtl838x/librtl838x.o
 .text.rt_bitop_findFirstBitInAaray
                0x0000000000000000       0x70 board/Realtek/rtl838x/librtl838x.o
 .text.rt_bitop_findFirstZeroBitInAaray
                0x0000000000000000       0x78 board/Realtek/rtl838x/librtl838x.o
 .text.rt_bitop_findLastBitInAaray
                0x0000000000000000       0x68 board/Realtek/rtl838x/librtl838x.o
 .text.rt_bitop_findIdxBitInAaray
                0x0000000000000000       0x78 board/Realtek/rtl838x/librtl838x.o
 .text.hal_clone_device
                0x0000000000000000      0x118 board/Realtek/rtl838x/librtl838x.o
 .text.hal_get_driver_id
                0x0000000000000000       0x64 board/Realtek/rtl838x/librtl838x.o
 .text.hal_show_portmask
                0x0000000000000000       0xd4 board/Realtek/rtl838x/librtl838x.o
 .text.hal_debug_show_info
                0x0000000000000000      0x2b0 board/Realtek/rtl838x/librtl838x.o
 .text.hal_portMaxBandwidth_ret
                0x0000000000000000       0xb8 board/Realtek/rtl838x/librtl838x.o
 .text.hal_stack_portmask_set
                0x0000000000000000       0x44 board/Realtek/rtl838x/librtl838x.o
 .text.hal_stack_portmask_get
                0x0000000000000000       0x48 board/Realtek/rtl838x/librtl838x.o
 .text.hal_stack_portmask_check
                0x0000000000000000       0x88 board/Realtek/rtl838x/librtl838x.o
 .text.phy_speedStatus_get
                0x0000000000000000       0xf8 board/Realtek/rtl838x/librtl838x.o
 .text.phy_broadcastEnable_set
                0x0000000000000000       0xf8 board/Realtek/rtl838x/librtl838x.o
 .text.phy_broadcastID_set
                0x0000000000000000       0xf8 board/Realtek/rtl838x/librtl838x.o
 .text.phy_eeepEnable_get
                0x0000000000000000       0xf8 board/Realtek/rtl838x/librtl838x.o
 .text.phy_eeepEnable_set
                0x0000000000000000       0xf8 board/Realtek/rtl838x/librtl838x.o
 .text.phy_patch_set
                0x0000000000000000       0xe8 board/Realtek/rtl838x/librtl838x.o
 .text._phy_serdes_linkdown_chk
                0x0000000000000000       0xc0 board/Realtek/rtl838x/librtl838x.o
 .text._phy_chk_rst_status
                0x0000000000000000      0x9b4 board/Realtek/rtl838x/librtl838x.o
 .text.phy_chk_rst_status
                0x0000000000000000      0x730 board/Realtek/rtl838x/librtl838x.o
 .text.phy_drv_chk
                0x0000000000000000       0x7c board/Realtek/rtl838x/librtl838x.o
 .text.phy_fiberOAMLoopBackEnable_set
                0x0000000000000000       0xf8 board/Realtek/rtl838x/librtl838x.o
 .text.phy_ptpInterruptStatus_get
                0x0000000000000000      0x108 board/Realtek/rtl838x/librtl838x.o
 .text.phy_reg_park_get
                0x0000000000000000      0x164 board/Realtek/rtl838x/librtl838x.o
 .text.phy_reg_park_set
                0x0000000000000000      0x164 board/Realtek/rtl838x/librtl838x.o
 .text.phy_reg_broadcast_set
                0x0000000000000000       0xbc board/Realtek/rtl838x/librtl838x.o
 .text.phy_fiberRx_check
                0x0000000000000000      0x1a4 board/Realtek/rtl838x/librtl838x.o
 .text.phy_fiberRx_reset
                0x0000000000000000      0x194 board/Realtek/rtl838x/librtl838x.o
 .text.phy_serdesFiberRx_check
                0x0000000000000000      0x1a4 board/Realtek/rtl838x/librtl838x.o
 .text.phy_serdesFiberRx_reset
                0x0000000000000000      0x194 board/Realtek/rtl838x/librtl838x.o
 .text.phy_fiberLinkUp_handler1
                0x0000000000000000      0x194 board/Realtek/rtl838x/librtl838x.o
 .text.phy_serdes_rst
                0x0000000000000000      0x124 board/Realtek/rtl838x/librtl838x.o
 .text.phy_cableESD_recover
                0x0000000000000000      0x6fc board/Realtek/rtl838x/librtl838x.o
 .text.phy_serdes_linkdown_check
                0x0000000000000000      0x194 board/Realtek/rtl838x/librtl838x.o
 .text.phy_construct_enable_set
                0x0000000000000000      0x108 board/Realtek/rtl838x/librtl838x.o
 .text._phy_swMacPollPhyStatus_get
                0x0000000000000000       0xdc board/Realtek/rtl838x/librtl838x.o
 .text._phy_resolutionResult2Speed_get
                0x0000000000000000       0x70 board/Realtek/rtl838x/librtl838x.o
 .text.phy_fiberUnidirEnable_set
                0x0000000000000000       0xf8 board/Realtek/rtl838x/librtl838x.o
 .text.phy_modelId_get
                0x0000000000000000       0x30 board/Realtek/rtl838x/librtl838x.o
 .text.phy_fiberRemoteFault_handle
                0x0000000000000000       0xe8 board/Realtek/rtl838x/librtl838x.o
 .text.phy_info_get
                0x0000000000000000       0xfc board/Realtek/rtl838x/librtl838x.o
 .text.phy_waMon_phyReconfig_register
                0x0000000000000000       0x34 board/Realtek/rtl838x/librtl838x.o
 .text.phy_waMon_phyReconfig_unregister
                0x0000000000000000       0x28 board/Realtek/rtl838x/librtl838x.o
 .text.reg_idx2Addr_get
                0x0000000000000000       0x64 board/Realtek/rtl838x/librtl838x.o
 .text.reg_idxMax_get
                0x0000000000000000       0x38 board/Realtek/rtl838x/librtl838x.o
 .text.reg_array_field_read
                0x0000000000000000      0x1c4 board/Realtek/rtl838x/librtl838x.o
 .text.reg_array_field_write_unproct
                0x0000000000000000      0x1ec board/Realtek/rtl838x/librtl838x.o
 .text.reg_array_field_write1toClear
                0x0000000000000000      0x234 board/Realtek/rtl838x/librtl838x.o
 .text.reg_info_get
                0x0000000000000000       0xdc board/Realtek/rtl838x/librtl838x.o
 .text.hal_miim_broadcast_write
                0x0000000000000000       0x68 board/Realtek/rtl838x/librtl838x.o
 .text.hal_miim_extParkPage_read
                0x0000000000000000       0xa4 board/Realtek/rtl838x/librtl838x.o
 .text.hal_miim_extParkPage_write
                0x0000000000000000       0xa4 board/Realtek/rtl838x/librtl838x.o
 .text.table_read
                0x0000000000000000       0x68 board/Realtek/rtl838x/librtl838x.o
 .text.table_write
                0x0000000000000000       0x68 board/Realtek/rtl838x/librtl838x.o
 .text.table_field_get
                0x0000000000000000      0x13c board/Realtek/rtl838x/librtl838x.o
 .text.table_field_mac_get
                0x0000000000000000       0x64 board/Realtek/rtl838x/librtl838x.o
 .text.table_field_set
                0x0000000000000000      0x17c board/Realtek/rtl838x/librtl838x.o
 .text.table_field_mac_set
                0x0000000000000000       0x64 board/Realtek/rtl838x/librtl838x.o
 .text.table_field_byte_get
                0x0000000000000000      0x180 board/Realtek/rtl838x/librtl838x.o
 .text.table_field_byte_set
                0x0000000000000000      0x190 board/Realtek/rtl838x/librtl838x.o
 .text.table_size_get
                0x0000000000000000       0x70 board/Realtek/rtl838x/librtl838x.o
 .text.hal_sds_field_read
                0x0000000000000000       0x8c board/Realtek/rtl838x/librtl838x.o
 .text.hal_sds_field_write
                0x0000000000000000      0x1b8 board/Realtek/rtl838x/librtl838x.o
 .text.hal_mac_serdes_rst
                0x0000000000000000       0xe4 board/Realtek/rtl838x/librtl838x.o
 .text.rtl8208_config
                0x0000000000000000       0xe8 board/Realtek/rtl838x/librtl838x.o
 .text.rtl8214fb_config
                0x0000000000000000      0x69c board/Realtek/rtl838x/librtl838x.o
 .text.phy_construct_field_read
                0x0000000000000000       0x94 board/Realtek/rtl838x/librtl838x.o
 .text.rtl8218fb_rtl8380_config
                0x0000000000000000      0x674 board/Realtek/rtl838x/librtl838x.o
 .text.rtl8208_rtl8380_config
                0x0000000000000000       0x10 board/Realtek/rtl838x/librtl838x.o
 .text.rtl8208_rtl8390_config
                0x0000000000000000       0x10 board/Realtek/rtl838x/librtl838x.o
 .text.rtl8214fb_rtl8380_config
                0x0000000000000000       0x10 board/Realtek/rtl838x/librtl838x.o
 .text.rtl8214fb_rtl8390_config
                0x0000000000000000       0x10 board/Realtek/rtl838x/librtl838x.o
 .text.construct_rtl8214fb_phyPowerOn
                0x0000000000000000      0x15c board/Realtek/rtl838x/librtl838x.o
 .text.construct_rtl8214fb_phyPowerOff
                0x0000000000000000      0x148 board/Realtek/rtl838x/librtl838x.o
 .text.phy_construct_reset
                0x0000000000000000      0x1f8 board/Realtek/rtl838x/librtl838x.o
 .text._phy_rtk_oui_chk
                0x0000000000000000       0x28 board/Realtek/rtl838x/librtl838x.o
 .text._phy_identify_default_c45
                0x0000000000000000       0xfc board/Realtek/rtl838x/librtl838x.o
 .text.phy_identify_int_find
                0x0000000000000000       0x94 board/Realtek/rtl838x/librtl838x.o
 .text.phy_identify_10GeSerdesDrv_find
                0x0000000000000000       0xcc board/Realtek/rtl838x/librtl838x.o
 .text.debug_regShow_set
                0x0000000000000000       0x10 board/Realtek/rtl838x/librtl838x.o
 .text.debug_regShow_get
                0x0000000000000000        0xc board/Realtek/rtl838x/librtl838x.o
 .text.dal_mgmt_mapper_remap
                0x0000000000000000       0xe4 board/Realtek/rtl838x/librtl838x.o
 .text.dal_mgmt_misc_init
                0x0000000000000000       0x1c board/Realtek/rtl838x/librtl838x.o
 .text.dal_phy_portEeepEnable_get
                0x0000000000000000      0x144 board/Realtek/rtl838x/librtl838x.o
 .text.dal_phy_portEeepEnable_set
                0x0000000000000000      0x148 board/Realtek/rtl838x/librtl838x.o
 .text.dal_phy_portLinkChange_process
                0x0000000000000000       0x78 board/Realtek/rtl838x/librtl838x.o
 .text.dal_phy_portSpeed_get
                0x0000000000000000       0xc8 board/Realtek/rtl838x/librtl838x.o
 .text.dal_phy_portSpeed_set
                0x0000000000000000       0xc8 board/Realtek/rtl838x/librtl838x.o
 .text.dal_phy_portDuplex_get
                0x0000000000000000       0xc8 board/Realtek/rtl838x/librtl838x.o
 .text.dal_phy_portDuplex_set
                0x0000000000000000       0xc8 board/Realtek/rtl838x/librtl838x.o
 .text.dal_phy_portFiberOAMLoopBackEnable_set
                0x0000000000000000       0xc8 board/Realtek/rtl838x/librtl838x.o
 .text.dal_phy_fiberUnidirEnable_set
                0x0000000000000000       0xf4 board/Realtek/rtl838x/librtl838x.o
 .text._dal_phy_portSwMacPollPhyStatus_get
                0x0000000000000000       0xc8 board/Realtek/rtl838x/librtl838x.o
 .text._dal_phy_macIntfSerdes_reset
                0x0000000000000000       0xc0 board/Realtek/rtl838x/librtl838x.o
 .text._dal_phy_debugCmd_set
                0x0000000000000000       0x7c board/Realtek/rtl838x/librtl838x.o
 .text._dal_phy_debug_cmd
                0x0000000000000000        0x8 board/Realtek/rtl838x/librtl838x.o
 .text.rtk_unit_attach
                0x0000000000000000       0xf0 board/Realtek/rtl838x/librtl838x.o
 .text.rtk_unit_detach
                0x0000000000000000       0x50 board/Realtek/rtl838x/librtl838x.o
 .text.rtk_port_init
                0x0000000000000000       0x48 board/Realtek/rtl838x/librtl838x.o
 .text.rtk_port_link_get
                0x0000000000000000       0x48 board/Realtek/rtl838x/librtl838x.o
 .text.rtk_port_flowctrl_get
                0x0000000000000000       0x48 board/Realtek/rtl838x/librtl838x.o
 .text.rtk_port_cpuPortId_get
                0x0000000000000000       0x48 board/Realtek/rtl838x/librtl838x.o
 .text.rtk_port_isolation_get
                0x0000000000000000       0x48 board/Realtek/rtl838x/librtl838x.o
 .text.rtk_port_isolationExt_get
                0x0000000000000000       0x48 board/Realtek/rtl838x/librtl838x.o
 .text.rtk_port_isolationExt_set
                0x0000000000000000       0x48 board/Realtek/rtl838x/librtl838x.o
 .text.rtk_port_isolation_add
                0x0000000000000000       0x48 board/Realtek/rtl838x/librtl838x.o
 .text.rtk_port_isolation_del
                0x0000000000000000       0x48 board/Realtek/rtl838x/librtl838x.o
 .text.rtk_port_isolationRestrictRoute_get
                0x0000000000000000       0x48 board/Realtek/rtl838x/librtl838x.o
 .text.rtk_port_isolationRestrictRoute_set
                0x0000000000000000       0x48 board/Realtek/rtl838x/librtl838x.o
 .text.rtk_port_backpressureEnable_get
                0x0000000000000000       0x48 board/Realtek/rtl838x/librtl838x.o
 .text.rtk_port_backpressureEnable_set
                0x0000000000000000       0x48 board/Realtek/rtl838x/librtl838x.o
 .text.rtk_port_linkMon_enable
                0x0000000000000000        0x8 board/Realtek/rtl838x/librtl838x.o
 .text.rtk_port_linkMon_disable
                0x0000000000000000        0x8 board/Realtek/rtl838x/librtl838x.o
 .text.rtk_port_linkMon_register
                0x0000000000000000        0x8 board/Realtek/rtl838x/librtl838x.o
 .text.rtk_port_linkMon_unregister
                0x0000000000000000        0x8 board/Realtek/rtl838x/librtl838x.o
 .text.rtk_port_linkMon_swScanPorts_set
                0x0000000000000000       0x38 board/Realtek/rtl838x/librtl838x.o
 .text.rtk_port_linkMon_swScanPorts_get
                0x0000000000000000       0x38 board/Realtek/rtl838x/librtl838x.o
 .text.rtk_port_txEnable_get
                0x0000000000000000       0x48 board/Realtek/rtl838x/librtl838x.o
 .text.rtk_port_txEnable_set
                0x0000000000000000       0x48 board/Realtek/rtl838x/librtl838x.o
 .text.rtk_port_rxEnable_get
                0x0000000000000000       0x48 board/Realtek/rtl838x/librtl838x.o
 .text.rtk_port_rxEnable_set
                0x0000000000000000       0x48 board/Realtek/rtl838x/librtl838x.o
 .text.rtk_port_specialCongest_get
                0x0000000000000000       0x48 board/Realtek/rtl838x/librtl838x.o
 .text.rtk_port_specialCongest_set
                0x0000000000000000       0x48 board/Realtek/rtl838x/librtl838x.o
 .text.rtk_port_flowCtrlEnable_get
                0x0000000000000000       0x48 board/Realtek/rtl838x/librtl838x.o
 .text.rtk_port_flowCtrlEnable_set
                0x0000000000000000       0x48 board/Realtek/rtl838x/librtl838x.o
 .text.rtk_port_vlanBasedIsolationEntry_get
                0x0000000000000000       0x48 board/Realtek/rtl838x/librtl838x.o
 .text.rtk_port_vlanBasedIsolationEntry_set
                0x0000000000000000       0x48 board/Realtek/rtl838x/librtl838x.o
 .text.rtk_port_vlanBasedIsolation_vlanSource_get
                0x0000000000000000       0x48 board/Realtek/rtl838x/librtl838x.o
 .text.rtk_port_vlanBasedIsolation_vlanSource_set
                0x0000000000000000       0x48 board/Realtek/rtl838x/librtl838x.o
 .text.rtk_port_vlanBasedIsolationEgrBypass_get
                0x0000000000000000       0x48 board/Realtek/rtl838x/librtl838x.o
 .text.rtk_port_vlanBasedIsolationEgrBypass_set
                0x0000000000000000       0x48 board/Realtek/rtl838x/librtl838x.o
 .text.rtk_port_fiberUnidirEnable_get
                0x0000000000000000       0x48 board/Realtek/rtl838x/librtl838x.o
 .text.rtk_port_fiberUnidirEnable_set
                0x0000000000000000       0x48 board/Realtek/rtl838x/librtl838x.o
 .text.rtk_port_fiberOAMLoopBackEnable_set
                0x0000000000000000       0x48 board/Realtek/rtl838x/librtl838x.o
 .text.rtk_port_macForceFc_set
                0x0000000000000000       0x40 board/Realtek/rtl838x/librtl838x.o
 .text.rtk_port_macForceFc_get
                0x0000000000000000       0x40 board/Realtek/rtl838x/librtl838x.o
 .text.rtk_port_fiberDownSpeedEnable_get
                0x0000000000000000       0x48 board/Realtek/rtl838x/librtl838x.o
 .text.rtk_port_fiberDownSpeedEnable_set
                0x0000000000000000       0x48 board/Realtek/rtl838x/librtl838x.o
 .text.rtk_port_miscCtrl_get
                0x0000000000000000       0x48 board/Realtek/rtl838x/librtl838x.o
 .text.rtk_port_miscCtrl_set
                0x0000000000000000       0x48 board/Realtek/rtl838x/librtl838x.o
 .text.rtk_phy_init
                0x0000000000000000       0x48 board/Realtek/rtl838x/librtl838x.o
 .text.rtk_port_linkMedia_get
                0x0000000000000000       0x48 board/Realtek/rtl838x/librtl838x.o
 .text.rtk_port_speedDuplex_get
                0x0000000000000000       0x48 board/Realtek/rtl838x/librtl838x.o
 .text.rtk_port_adminEnable_get
                0x0000000000000000       0x48 board/Realtek/rtl838x/librtl838x.o
 .text.rtk_port_phyAutoNegoEnable_get
                0x0000000000000000       0x48 board/Realtek/rtl838x/librtl838x.o
 .text.rtk_port_phyAutoNegoEnable_set
                0x0000000000000000       0x48 board/Realtek/rtl838x/librtl838x.o
 .text.rtk_port_phyAutoNegoAbilityLocal_get
                0x0000000000000000       0x48 board/Realtek/rtl838x/librtl838x.o
 .text.rtk_port_phyAutoNegoAbility_get
                0x0000000000000000       0x48 board/Realtek/rtl838x/librtl838x.o
 .text.rtk_port_phyAutoNegoAbility_set
                0x0000000000000000       0x48 board/Realtek/rtl838x/librtl838x.o
 .text.rtk_port_phyForceModeAbility_get
                0x0000000000000000       0x48 board/Realtek/rtl838x/librtl838x.o
 .text.rtk_port_phyForceModeAbility_set
                0x0000000000000000       0x48 board/Realtek/rtl838x/librtl838x.o
 .text.rtk_port_phyForceFlowctrlMode_get
                0x0000000000000000       0x48 board/Realtek/rtl838x/librtl838x.o
 .text.rtk_port_phyForceFlowctrlMode_set
                0x0000000000000000       0x48 board/Realtek/rtl838x/librtl838x.o
 .text.rtk_port_phyMasterSlave_get
                0x0000000000000000       0x48 board/Realtek/rtl838x/librtl838x.o
 .text.rtk_port_phyMasterSlave_set
                0x0000000000000000       0x48 board/Realtek/rtl838x/librtl838x.o
 .text.rtk_port_phyReg_get
                0x0000000000000000       0x48 board/Realtek/rtl838x/librtl838x.o
 .text.rtk_port_phyReg_set
                0x0000000000000000       0x48 board/Realtek/rtl838x/librtl838x.o
 .text.rtk_port_phyExtParkPageReg_get
                0x0000000000000000       0x48 board/Realtek/rtl838x/librtl838x.o
 .text.rtk_port_phyExtParkPageReg_set
                0x0000000000000000       0x48 board/Realtek/rtl838x/librtl838x.o
 .text.rtk_port_phymaskExtParkPageReg_set
                0x0000000000000000       0x48 board/Realtek/rtl838x/librtl838x.o
 .text.rtk_port_phyMmdReg_get
                0x0000000000000000       0x48 board/Realtek/rtl838x/librtl838x.o
 .text.rtk_port_phyMmdReg_set
                0x0000000000000000       0x48 board/Realtek/rtl838x/librtl838x.o
 .text.rtk_port_phymaskMmdReg_set
                0x0000000000000000       0x48 board/Realtek/rtl838x/librtl838x.o
 .text.rtk_port_phyComboPortMedia_get
                0x0000000000000000       0x48 board/Realtek/rtl838x/librtl838x.o
 .text.rtk_port_phyComboPortMedia_set
                0x0000000000000000       0x54 board/Realtek/rtl838x/librtl838x.o
 .text.rtk_port_greenEnable_get
                0x0000000000000000       0x48 board/Realtek/rtl838x/librtl838x.o
 .text.rtk_port_greenEnable_set
                0x0000000000000000       0x48 board/Realtek/rtl838x/librtl838x.o
 .text.rtk_port_phyCrossOverMode_get
                0x0000000000000000       0x48 board/Realtek/rtl838x/librtl838x.o
 .text.rtk_port_phyCrossOverMode_set
                0x0000000000000000       0x48 board/Realtek/rtl838x/librtl838x.o
 .text.rtk_port_phyCrossOverStatus_get
                0x0000000000000000       0x48 board/Realtek/rtl838x/librtl838x.o
 .text.rtk_port_phyComboPortFiberMedia_get
                0x0000000000000000       0x48 board/Realtek/rtl838x/librtl838x.o
 .text.rtk_port_phyComboPortFiberMedia_set
                0x0000000000000000       0x54 board/Realtek/rtl838x/librtl838x.o
 .text.rtk_port_linkDownPowerSavingEnable_get
                0x0000000000000000       0x48 board/Realtek/rtl838x/librtl838x.o
 .text.rtk_port_linkDownPowerSavingEnable_set
                0x0000000000000000       0x48 board/Realtek/rtl838x/librtl838x.o
 .text.rtk_port_gigaLiteEnable_get
                0x0000000000000000       0x48 board/Realtek/rtl838x/librtl838x.o
 .text.rtk_port_gigaLiteEnable_set
                0x0000000000000000       0x48 board/Realtek/rtl838x/librtl838x.o
 .text.rtk_port_2pt5gLiteEnable_get
                0x0000000000000000       0x40 board/Realtek/rtl838x/librtl838x.o
 .text.rtk_port_2pt5gLiteEnable_set
                0x0000000000000000       0x40 board/Realtek/rtl838x/librtl838x.o
 .text.rtk_port_phyReconfig_register
                0x0000000000000000        0x8 board/Realtek/rtl838x/librtl838x.o
 .text.rtk_port_phyReconfig_unregister
                0x0000000000000000        0x8 board/Realtek/rtl838x/librtl838x.o
 .text.rtk_port_downSpeedEnable_get
                0x0000000000000000       0x48 board/Realtek/rtl838x/librtl838x.o
 .text.rtk_port_downSpeedEnable_set
                0x0000000000000000       0x48 board/Realtek/rtl838x/librtl838x.o
 .text.rtk_port_downSpeedStatus_get
                0x0000000000000000       0x40 board/Realtek/rtl838x/librtl838x.o
 .text.rtk_port_fiberNwayForceLinkEnable_get
                0x0000000000000000       0x48 board/Realtek/rtl838x/librtl838x.o
 .text.rtk_port_fiberNwayForceLinkEnable_set
                0x0000000000000000       0x48 board/Realtek/rtl838x/librtl838x.o
 .text.rtk_port_phyLoopBackEnable_get
                0x0000000000000000       0x48 board/Realtek/rtl838x/librtl838x.o
 .text.rtk_port_phyLoopBackEnable_set
                0x0000000000000000       0x48 board/Realtek/rtl838x/librtl838x.o
 .text.rtk_port_10gMedia_get
                0x0000000000000000       0x48 board/Realtek/rtl838x/librtl838x.o
 .text.rtk_port_phyFiberTxDis_set
                0x0000000000000000       0x48 board/Realtek/rtl838x/librtl838x.o
 .text.rtk_port_phyFiberTxDisPin_set
                0x0000000000000000       0x48 board/Realtek/rtl838x/librtl838x.o
 .text.rtk_port_fiberRxEnable_get
                0x0000000000000000       0x48 board/Realtek/rtl838x/librtl838x.o
 .text.rtk_port_fiberRxEnable_set
                0x0000000000000000       0x48 board/Realtek/rtl838x/librtl838x.o
 .text.rtk_port_phyPolar_get
                0x0000000000000000       0x48 board/Realtek/rtl838x/librtl838x.o
 .text.rtk_port_phyPolar_set
                0x0000000000000000       0x48 board/Realtek/rtl838x/librtl838x.o
 .text.rtk_port_phyEyeMonitor_start
                0x0000000000000000       0x48 board/Realtek/rtl838x/librtl838x.o
 .text.rtk_port_phyEyeMonitorInfo_get
                0x0000000000000000       0x48 board/Realtek/rtl838x/librtl838x.o
 .text.rtk_port_imageFlash_load
                0x0000000000000000       0x48 board/Realtek/rtl838x/librtl838x.o
 .text.rtk_port_phySdsRxCaliStatus_get
                0x0000000000000000       0x48 board/Realtek/rtl838x/librtl838x.o
 .text.rtk_port_phyReset_set
                0x0000000000000000       0x48 board/Realtek/rtl838x/librtl838x.o
 .text.rtk_port_phyLinkStatus_get
                0x0000000000000000       0x48 board/Realtek/rtl838x/librtl838x.o
 .text.rtk_port_phyPeerAutoNegoAbility_get
                0x0000000000000000       0x48 board/Realtek/rtl838x/librtl838x.o
 .text.rtk_port_phyMacIntfSerdesMode_get
                0x0000000000000000       0x48 board/Realtek/rtl838x/librtl838x.o
 .text.rtk_port_phyLedMode_set
                0x0000000000000000       0x48 board/Realtek/rtl838x/librtl838x.o
 .text.rtk_port_phyLedCtrl_get
                0x0000000000000000       0x48 board/Realtek/rtl838x/librtl838x.o
 .text.rtk_port_phyLedCtrl_set
                0x0000000000000000       0x48 board/Realtek/rtl838x/librtl838x.o
 .text.rtk_port_phyMacIntfSerdesLinkStatus_get
                0x0000000000000000       0x48 board/Realtek/rtl838x/librtl838x.o
 .text.rtk_port_phySdsEyeParam_get
                0x0000000000000000       0x48 board/Realtek/rtl838x/librtl838x.o
 .text.rtk_port_phySdsEyeParam_set
                0x0000000000000000       0x48 board/Realtek/rtl838x/librtl838x.o
 .text.rtk_port_phyMdiLoopbackEnable_get
                0x0000000000000000       0x40 board/Realtek/rtl838x/librtl838x.o
 .text.rtk_port_phyMdiLoopbackEnable_set
                0x0000000000000000       0x40 board/Realtek/rtl838x/librtl838x.o
 .text.rtk_port_phyIntr_init
                0x0000000000000000       0x40 board/Realtek/rtl838x/librtl838x.o
 .text.rtk_port_phyIntrEnable_get
                0x0000000000000000       0x40 board/Realtek/rtl838x/librtl838x.o
 .text.rtk_port_phyIntrEnable_set
                0x0000000000000000       0x40 board/Realtek/rtl838x/librtl838x.o
 .text.rtk_port_phyIntrStatus_get
                0x0000000000000000       0x48 board/Realtek/rtl838x/librtl838x.o
 .text.rtk_port_phyIntrMask_get
                0x0000000000000000       0x40 board/Realtek/rtl838x/librtl838x.o
 .text.rtk_port_phyIntrMask_set
                0x0000000000000000       0x40 board/Realtek/rtl838x/librtl838x.o
 .text.rtk_port_phySdsTestMode_set
                0x0000000000000000       0x40 board/Realtek/rtl838x/librtl838x.o
 .text.rtk_port_phySdsTestModeCnt_get
                0x0000000000000000       0x40 board/Realtek/rtl838x/librtl838x.o
 .text.rtk_port_phySdsLeq_get
                0x0000000000000000       0x48 board/Realtek/rtl838x/librtl838x.o
 .text.rtk_port_phySdsLeq_set
                0x0000000000000000       0x48 board/Realtek/rtl838x/librtl838x.o
 .text.rtk_port_phySds_get
                0x0000000000000000       0x48 board/Realtek/rtl838x/librtl838x.o
 .text.rtk_port_phySds_set
                0x0000000000000000       0x48 board/Realtek/rtl838x/librtl838x.o
 .text.rtk_port_phyCtrl_get
                0x0000000000000000       0x48 board/Realtek/rtl838x/librtl838x.o
 .text.rtk_port_phyCtrl_set
                0x0000000000000000       0x48 board/Realtek/rtl838x/librtl838x.o
 .text.rtk_port_phyLiteEnable_get
                0x0000000000000000       0x48 board/Realtek/rtl838x/librtl838x.o
 .text.rtk_port_phyLiteEnable_set
                0x0000000000000000       0x48 board/Realtek/rtl838x/librtl838x.o
 .text.rtk_port_phyDbgCounter_get
                0x0000000000000000       0x48 board/Realtek/rtl838x/librtl838x.o
 .text.rtk_eee_portEnable_get
                0x0000000000000000       0x48 board/Realtek/rtl838x/librtl838x.o
 .text.rtk_eee_portEnable_set
                0x0000000000000000       0x48 board/Realtek/rtl838x/librtl838x.o
 .text.rtk_diag_portRtctResult_get
                0x0000000000000000       0x48 board/Realtek/rtl838x/librtl838x.o
 .text.rtk_diag_rtctEnable_set
                0x0000000000000000       0x48 board/Realtek/rtl838x/librtl838x.o
 .text.rtk_phy_debug_get
                0x0000000000000000       0x48 board/Realtek/rtl838x/librtl838x.o
 .text.rtk_phy_debug_batch_port_set
                0x0000000000000000       0x48 board/Realtek/rtl838x/librtl838x.o
 .text.rtk_phy_debug_batch_op_set
                0x0000000000000000       0x48 board/Realtek/rtl838x/librtl838x.o
 .text.rtk_time_portPtpEnable_get
                0x0000000000000000       0x48 board/Realtek/rtl838x/librtl838x.o
 .text.rtk_time_portPtpEnable_set
                0x0000000000000000       0x48 board/Realtek/rtl838x/librtl838x.o
 .text.rtk_time_portPtpRxTimestamp_get
                0x0000000000000000       0x4c board/Realtek/rtl838x/librtl838x.o
 .text.rtk_time_portPtpTxTimestamp_get
                0x0000000000000000       0x4c board/Realtek/rtl838x/librtl838x.o
 .text.rtk_time_portRefTime_get
                0x0000000000000000       0x48 board/Realtek/rtl838x/librtl838x.o
 .text.rtk_time_portRefTime_set
                0x0000000000000000       0x4c board/Realtek/rtl838x/librtl838x.o
 .text.rtk_time_portRefTimeAdjust_set
                0x0000000000000000       0x4c board/Realtek/rtl838x/librtl838x.o
 .text.rtk_time_portRefTimeEnable_get
                0x0000000000000000       0x48 board/Realtek/rtl838x/librtl838x.o
 .text.rtk_time_portRefTimeEnable_set
                0x0000000000000000       0x4c board/Realtek/rtl838x/librtl838x.o
 .text.rtk_time_portRefTimeFreq_get
                0x0000000000000000       0x48 board/Realtek/rtl838x/librtl838x.o
 .text.rtk_time_portRefTimeFreq_set
                0x0000000000000000       0x4c board/Realtek/rtl838x/librtl838x.o
 .text.rtk_time_correctionFieldTransparentValue_get
                0x0000000000000000      0x1b4 board/Realtek/rtl838x/librtl838x.o
 .text.rtk_time_portPtpMacAddr_get
                0x0000000000000000       0x40 board/Realtek/rtl838x/librtl838x.o
 .text.rtk_time_portPtpMacAddr_set
                0x0000000000000000       0x40 board/Realtek/rtl838x/librtl838x.o
 .text.rtk_time_portPtpMacAddrRange_get
                0x0000000000000000       0x40 board/Realtek/rtl838x/librtl838x.o
 .text.rtk_time_portPtpMacAddrRange_set
                0x0000000000000000       0x40 board/Realtek/rtl838x/librtl838x.o
 .text.rtk_time_portPtpVlanTpid_get
                0x0000000000000000       0x40 board/Realtek/rtl838x/librtl838x.o
 .text.rtk_time_portPtpVlanTpid_set
                0x0000000000000000       0x40 board/Realtek/rtl838x/librtl838x.o
 .text.rtk_time_portPtpOper_get
                0x0000000000000000       0x40 board/Realtek/rtl838x/librtl838x.o
 .text.rtk_time_portPtpOper_set
                0x0000000000000000       0x40 board/Realtek/rtl838x/librtl838x.o
 .text.rtk_time_portPtpLatchTime_get
                0x0000000000000000       0x40 board/Realtek/rtl838x/librtl838x.o
 .text.rtk_time_portPtpRefTimeFreqCfg_get
                0x0000000000000000       0x48 board/Realtek/rtl838x/librtl838x.o
 .text.rtk_time_portPtpRefTimeFreqCfg_set
                0x0000000000000000       0x48 board/Realtek/rtl838x/librtl838x.o
 .text.rtk_time_portPtpTxInterruptStatus_get
                0x0000000000000000       0x48 board/Realtek/rtl838x/librtl838x.o
 .text.rtk_time_portPtpInterruptEnable_get
                0x0000000000000000       0x48 board/Realtek/rtl838x/librtl838x.o
 .text.rtk_time_portPtpInterruptEnable_set
                0x0000000000000000       0x48 board/Realtek/rtl838x/librtl838x.o
 .text.rtk_time_portPtpTxTimestampFifo_get
                0x0000000000000000       0x48 board/Realtek/rtl838x/librtl838x.o
 .text.rtk_time_portPtp1PPSOutput_get
                0x0000000000000000       0x48 board/Realtek/rtl838x/librtl838x.o
 .text.rtk_time_portPtp1PPSOutput_set
                0x0000000000000000       0x48 board/Realtek/rtl838x/librtl838x.o
 .text.rtk_time_portPtpClockOutput_get
                0x0000000000000000       0x48 board/Realtek/rtl838x/librtl838x.o
 .text.rtk_time_portPtpClockOutput_set
                0x0000000000000000       0x48 board/Realtek/rtl838x/librtl838x.o
 .text.rtk_time_portPtpOutputSigSel_get
                0x0000000000000000       0x48 board/Realtek/rtl838x/librtl838x.o
 .text.rtk_time_portPtpOutputSigSel_set
                0x0000000000000000       0x48 board/Realtek/rtl838x/librtl838x.o
 .text.rtk_time_portPtpTransEnable_get
                0x0000000000000000       0x48 board/Realtek/rtl838x/librtl838x.o
 .text.rtk_time_portPtpTransEnable_set
                0x0000000000000000       0x48 board/Realtek/rtl838x/librtl838x.o
 .text.rtk_time_portPtpLinkDelay_get
                0x0000000000000000       0x48 board/Realtek/rtl838x/librtl838x.o
 .text.rtk_time_portPtpLinkDelay_set
                0x0000000000000000       0x48 board/Realtek/rtl838x/librtl838x.o
 .text.rtk_port_macsecReg_get
                0x0000000000000000       0x48 board/Realtek/rtl838x/librtl838x.o
 .text.rtk_port_macsecReg_set
                0x0000000000000000       0x48 board/Realtek/rtl838x/librtl838x.o
 .text.rtk_macsec_port_cfg_set
                0x0000000000000000       0x40 board/Realtek/rtl838x/librtl838x.o
 .text.rtk_macsec_port_cfg_get
                0x0000000000000000       0x40 board/Realtek/rtl838x/librtl838x.o
 .text.rtk_macsec_sc_create
                0x0000000000000000       0x40 board/Realtek/rtl838x/librtl838x.o
 .text.rtk_macsec_sc_get
                0x0000000000000000       0x40 board/Realtek/rtl838x/librtl838x.o
 .text.rtk_macsec_sc_del
                0x0000000000000000       0x40 board/Realtek/rtl838x/librtl838x.o
 .text.rtk_macsec_sc_status_get
                0x0000000000000000       0x40 board/Realtek/rtl838x/librtl838x.o
 .text.rtk_macsec_sa_create
                0x0000000000000000       0x40 board/Realtek/rtl838x/librtl838x.o
 .text.rtk_macsec_sa_get
                0x0000000000000000       0x40 board/Realtek/rtl838x/librtl838x.o
 .text.rtk_macsec_sa_del
                0x0000000000000000       0x40 board/Realtek/rtl838x/librtl838x.o
 .text.rtk_macsec_sa_activate
                0x0000000000000000       0x40 board/Realtek/rtl838x/librtl838x.o
 .text.rtk_macsec_rxsa_disable
                0x0000000000000000       0x40 board/Realtek/rtl838x/librtl838x.o
 .text.rtk_macsec_txsa_disable
                0x0000000000000000       0x40 board/Realtek/rtl838x/librtl838x.o
 .text.rtk_macsec_stat_clear
                0x0000000000000000       0x40 board/Realtek/rtl838x/librtl838x.o
 .text.rtk_macsec_stat_port_get
                0x0000000000000000       0x40 board/Realtek/rtl838x/librtl838x.o
 .text.rtk_macsec_stat_txsa_get
                0x0000000000000000       0x40 board/Realtek/rtl838x/librtl838x.o
 .text.rtk_macsec_stat_rxsa_get
                0x0000000000000000       0x40 board/Realtek/rtl838x/librtl838x.o
 .text.rtk_macsec_intr_status_get
                0x0000000000000000       0x40 board/Realtek/rtl838x/librtl838x.o
 .text.rtk_port_phySdsReg_get
                0x0000000000000000       0x48 board/Realtek/rtl838x/librtl838x.o
 .text.rtk_port_phySdsReg_set
                0x0000000000000000       0x48 board/Realtek/rtl838x/librtl838x.o
 .text.rtk_time_portPtpFullSec_get
                0x0000000000000000       0x40 board/Realtek/rtl838x/librtl838x.o
 .text.rtk_l2_init
                0x0000000000000000       0x48 board/Realtek/rtl838x/librtl838x.o
 .text.rtk_l2_flushLinkDownPortAddrEnable_get
                0x0000000000000000       0x48 board/Realtek/rtl838x/librtl838x.o
 .text.rtk_l2_flushLinkDownPortAddrEnable_set
                0x0000000000000000       0x48 board/Realtek/rtl838x/librtl838x.o
 .text.rtk_l2_ucastAddr_flush
                0x0000000000000000       0x48 board/Realtek/rtl838x/librtl838x.o
 .text.rtk_l2_macLearningCnt_get
                0x0000000000000000       0x48 board/Realtek/rtl838x/librtl838x.o
 .text.rtk_l2_limitLearningNum_get
                0x0000000000000000       0x48 board/Realtek/rtl838x/librtl838x.o
 .text.rtk_l2_limitLearningNum_set
                0x0000000000000000       0x48 board/Realtek/rtl838x/librtl838x.o
 .text.rtk_l2_limitLearningAction_get
                0x0000000000000000       0x48 board/Realtek/rtl838x/librtl838x.o
 .text.rtk_l2_limitLearningAction_set
                0x0000000000000000       0x48 board/Realtek/rtl838x/librtl838x.o
 .text.rtk_l2_fidLimitLearningEntry_get
                0x0000000000000000       0x48 board/Realtek/rtl838x/librtl838x.o
 .text.rtk_l2_fidLimitLearningEntry_set
                0x0000000000000000       0x48 board/Realtek/rtl838x/librtl838x.o
 .text.rtk_l2_fidLearningCnt_reset
                0x0000000000000000       0x48 board/Realtek/rtl838x/librtl838x.o
 .text.rtk_l2_agingTime_get
                0x0000000000000000       0x48 board/Realtek/rtl838x/librtl838x.o
 .text.rtk_l2_agingTime_set
                0x0000000000000000       0x48 board/Realtek/rtl838x/librtl838x.o
 .text.rtk_l2_portAgingEnable_get
                0x0000000000000000       0x48 board/Realtek/rtl838x/librtl838x.o
 .text.rtk_l2_portAgingEnable_set
                0x0000000000000000       0x48 board/Realtek/rtl838x/librtl838x.o
 .text.rtk_l2_trkAgingEnable_get
                0x0000000000000000       0x48 board/Realtek/rtl838x/librtl838x.o
 .text.rtk_l2_trkAgingEnable_set
                0x0000000000000000       0x48 board/Realtek/rtl838x/librtl838x.o
 .text.rtk_l2_bucketHashAlgo_get
                0x0000000000000000       0x48 board/Realtek/rtl838x/librtl838x.o
 .text.rtk_l2_bucketHashAlgo_set
                0x0000000000000000       0x48 board/Realtek/rtl838x/librtl838x.o
 .text.rtk_l2_vlanMode_get
                0x0000000000000000       0x48 board/Realtek/rtl838x/librtl838x.o
 .text.rtk_l2_vlanMode_set
                0x0000000000000000       0x48 board/Realtek/rtl838x/librtl838x.o
 .text.rtk_l2_learningFullAction_get
                0x0000000000000000       0x48 board/Realtek/rtl838x/librtl838x.o
 .text.rtk_l2_learningFullAction_set
                0x0000000000000000       0x48 board/Realtek/rtl838x/librtl838x.o
 .text.rtk_l2_portNewMacOp_get
                0x0000000000000000       0x48 board/Realtek/rtl838x/librtl838x.o
 .text.rtk_l2_addr_init
                0x0000000000000000       0x48 board/Realtek/rtl838x/librtl838x.o
 .text.rtk_l2_addr_add
                0x0000000000000000       0x48 board/Realtek/rtl838x/librtl838x.o
 .text.rtk_l2_addr_del
                0x0000000000000000       0x48 board/Realtek/rtl838x/librtl838x.o
 .text.rtk_l2_addr_get
                0x0000000000000000       0x48 board/Realtek/rtl838x/librtl838x.o
 .text.rtk_l2_addr_set
                0x0000000000000000       0x48 board/Realtek/rtl838x/librtl838x.o
 .text.rtk_l2_addr_delAll
                0x0000000000000000       0x48 board/Realtek/rtl838x/librtl838x.o
 .text.rtk_l2_nextValidAddr_get
                0x0000000000000000       0x48 board/Realtek/rtl838x/librtl838x.o
 .text.rtk_l2_mcastAddr_init
                0x0000000000000000       0x48 board/Realtek/rtl838x/librtl838x.o
 .text.rtk_l2_mcastAddr_add
                0x0000000000000000       0x48 board/Realtek/rtl838x/librtl838x.o
 .text.rtk_l2_mcastAddr_del
                0x0000000000000000       0x48 board/Realtek/rtl838x/librtl838x.o
 .text.rtk_l2_mcastAddr_get
                0x0000000000000000       0x48 board/Realtek/rtl838x/librtl838x.o
 .text.rtk_l2_mcastAddr_set
                0x0000000000000000       0x48 board/Realtek/rtl838x/librtl838x.o
 .text.rtk_l2_mcastAddr_addByIndex
                0x0000000000000000       0x48 board/Realtek/rtl838x/librtl838x.o
 .text.rtk_l2_mcastAddr_setByIndex
                0x0000000000000000       0x48 board/Realtek/rtl838x/librtl838x.o
 .text.rtk_l2_mcastAddr_delIgnoreIndex
                0x0000000000000000       0x48 board/Realtek/rtl838x/librtl838x.o
 .text.rtk_l2_nextValidMcastAddr_get
                0x0000000000000000       0x48 board/Realtek/rtl838x/librtl838x.o
 .text.rtk_l2_ipmcMode_get
                0x0000000000000000       0x48 board/Realtek/rtl838x/librtl838x.o
 .text.rtk_l2_ipmcMode_set
                0x0000000000000000       0x48 board/Realtek/rtl838x/librtl838x.o
 .text.rtk_l2_ipMcastAddrExt_init
                0x0000000000000000       0x48 board/Realtek/rtl838x/librtl838x.o
 .text.rtk_l2_ipMcastAddr_add
                0x0000000000000000       0x48 board/Realtek/rtl838x/librtl838x.o
 .text.rtk_l2_ipMcastAddr_del
                0x0000000000000000       0x48 board/Realtek/rtl838x/librtl838x.o
 .text.rtk_l2_ipMcastAddr_get
                0x0000000000000000       0x48 board/Realtek/rtl838x/librtl838x.o
 .text.rtk_l2_ipMcastAddr_set
                0x0000000000000000       0x48 board/Realtek/rtl838x/librtl838x.o
 .text.rtk_l2_ipMcastAddr_addByIndex
                0x0000000000000000       0x48 board/Realtek/rtl838x/librtl838x.o
 .text.rtk_l2_ipMcastAddr_setByIndex
                0x0000000000000000       0x48 board/Realtek/rtl838x/librtl838x.o
 .text.rtk_l2_ipMcastAddr_delIgnoreIndex
                0x0000000000000000       0x48 board/Realtek/rtl838x/librtl838x.o
 .text.rtk_l2_nextValidIpMcastAddr_get
                0x0000000000000000       0x48 board/Realtek/rtl838x/librtl838x.o
 .text.rtk_l2_ipMcastAddrChkEnable_get
                0x0000000000000000       0x48 board/Realtek/rtl838x/librtl838x.o
 .text.rtk_l2_ipMcastAddrChkEnable_set
                0x0000000000000000       0x48 board/Realtek/rtl838x/librtl838x.o
 .text.rtk_l2_ipMcstFidVidCompareEnable_get
                0x0000000000000000       0x48 board/Realtek/rtl838x/librtl838x.o
 .text.rtk_l2_ipMcstFidVidCompareEnable_set
                0x0000000000000000       0x48 board/Realtek/rtl838x/librtl838x.o
 .text.rtk_l2_ip6mcMode_get
                0x0000000000000000       0x48 board/Realtek/rtl838x/librtl838x.o
 .text.rtk_l2_ip6mcMode_set
                0x0000000000000000       0x48 board/Realtek/rtl838x/librtl838x.o
 .text.rtk_l2_ip6CareByte_get
                0x0000000000000000       0x48 board/Realtek/rtl838x/librtl838x.o
 .text.rtk_l2_ip6CareByte_set
                0x0000000000000000       0x48 board/Realtek/rtl838x/librtl838x.o
 .text.rtk_l2_ip6McastAddrExt_init
                0x0000000000000000       0x48 board/Realtek/rtl838x/librtl838x.o
 .text.rtk_l2_ip6McastAddr_add
                0x0000000000000000       0x48 board/Realtek/rtl838x/librtl838x.o
 .text.rtk_l2_ip6McastAddr_del
                0x0000000000000000       0x50 board/Realtek/rtl838x/librtl838x.o
 .text.rtk_l2_ip6McastAddr_get
                0x0000000000000000       0x48 board/Realtek/rtl838x/librtl838x.o
 .text.rtk_l2_ip6McastAddr_set
                0x0000000000000000       0x48 board/Realtek/rtl838x/librtl838x.o
 .text.rtk_l2_ip6McastAddr_addByIndex
                0x0000000000000000       0x48 board/Realtek/rtl838x/librtl838x.o
 .text.rtk_l2_ip6McastAddr_setByIndex
                0x0000000000000000       0x48 board/Realtek/rtl838x/librtl838x.o
 .text.rtk_l2_ip6McastAddr_delIgnoreIndex
                0x0000000000000000       0x50 board/Realtek/rtl838x/librtl838x.o
 .text.rtk_l2_nextValidIp6McastAddr_get
                0x0000000000000000       0x48 board/Realtek/rtl838x/librtl838x.o
 .text.rtk_l2_mcastFwdIndex_alloc
                0x0000000000000000       0x48 board/Realtek/rtl838x/librtl838x.o
 .text.rtk_l2_mcastFwdIndex_free
                0x0000000000000000       0x48 board/Realtek/rtl838x/librtl838x.o
 .text.rtk_l2_mcastFwdIndexFreeCount_get
                0x0000000000000000       0x48 board/Realtek/rtl838x/librtl838x.o
 .text.rtk_l2_mcastFwdPortmaskEntry_get
                0x0000000000000000       0x48 board/Realtek/rtl838x/librtl838x.o
 .text.rtk_l2_mcastFwdPortmaskEntry_set
                0x0000000000000000       0x48 board/Realtek/rtl838x/librtl838x.o
 .text.rtk_l2_cpuMacAddr_add
                0x0000000000000000       0x48 board/Realtek/rtl838x/librtl838x.o
 .text.rtk_l2_cpuMacAddr_del
                0x0000000000000000       0x48 board/Realtek/rtl838x/librtl838x.o
 .text.rtk_l2_portMoveAction_get
                0x0000000000000000       0x48 board/Realtek/rtl838x/librtl838x.o
 .text.rtk_l2_portMoveAction_set
                0x0000000000000000       0x48 board/Realtek/rtl838x/librtl838x.o
 .text.rtk_l2_portMoveLearn_get
                0x0000000000000000       0x48 board/Realtek/rtl838x/librtl838x.o
 .text.rtk_l2_portMoveLearn_set
                0x0000000000000000       0x48 board/Realtek/rtl838x/librtl838x.o
 .text.rtk_l2_legalPortMoveFlushAddrEnable_get
                0x0000000000000000       0x48 board/Realtek/rtl838x/librtl838x.o
 .text.rtk_l2_legalPortMoveFlushAddrEnable_set
                0x0000000000000000       0x48 board/Realtek/rtl838x/librtl838x.o
 .text.rtk_l2_staticPortMoveAction_get
                0x0000000000000000       0x48 board/Realtek/rtl838x/librtl838x.o
 .text.rtk_l2_staticPortMoveAction_set
                0x0000000000000000       0x48 board/Realtek/rtl838x/librtl838x.o
 .text.rtk_l2_lookupMissFloodPortMask_get
                0x0000000000000000       0x48 board/Realtek/rtl838x/librtl838x.o
 .text.rtk_l2_lookupMissFloodPortMask_set
                0x0000000000000000       0x48 board/Realtek/rtl838x/librtl838x.o
 .text.rtk_l2_lookupMissFloodPortMask_add
                0x0000000000000000       0x48 board/Realtek/rtl838x/librtl838x.o
 .text.rtk_l2_lookupMissFloodPortMask_del
                0x0000000000000000       0x48 board/Realtek/rtl838x/librtl838x.o
 .text.rtk_l2_lookupMissFloodPortMask_setByIndex
                0x0000000000000000       0x48 board/Realtek/rtl838x/librtl838x.o
 .text.rtk_l2_lookupMissFloodPortMaskIdx_get
                0x0000000000000000       0x48 board/Realtek/rtl838x/librtl838x.o
 .text.rtk_l2_lookupMissFloodPortMaskIdx_set
                0x0000000000000000       0x48 board/Realtek/rtl838x/librtl838x.o
 .text.rtk_l2_portLookupMissAction_get
                0x0000000000000000       0x48 board/Realtek/rtl838x/librtl838x.o
 .text.rtk_l2_portLookupMissAction_set
                0x0000000000000000       0x48 board/Realtek/rtl838x/librtl838x.o
 .text.rtk_l2_portUcastLookupMissAction_get
                0x0000000000000000       0x48 board/Realtek/rtl838x/librtl838x.o
 .text.rtk_l2_portUcastLookupMissAction_set
                0x0000000000000000       0x48 board/Realtek/rtl838x/librtl838x.o
 .text.rtk_l2_srcPortEgrFilterMask_get
                0x0000000000000000       0x48 board/Realtek/rtl838x/librtl838x.o
 .text.rtk_l2_srcPortEgrFilterMask_set
                0x0000000000000000       0x48 board/Realtek/rtl838x/librtl838x.o
 .text.rtk_l2_srcPortEgrFilterMask_add
                0x0000000000000000       0x48 board/Realtek/rtl838x/librtl838x.o
 .text.rtk_l2_srcPortEgrFilterMask_del
                0x0000000000000000       0x48 board/Realtek/rtl838x/librtl838x.o
 .text.rtk_l2_exceptionAddrAction_get
                0x0000000000000000       0x48 board/Realtek/rtl838x/librtl838x.o
 .text.rtk_l2_exceptionAddrAction_set
                0x0000000000000000       0x48 board/Realtek/rtl838x/librtl838x.o
 .text.rtk_l2_addrEntry_get
                0x0000000000000000       0x48 board/Realtek/rtl838x/librtl838x.o
 .text.rtk_l2_conflictAddr_get
                0x0000000000000000       0x48 board/Realtek/rtl838x/librtl838x.o
 .text.rtk_l2_zeroSALearningEnable_get
                0x0000000000000000       0x48 board/Realtek/rtl838x/librtl838x.o
 .text.rtk_l2_zeroSALearningEnable_set
                0x0000000000000000       0x48 board/Realtek/rtl838x/librtl838x.o
 .text.rtk_l2_secureMacMode_get
                0x0000000000000000       0x48 board/Realtek/rtl838x/librtl838x.o
 .text.rtk_l2_secureMacMode_set
                0x0000000000000000       0x48 board/Realtek/rtl838x/librtl838x.o
 .text.rtk_l2_portDynamicPortMoveForbidEnable_get
                0x0000000000000000       0x48 board/Realtek/rtl838x/librtl838x.o
 .text.rtk_l2_portDynamicPortMoveForbidEnable_set
                0x0000000000000000       0x48 board/Realtek/rtl838x/librtl838x.o
 .text.rtk_l2_trkDynamicPortMoveForbidEnable_get
                0x0000000000000000       0x48 board/Realtek/rtl838x/librtl838x.o
 .text.rtk_l2_trkDynamicPortMoveForbidEnable_set
                0x0000000000000000       0x48 board/Realtek/rtl838x/librtl838x.o
 .text.rtk_l2_portMacFilterEnable_get
                0x0000000000000000       0x48 board/Realtek/rtl838x/librtl838x.o
 .text.rtk_l2_portMacFilterEnable_set
                0x0000000000000000       0x48 board/Realtek/rtl838x/librtl838x.o
 .text.rtk_l2_hwNextValidAddr_get
                0x0000000000000000       0x48 board/Realtek/rtl838x/librtl838x.o
 .text.rtk_l2_portCtrl_get
                0x0000000000000000       0x48 board/Realtek/rtl838x/librtl838x.o
 .text.rtk_l2_portCtrl_set
                0x0000000000000000       0x48 board/Realtek/rtl838x/librtl838x.o
 .text.rtk_l2_status_get
                0x0000000000000000       0x48 board/Realtek/rtl838x/librtl838x.o
 .text.rtk_l2_stkLearningEnable_get
                0x0000000000000000       0x48 board/Realtek/rtl838x/librtl838x.o
 .text.rtk_l2_stkLearningEnable_set
                0x0000000000000000       0x48 board/Realtek/rtl838x/librtl838x.o
 .text.rtk_l2_stkKeepUcastEntryValid_get
                0x0000000000000000       0x48 board/Realtek/rtl838x/librtl838x.o
 .text.rtk_l2_stkKeepUcastEntryValid_set
                0x0000000000000000       0x48 board/Realtek/rtl838x/librtl838x.o
 .text.rtk_l2_entryCnt_get
                0x0000000000000000       0x48 board/Realtek/rtl838x/librtl838x.o
 .text.rtk_l2_hashIdx_get
                0x0000000000000000       0x48 board/Realtek/rtl838x/librtl838x.o
 .text.rtk_l2_addr_delByMac
                0x0000000000000000       0x48 board/Realtek/rtl838x/librtl838x.o
 .text.rtk_trunk_init
                0x0000000000000000       0x48 board/Realtek/rtl838x/librtl838x.o
 .text.rtk_trunk_mode_get
                0x0000000000000000       0x48 board/Realtek/rtl838x/librtl838x.o
 .text.rtk_trunk_mode_set
                0x0000000000000000       0x48 board/Realtek/rtl838x/librtl838x.o
 .text.rtk_trunk_port_get
                0x0000000000000000       0x48 board/Realtek/rtl838x/librtl838x.o
 .text.rtk_trunk_port_set
                0x0000000000000000       0x48 board/Realtek/rtl838x/librtl838x.o
 .text.rtk_trunk_localPort_get
                0x0000000000000000       0x48 board/Realtek/rtl838x/librtl838x.o
 .text.rtk_trunk_localPort_set
                0x0000000000000000       0x48 board/Realtek/rtl838x/librtl838x.o
 .text.rtk_trunk_egrPort_get
                0x0000000000000000       0x48 board/Realtek/rtl838x/librtl838x.o
 .text.rtk_trunk_egrPort_set
                0x0000000000000000       0x48 board/Realtek/rtl838x/librtl838x.o
 .text.rtk_trunk_tunnelHashSrc_get
                0x0000000000000000       0x48 board/Realtek/rtl838x/librtl838x.o
 .text.rtk_trunk_tunnelHashSrc_set
                0x0000000000000000       0x48 board/Realtek/rtl838x/librtl838x.o
 .text.rtk_trunk_distributionAlgorithmBind_get
                0x0000000000000000       0x48 board/Realtek/rtl838x/librtl838x.o
 .text.rtk_trunk_distributionAlgorithmBind_set
                0x0000000000000000       0x48 board/Realtek/rtl838x/librtl838x.o
 .text.rtk_trunk_distributionAlgorithmTypeBind_get
                0x0000000000000000       0x48 board/Realtek/rtl838x/librtl838x.o
 .text.rtk_trunk_distributionAlgorithmTypeBind_set
                0x0000000000000000       0x48 board/Realtek/rtl838x/librtl838x.o
 .text.rtk_trunk_distributionAlgorithmParam_get
                0x0000000000000000       0x48 board/Realtek/rtl838x/librtl838x.o
 .text.rtk_trunk_distributionAlgorithmParam_set
                0x0000000000000000       0x48 board/Realtek/rtl838x/librtl838x.o
 .text.rtk_trunk_distributionAlgorithmTypeParam_get
                0x0000000000000000       0x48 board/Realtek/rtl838x/librtl838x.o
 .text.rtk_trunk_distributionAlgorithmTypeParam_set
                0x0000000000000000       0x48 board/Realtek/rtl838x/librtl838x.o
 .text.rtk_trunk_distributionAlgorithmShift_get
                0x0000000000000000       0x48 board/Realtek/rtl838x/librtl838x.o
 .text.rtk_trunk_distributionAlgorithmShift_set
                0x0000000000000000       0x48 board/Realtek/rtl838x/librtl838x.o
 .text.rtk_trunk_distributionAlgorithmShiftGbl_get
                0x0000000000000000       0x48 board/Realtek/rtl838x/librtl838x.o
 .text.rtk_trunk_distributionAlgorithmShiftGbl_set
                0x0000000000000000       0x48 board/Realtek/rtl838x/librtl838x.o
 .text.rtk_trunk_trafficSeparate_get
                0x0000000000000000       0x48 board/Realtek/rtl838x/librtl838x.o
 .text.rtk_trunk_trafficSeparate_set
                0x0000000000000000       0x48 board/Realtek/rtl838x/librtl838x.o
 .text.rtk_trunk_trafficSeparateEnable_get
                0x0000000000000000       0x48 board/Realtek/rtl838x/librtl838x.o
 .text.rtk_trunk_trafficSeparateEnable_set
                0x0000000000000000       0x48 board/Realtek/rtl838x/librtl838x.o
 .text.rtk_trunk_trafficSeparateDivision_get
                0x0000000000000000       0x48 board/Realtek/rtl838x/librtl838x.o
 .text.rtk_trunk_trafficSeparateDivision_set
                0x0000000000000000       0x48 board/Realtek/rtl838x/librtl838x.o
 .text.rtk_trunk_stkTrkPort_get
                0x0000000000000000       0x48 board/Realtek/rtl838x/librtl838x.o
 .text.rtk_trunk_stkTrkPort_set
                0x0000000000000000       0x48 board/Realtek/rtl838x/librtl838x.o
 .text.rtk_trunk_stkTrkHash_get
                0x0000000000000000       0x48 board/Realtek/rtl838x/librtl838x.o
 .text.rtk_trunk_stkTrkHash_set
                0x0000000000000000       0x48 board/Realtek/rtl838x/librtl838x.o
 .text.rtk_trunk_stkDistributionAlgorithmTypeBind_get
                0x0000000000000000       0x48 board/Realtek/rtl838x/librtl838x.o
 .text.rtk_trunk_stkDistributionAlgorithmTypeBind_set
                0x0000000000000000       0x48 board/Realtek/rtl838x/librtl838x.o
 .text.rtk_trunk_localFirst_get
                0x0000000000000000       0x48 board/Realtek/rtl838x/librtl838x.o
 .text.rtk_trunk_localFirst_set
                0x0000000000000000       0x48 board/Realtek/rtl838x/librtl838x.o
 .text.rtk_trunk_localFirstFailOver_get
                0x0000000000000000       0x48 board/Realtek/rtl838x/librtl838x.o
 .text.rtk_trunk_localFirstFailOver_set
                0x0000000000000000       0x48 board/Realtek/rtl838x/librtl838x.o
 .text.rtk_trunk_srcPortMap_get
                0x0000000000000000       0x4c board/Realtek/rtl838x/librtl838x.o
 .text.rtk_trunk_srcPortMap_set
                0x0000000000000000       0x4c board/Realtek/rtl838x/librtl838x.o
 .text.phy_common_autoNegoEnable_get
                0x0000000000000000       0x50 board/Realtek/rtl838x/librtl838x.o
 .text.phy_common_autoNegoEnable_set
                0x0000000000000000       0x88 board/Realtek/rtl838x/librtl838x.o
 .text.phy_common_duplex_get
                0x0000000000000000       0x44 board/Realtek/rtl838x/librtl838x.o
 .text.phy_common_duplex_set
                0x0000000000000000       0x84 board/Realtek/rtl838x/librtl838x.o
 .text.phy_common_speed_get
                0x0000000000000000      0x378 board/Realtek/rtl838x/librtl838x.o
 .text.phy_common_speedDuplexStatusResReg_get
                0x0000000000000000       0xc4 board/Realtek/rtl838x/librtl838x.o
 .text.phy_common_speedStatusResReg_get
                0x0000000000000000       0x1c board/Realtek/rtl838x/librtl838x.o
 .text.phy_common_reg_get
                0x0000000000000000        0x8 board/Realtek/rtl838x/librtl838x.o
 .text.phy_common_reg_set
                0x0000000000000000        0x8 board/Realtek/rtl838x/librtl838x.o
 .text.phy_common_reg_park_get
                0x0000000000000000        0x8 board/Realtek/rtl838x/librtl838x.o
 .text.phy_common_reg_park_set
                0x0000000000000000        0x8 board/Realtek/rtl838x/librtl838x.o
 .text.phy_common_reg_mmd_get
                0x0000000000000000        0x8 board/Realtek/rtl838x/librtl838x.o
 .text.phy_common_reg_mmd_set
                0x0000000000000000        0x8 board/Realtek/rtl838x/librtl838x.o
 .text.phy_common_reg_mmd_portmask_set
                0x0000000000000000       0x10 board/Realtek/rtl838x/librtl838x.o
 .text.phy_common_reg_extParkPage_get
                0x0000000000000000        0x8 board/Realtek/rtl838x/librtl838x.o
 .text.phy_common_reg_extParkPage_set
                0x0000000000000000        0x8 board/Realtek/rtl838x/librtl838x.o
 .text.phy_common_reg_extParkPage_portmask_set
                0x0000000000000000       0x10 board/Realtek/rtl838x/librtl838x.o
 .text.phy_common_masterSlave_get
                0x0000000000000000       0xc0 board/Realtek/rtl838x/librtl838x.o
 .text.phy_common_masterSlave_set
                0x0000000000000000       0xb0 board/Realtek/rtl838x/librtl838x.o
 .text.phy_common_masterSlaveMmd_get
                0x0000000000000000       0xc0 board/Realtek/rtl838x/librtl838x.o
 .text.phy_common_masterSlaveMmd_set
                0x0000000000000000       0xb4 board/Realtek/rtl838x/librtl838x.o
 .text.phy_common_loopback_get
                0x0000000000000000       0x50 board/Realtek/rtl838x/librtl838x.o
 .text.phy_common_loopback_set
                0x0000000000000000       0x90 board/Realtek/rtl838x/librtl838x.o
 .text.phy_common_reset_set
                0x0000000000000000       0x6c board/Realtek/rtl838x/librtl838x.o
 .text.phy_common_linkStatus_get
                0x0000000000000000       0x44 board/Realtek/rtl838x/librtl838x.o
 .text.phy_common_copperPeerAutoNegoAbility_get
                0x0000000000000000      0x184 board/Realtek/rtl838x/librtl838x.o
 .text.phy_common_fiberPeerAutoNegoAbility_get
                0x0000000000000000       0xd8 board/Realtek/rtl838x/librtl838x.o
 .text.phy_field_read
                0x0000000000000000       0x8c board/Realtek/rtl838x/librtl838x.o
 .text.phy_field_write
                0x0000000000000000       0xe0 board/Realtek/rtl838x/librtl838x.o
 .text.phy_common_eyeMonPixel_get
                0x0000000000000000       0x28 board/Realtek/rtl838x/librtl838x.o
 .text.phy_common_eyeMonInfo_update
                0x0000000000000000       0x90 board/Realtek/rtl838x/librtl838x.o
 .text.phy_common_general_reg_mmd_get
                0x0000000000000000        0x8 board/Realtek/rtl838x/librtl838x.o
 .text.phy_common_general_reg_mmd_set
                0x0000000000000000        0x8 board/Realtek/rtl838x/librtl838x.o
 .text.phy_common_c45_autoNegoEnable_get
                0x0000000000000000       0x48 board/Realtek/rtl838x/librtl838x.o
 .text.phy_common_c45_autoNegoEnable_set
                0x0000000000000000       0x8c board/Realtek/rtl838x/librtl838x.o
 .text.phy_common_c45_autoNegoAbility_get
                0x0000000000000000       0xd8 board/Realtek/rtl838x/librtl838x.o
 .text.phy_common_c45_autoNegoAbility_set
                0x0000000000000000      0x208 board/Realtek/rtl838x/librtl838x.o
 .text.phy_common_c45_copperPeerAutoNegoAbility_get
                0x0000000000000000       0xd8 board/Realtek/rtl838x/librtl838x.o
 .text.phy_common_c45_masterSlave_get
                0x0000000000000000       0xbc board/Realtek/rtl838x/librtl838x.o
 .text.phy_common_c45_masterSlave_set
                0x0000000000000000      0x120 board/Realtek/rtl838x/librtl838x.o
 .text.phy_common_c45_speed_get
                0x0000000000000000       0xa4 board/Realtek/rtl838x/librtl838x.o
 .text.phy_common_c45_speed_set
                0x0000000000000000       0xd8 board/Realtek/rtl838x/librtl838x.o
 .text.phy_common_c45_enable_set
                0x0000000000000000       0x8c board/Realtek/rtl838x/librtl838x.o
 .text.phy_common_c45_enable_get
                0x0000000000000000       0x4c board/Realtek/rtl838x/librtl838x.o
 .text.phy_common_c45_linkStatus_get
                0x0000000000000000       0x48 board/Realtek/rtl838x/librtl838x.o
 .text.phy_common_c45_loopback_get
                0x0000000000000000       0x48 board/Realtek/rtl838x/librtl838x.o
 .text.phy_common_c45_loopback_set
                0x0000000000000000       0x90 board/Realtek/rtl838x/librtl838x.o
 .text.phy_common_c45_reset_set
                0x0000000000000000       0x70 board/Realtek/rtl838x/librtl838x.o
 .text.phy_common_c45_eeeEnable_get
                0x0000000000000000       0xac board/Realtek/rtl838x/librtl838x.o
 .text.phy_common_c45_eeeEnable_set
                0x0000000000000000      0x174 board/Realtek/rtl838x/librtl838x.o
 .text.phy_common_c45_crossOverStatus_get
                0x0000000000000000       0x5c board/Realtek/rtl838x/librtl838x.o
 .text.phy_common_c45_speedDuplexStatus_get
                0x0000000000000000      0x42c board/Realtek/rtl838x/librtl838x.o
 .text.phy_common_c45_speedDuplexStatusResReg_get
                0x0000000000000000       0xdc board/Realtek/rtl838x/librtl838x.o
 .text.phy_common_c45_speedStatusResReg_get
                0x0000000000000000       0x20 board/Realtek/rtl838x/librtl838x.o
 .text.phy_common_c45_ieeeTestMode_set
                0x0000000000000000      0x200 board/Realtek/rtl838x/librtl838x.o
 .text.phy_common_autoNegoAbility_get
                0x0000000000000000       0xd4 board/Realtek/rtl838x/librtl838x.o
 .text.phy_common_autoNegoAbility_set
                0x0000000000000000      0x1d4 board/Realtek/rtl838x/librtl838x.o
 .text.phy_common_speed_set
                0x0000000000000000       0x98 board/Realtek/rtl838x/librtl838x.o
 .text.phy_common_c45_an_restart
                0x0000000000000000       0x78 board/Realtek/rtl838x/librtl838x.o
 .text.phy_8214fc_macIntfSerdesLinkStatus_get
                0x0000000000000000      0x128 board/Realtek/rtl838x/librtl838x.o
 .text.phy_8218b_media_get
                0x0000000000000000        0xc board/Realtek/rtl838x/librtl838x.o
 .text.phy_8218b_media_set
                0x0000000000000000        0x8 board/Realtek/rtl838x/librtl838x.o
 .text.phy_8214fc_fiberDownSpeedEnable_get
                0x0000000000000000       0xd4 board/Realtek/rtl838x/librtl838x.o
 .text.phy_8214fc_fiber_media_get
                0x0000000000000000       0x5c board/Realtek/rtl838x/librtl838x.o
 .text.phy_8218b_greenEnable_get
                0x0000000000000000       0xfc board/Realtek/rtl838x/librtl838x.o
 .text.phy_8218b_eeeEnable_get
                0x0000000000000000       0xf4 board/Realtek/rtl838x/librtl838x.o
 .text.phy_8218b_eeeEnable_set
                0x0000000000000000      0x228 board/Realtek/rtl838x/librtl838x.o
 .text.phy_8214fc_serdes_linkdown_chk
                0x0000000000000000      0x1a0 board/Realtek/rtl838x/librtl838x.o
 .text.phy_8214fc_serdes_reset
                0x0000000000000000       0x94 board/Realtek/rtl838x/librtl838x.o
 .text.phy_8214fc_sdsEyeParam_get
                0x0000000000000000      0x114 board/Realtek/rtl838x/librtl838x.o
 .text.phy_8214fc_sdsEyeParam_set
                0x0000000000000000      0x110 board/Realtek/rtl838x/librtl838x.o
 .text._phy_8214fc_intrANCompleteEnable_get
                0x0000000000000000       0x54 board/Realtek/rtl838x/librtl838x.o
 .text._phy_8214fc_intrANCompleteEnable_set
                0x0000000000000000       0x8c board/Realtek/rtl838x/librtl838x.o
 .text._phy_8214fc_intrLinkChangeEnable_get
                0x0000000000000000       0x54 board/Realtek/rtl838x/librtl838x.o
 .text._phy_8214fc_intrLinkChangeEnable_set
                0x0000000000000000       0x8c board/Realtek/rtl838x/librtl838x.o
 .text._phy_8214fc_intrAldpsStateChangeEnable_get
                0x0000000000000000       0x54 board/Realtek/rtl838x/librtl838x.o
 .text._phy_8214fc_intrAldpsStateChangeEnable_set
                0x0000000000000000       0x8c board/Realtek/rtl838x/librtl838x.o
 .text._phy_8214fc_intrCommonStatus_get
                0x0000000000000000       0xf0 board/Realtek/rtl838x/librtl838x.o
 .text._phy_8214fc_intrIntpinCommonMask_get
                0x0000000000000000       0x64 board/Realtek/rtl838x/librtl838x.o
 .text._phy_8214fc_intrIntpinCommonMask_set
                0x0000000000000000       0xac board/Realtek/rtl838x/librtl838x.o
 .text.phy_8214fc_intr_init
                0x0000000000000000      0x1dc board/Realtek/rtl838x/librtl838x.o
 .text.phy_8214fc_intrEnable_get
                0x0000000000000000      0x110 board/Realtek/rtl838x/librtl838x.o
 .text.phy_8214fc_intrEnable_set
                0x0000000000000000      0x110 board/Realtek/rtl838x/librtl838x.o
 .text.phy_8214fc_intrStatus_get
                0x0000000000000000       0x24 board/Realtek/rtl838x/librtl838x.o
 .text.phy_8214fc_intrMask_get
                0x0000000000000000      0x108 board/Realtek/rtl838x/librtl838x.o
 .text.phy_8214fc_intrMask_set
                0x0000000000000000      0x108 board/Realtek/rtl838x/librtl838x.o
 .text.sub_phy_8218b_patch_set
                0x0000000000000000       0xd0 board/Realtek/rtl838x/librtl838x.o
 .text.sub_phy_8214fc_mp_patch_set
                0x0000000000000000       0xec board/Realtek/rtl838x/librtl838x.o
 .text._phy_8218d_eye_mdioClk
                0x0000000000000000       0x7c board/Realtek/rtl838x/librtl838x.o
 .text._phy_8218d_indr_read
                0x0000000000000000       0x68 board/Realtek/rtl838x/librtl838x.o
 .text._phy_8218d_rtctGeStatus_convert
                0x0000000000000000       0xe8 board/Realtek/rtl838x/librtl838x.o
 .text._phy_8218d_serialLedModePageReg_get
                0x0000000000000000       0xfc board/Realtek/rtl838x/librtl838x.o
 .text._phy_8218d_ledMode_dump
                0x0000000000000000      0x150 board/Realtek/rtl838x/librtl838x.o
 .text._phy_8218d_loopback_remote_get
                0x0000000000000000      0x164 board/Realtek/rtl838x/librtl838x.o
 .text._phy_8218d_loopback_remote_set
                0x0000000000000000      0x1a0 board/Realtek/rtl838x/librtl838x.o
 .text.phy_8218d_greenEnable_get
                0x0000000000000000      0x18c board/Realtek/rtl838x/librtl838x.o
 .text._phy_rtl8218d_sdsRx_rst
                0x0000000000000000      0x178 board/Realtek/rtl838x/librtl838x.o
 .text.phy_8218d_macIntfSerdesLinkStatus_get
                0x0000000000000000      0x1bc board/Realtek/rtl838x/librtl838x.o
 .text._phy_8218d_ledModeData_set
                0x0000000000000000      0x15c board/Realtek/rtl838x/librtl838x.o
 .text.phy_8218d_ledMode_set
                0x0000000000000000      0x13c board/Realtek/rtl838x/librtl838x.o
 .text.phy_8218d_ledCtrl_get
                0x0000000000000000      0x190 board/Realtek/rtl838x/librtl838x.o
 .text.phy_8218d_ledCtrl_set
                0x0000000000000000      0x25c board/Realtek/rtl838x/librtl838x.o
 .text.phy_8218d_macIntfSerdes_reset
                0x0000000000000000      0x194 board/Realtek/rtl838x/librtl838x.o
 .text.phy_8218d_serdes_linkdown_chk
                0x0000000000000000      0x2f4 board/Realtek/rtl838x/librtl838x.o
 .text._phy_8218d_eyeMon_proc
                0x0000000000000000      0x378 board/Realtek/rtl838x/librtl838x.o
 .text.phy_8218d_eyeMonitor_start
                0x0000000000000000      0x148 board/Realtek/rtl838x/librtl838x.o
 .text.phy_8218d_eyeMonitorInfo_get
                0x0000000000000000      0x1e0 board/Realtek/rtl838x/librtl838x.o
 .text.phy_8218d_mdiLoopbackEnable_get
                0x0000000000000000       0x58 board/Realtek/rtl838x/librtl838x.o
 .text.phy_8218d_mdiLoopbackEnable_set
                0x0000000000000000       0xb0 board/Realtek/rtl838x/librtl838x.o
 .text.phy_8218d_sdsEyeParam_get
                0x0000000000000000      0x28c board/Realtek/rtl838x/librtl838x.o
 .text._phy_8218d_intrNwayNextPageRecvEnable_get
                0x0000000000000000       0x54 board/Realtek/rtl838x/librtl838x.o
 .text._phy_8218d_intrNwayNextPageRecvEnable_set
                0x0000000000000000       0x8c board/Realtek/rtl838x/librtl838x.o
 .text._phy_8218d_intrANCompleteEnable_get
                0x0000000000000000       0x54 board/Realtek/rtl838x/librtl838x.o
 .text._phy_8218d_intrANCompleteEnable_set
                0x0000000000000000       0x8c board/Realtek/rtl838x/librtl838x.o
 .text._phy_8218d_intrLinkChangeEnable_get
                0x0000000000000000       0x54 board/Realtek/rtl838x/librtl838x.o
 .text._phy_8218d_intrLinkChangeEnable_set
                0x0000000000000000       0x8c board/Realtek/rtl838x/librtl838x.o
 .text._phy_8218d_intrAldpsStateChangeEnable_get
                0x0000000000000000       0x54 board/Realtek/rtl838x/librtl838x.o
 .text._phy_8218d_intrAldpsStateChangeEnable_set
                0x0000000000000000       0x8c board/Realtek/rtl838x/librtl838x.o
 .text._phy_8218d_intrCommonStatus_get
                0x0000000000000000      0x2c0 board/Realtek/rtl838x/librtl838x.o
 .text._phy_8218d_intrIntpinCommonMask_get
                0x0000000000000000       0x60 board/Realtek/rtl838x/librtl838x.o
 .text._phy_8218d_intrIntpinCommonMask_set
                0x0000000000000000       0xa8 board/Realtek/rtl838x/librtl838x.o
 .text._phy_8218d_intrRlfd_init
                0x0000000000000000       0xcc board/Realtek/rtl838x/librtl838x.o
 .text._phy_8218d_intrRlfdEnable_get
                0x0000000000000000       0x54 board/Realtek/rtl838x/librtl838x.o
 .text._phy_8218d_intrRlfdEnable_set
                0x0000000000000000       0x90 board/Realtek/rtl838x/librtl838x.o
 .text._phy_8218d_intrRlfdStatus_get
                0x0000000000000000       0xe8 board/Realtek/rtl838x/librtl838x.o
 .text._phy_8218d_intrIntpinRlfdMask_get
                0x0000000000000000       0x60 board/Realtek/rtl838x/librtl838x.o
 .text._phy_8218d_intrIntpinRlfdMask_set
                0x0000000000000000       0xc0 board/Realtek/rtl838x/librtl838x.o
 .text.phy_8218d_intr_init
                0x0000000000000000      0x12c board/Realtek/rtl838x/librtl838x.o
 .text.phy_8218d_intrEnable_get
                0x0000000000000000      0x114 board/Realtek/rtl838x/librtl838x.o
 .text.phy_8218d_intrEnable_set
                0x0000000000000000      0x114 board/Realtek/rtl838x/librtl838x.o
 .text.phy_8218d_sdsLeq_get
                0x0000000000000000      0x11c board/Realtek/rtl838x/librtl838x.o
 .text.phy_8218d_sdsLeq_set
                0x0000000000000000      0x1a8 board/Realtek/rtl838x/librtl838x.o
 .text.phy_8218d_intrStatus_get
                0x0000000000000000       0x30 board/Realtek/rtl838x/librtl838x.o
 .text.phy_8218d_intrMask_get
                0x0000000000000000      0x124 board/Realtek/rtl838x/librtl838x.o
 .text.phy_8218d_intrMask_set
                0x0000000000000000      0x124 board/Realtek/rtl838x/librtl838x.o
 .text.phy_8218d_ctrl_get
                0x0000000000000000       0x20 board/Realtek/rtl838x/librtl838x.o
 .text.phy_8218d_ctrl_set
                0x0000000000000000       0x20 board/Realtek/rtl838x/librtl838x.o
 .text._phy_8218d_sdsSts_dump
                0x0000000000000000      0x174 board/Realtek/rtl838x/librtl838x.o
 .text._phy_8218d_tap0_dump
                0x0000000000000000      0x110 board/Realtek/rtl838x/librtl838x.o
 .text._phy_8218d_vth_dump
                0x0000000000000000      0x110 board/Realtek/rtl838x/librtl838x.o
 .text._phy_8218d_tap1_dump
                0x0000000000000000      0x154 board/Realtek/rtl838x/librtl838x.o
 .text._phy_8218d_sdsSymErr_dump
                0x0000000000000000      0x1f4 board/Realtek/rtl838x/librtl838x.o
 .text._phy_8218d_sdsLeq_dump
                0x0000000000000000       0xf0 board/Realtek/rtl838x/librtl838x.o
 .text._phy_8218d_diag_dump
                0x0000000000000000      0x100 board/Realtek/rtl838x/librtl838x.o
 .text.sub_phy_8218d_patch_set
                0x0000000000000000       0xc8 board/Realtek/rtl838x/librtl838x.o
 .text._phy_8218e_indr_read
                0x0000000000000000       0x7c board/Realtek/rtl838x/librtl838x.o
 .text._phy_8218e_indr_write
                0x0000000000000000       0x68 board/Realtek/rtl838x/librtl838x.o
 .text._phy_8218e_indr_bits_write
                0x0000000000000000       0xb0 board/Realtek/rtl838x/librtl838x.o
 .text.phy_8218e_macIntfSerdes_reset
                0x0000000000000000      0x1d0 board/Realtek/rtl838x/librtl838x.o
 .text.phy_8218e_serdes_linkdown_chk
                0x0000000000000000      0x380 board/Realtek/rtl838x/librtl838x.o
 .text._phy_8218e_ptp_init
                0x0000000000000000        0x8 board/Realtek/rtl838x/librtl838x.o
 .text._phy_8218e_efuse_readbits
                0x0000000000000000       0x78 board/Realtek/rtl838x/librtl838x.o
 .text._phy_8218e_c_uc_nctl_init
                0x0000000000000000       0x5c board/Realtek/rtl838x/librtl838x.o
 .text._phy_8218e_gphy_init
                0x0000000000000000       0x5c board/Realtek/rtl838x/librtl838x.o
 .text._phy_8218e_uc_nctl_init
                0x0000000000000000       0x5c board/Realtek/rtl838x/librtl838x.o
 .text._phy_8218e_sram_init
                0x0000000000000000       0x5c board/Realtek/rtl838x/librtl838x.o
 .text.phy_8218e_conf_init
                0x0000000000000000       0x90 board/Realtek/rtl838x/librtl838x.o
 .text.sub_phy_8218e_patch_set
                0x0000000000000000       0xc8 board/Realtek/rtl838x/librtl838x.o
 .text.sub_phy_8218e_patch_perPort_set
                0x0000000000000000       0xe0 board/Realtek/rtl838x/librtl838x.o
 .text._i2c_i2cPin_direction_set
                0x0000000000000000       0xe8 board/Realtek/rtl838x/librtl838x.o
 .text._i2c_i2cPin_data_set
                0x0000000000000000       0x94 board/Realtek/rtl838x/librtl838x.o
 .text._i2c_start
                0x0000000000000000       0x90 board/Realtek/rtl838x/librtl838x.o
 .text._i2c_writeBits
                0x0000000000000000       0x9c board/Realtek/rtl838x/librtl838x.o
 .text._i2c_readBits
                0x0000000000000000      0x108 board/Realtek/rtl838x/librtl838x.o
 .text._i2c_stop
                0x0000000000000000       0x90 board/Realtek/rtl838x/librtl838x.o
 .text.r8380_rtl8231_extra_i2c_init
                0x0000000000000000       0x3c board/Realtek/rtl838x/librtl838x.o
 .text.r8380_rtl8231_extra_i2c_get
                0x0000000000000000       0x44 board/Realtek/rtl838x/librtl838x.o
 .text.r8380_rtl8231_extra_i2c_read
                0x0000000000000000      0x17c board/Realtek/rtl838x/librtl838x.o
 .text.r8380_rtl8231_extra_i2c_write
                0x0000000000000000      0x1c8 board/Realtek/rtl838x/librtl838x.o
 .text.r8380_i2c_type_set
                0x0000000000000000       0x34 board/Realtek/rtl838x/librtl838x.o
 .text.r8380_i2c_type_get
                0x0000000000000000       0x34 board/Realtek/rtl838x/librtl838x.o
 .text.dal_maple_port_link_get
                0x0000000000000000      0x1e0 board/Realtek/rtl838x/librtl838x.o
 .text.dal_maple_port_txEnable_set
                0x0000000000000000      0x1f4 board/Realtek/rtl838x/librtl838x.o
 .text.dal_maple_port_rxEnable_set
                0x0000000000000000      0x1f4 board/Realtek/rtl838x/librtl838x.o
 .text.dal_maple_port_txEnable_get
                0x0000000000000000      0x164 board/Realtek/rtl838x/librtl838x.o
 .text.dal_maple_port_rxEnable_get
                0x0000000000000000      0x164 board/Realtek/rtl838x/librtl838x.o
 .text.dal_maple_port_specialCongest_get
                0x0000000000000000      0x150 board/Realtek/rtl838x/librtl838x.o
 .text.dal_maple_port_specialCongest_set
                0x0000000000000000      0x158 board/Realtek/rtl838x/librtl838x.o
 .text.dal_maple_port_speedDuplex_get
                0x0000000000000000      0x2e4 board/Realtek/rtl838x/librtl838x.o
 .text.dal_maple_port_flowctrl_get
                0x0000000000000000      0x1e0 board/Realtek/rtl838x/librtl838x.o
 .text.dal_maple_port_phyAutoNegoEnablePortmask_set
                0x0000000000000000      0x518 board/Realtek/rtl838x/librtl838x.o
 .text.dal_maple_port_phyAutoNegoEnable_set
                0x0000000000000000       0xd4 board/Realtek/rtl838x/librtl838x.o
 .text.dal_maple_port_phyAutoNegoAbility_get
                0x0000000000000000      0x1c8 board/Realtek/rtl838x/librtl838x.o
 .text.dal_maple_port_phyAutoNegoAbility_set
                0x0000000000000000      0x2b0 board/Realtek/rtl838x/librtl838x.o
 .text.dal_maple_port_phyForceModeAbility_get
                0x0000000000000000      0x280 board/Realtek/rtl838x/librtl838x.o
 .text.dal_maple_port_phyForceModeAbility_set
                0x0000000000000000      0x448 board/Realtek/rtl838x/librtl838x.o
 .text.dal_maple_port_cpuPortId_get
                0x0000000000000000      0x12c board/Realtek/rtl838x/librtl838x.o
 .text.dal_maple_port_isolation_get
                0x0000000000000000      0x158 board/Realtek/rtl838x/librtl838x.o
 .text.dal_maple_port_isolation_add
                0x0000000000000000      0x160 board/Realtek/rtl838x/librtl838x.o
 .text.dal_maple_port_isolation_del
                0x0000000000000000      0x164 board/Realtek/rtl838x/librtl838x.o
 .text.dal_maple_port_adminEnable_get
                0x0000000000000000      0x11c board/Realtek/rtl838x/librtl838x.o
 .text.dal_maple_port_adminEnable_set
                0x0000000000000000      0x2a4 board/Realtek/rtl838x/librtl838x.o
 .text.dal_maple_port_backpressureEnable_get
                0x0000000000000000      0x158 board/Realtek/rtl838x/librtl838x.o
 .text.dal_maple_port_backpressureEnable_set
                0x0000000000000000      0x158 board/Realtek/rtl838x/librtl838x.o
 .text.dal_maple_port_linkChange_register
                0x0000000000000000       0xc0 board/Realtek/rtl838x/librtl838x.o
 .text.dal_maple_port_linkChange_unregister
                0x0000000000000000       0xac board/Realtek/rtl838x/librtl838x.o
 .text.dal_maple_port_linkDownGreenEnable_get
                0x0000000000000000       0x28 board/Realtek/rtl838x/librtl838x.o
 .text.dal_maple_port_vlanBasedIsolationEntry_get
                0x0000000000000000      0x1c0 board/Realtek/rtl838x/librtl838x.o
 .text.dal_maple_port_vlanBasedIsolationEntry_set
                0x0000000000000000      0x2bc board/Realtek/rtl838x/librtl838x.o
 .text.dal_maple_port_vlanBasedIsolation_vlanSource_get
                0x0000000000000000      0x128 board/Realtek/rtl838x/librtl838x.o
 .text.dal_maple_port_vlanBasedIsolation_vlanSource_set
                0x0000000000000000      0x104 board/Realtek/rtl838x/librtl838x.o
 .text.dal_maple_port_flowCtrlEnable_get
                0x0000000000000000      0x120 board/Realtek/rtl838x/librtl838x.o
 .text.dal_maple_port_flowCtrlEnable_set
                0x0000000000000000      0x13c board/Realtek/rtl838x/librtl838x.o
 .text.dal_maple_port_linkMedia_get
                0x0000000000000000      0x20c board/Realtek/rtl838x/librtl838x.o
 .text.dal_maple_port_fiberOAMLoopBackEnable_set
                0x0000000000000000      0x19c board/Realtek/rtl838x/librtl838x.o
 .text.dal_maple_port_init_check
                0x0000000000000000       0x28 board/Realtek/rtl838x/librtl838x.o
 .text.dal_maple_port_sem_lock
                0x0000000000000000       0x4c board/Realtek/rtl838x/librtl838x.o
 .text.dal_maple_port_sem_unlock
                0x0000000000000000       0x48 board/Realtek/rtl838x/librtl838x.o
 .text.dal_maple_eee_portEnable_set
                0x0000000000000000      0x254 board/Realtek/rtl838x/librtl838x.o
 .text.dal_maple_eee_init
                0x0000000000000000      0x12c board/Realtek/rtl838x/librtl838x.o
 .text.dal_maple_eeep_portEnable_set
                0x0000000000000000      0x20c board/Realtek/rtl838x/librtl838x.o
 .text.dal_maple_eee_portEnable_get
                0x0000000000000000      0x104 board/Realtek/rtl838x/librtl838x.o
 .text.dal_maple_eee_portState_get
                0x0000000000000000      0x128 board/Realtek/rtl838x/librtl838x.o
 .text.dal_maple_eeep_portEnable_get
                0x0000000000000000      0x104 board/Realtek/rtl838x/librtl838x.o
 .text.dal_maple_eee_portPowerState_get
                0x0000000000000000      0x1c8 board/Realtek/rtl838x/librtl838x.o
 .text.dal_maple_eeeMapper_init
                0x0000000000000000       0x5c board/Realtek/rtl838x/librtl838x.o
 .rodata.__FUNCTION__.3784
                0x0000000000000000       0x18 board/Realtek/rtl838x/librtl838x.o
 .rodata.crc_table
                0x0000000000000000      0x400 board/Realtek/rtl838x/librtl838x.o
 .rodata.__FUNCTION__.13541
                0x0000000000000000       0x14 board/Realtek/rtl838x/librtl838x.o
 .rodata.phy_common_speedDuplexStatusResReg_get
                0x0000000000000000       0x1c board/Realtek/rtl838x/librtl838x.o
 .rodata.phy_common_c45_speed_set
                0x0000000000000000       0x20 board/Realtek/rtl838x/librtl838x.o
 .rodata.phy_common_c45_speedDuplexStatusResReg_get
                0x0000000000000000       0x28 board/Realtek/rtl838x/librtl838x.o
 .rodata.phy_8214fc_intrEnable_get
                0x0000000000000000       0x14 board/Realtek/rtl838x/librtl838x.o
 .rodata.phy_8214fc_intrEnable_set
                0x0000000000000000       0x14 board/Realtek/rtl838x/librtl838x.o
 .rodata.phy_8218d_ledCtrl_get
                0x0000000000000000       0x20 board/Realtek/rtl838x/librtl838x.o
 .rodata.phy_8218d_ledCtrl_set
                0x0000000000000000       0x20 board/Realtek/rtl838x/librtl838x.o
 .rodata.phy_8218d_intrEnable_get
                0x0000000000000000       0x14 board/Realtek/rtl838x/librtl838x.o
 .rodata.phy_8218d_intrEnable_set
                0x0000000000000000       0x14 board/Realtek/rtl838x/librtl838x.o
 .rodata.__FUNCTION__.30667
                0x0000000000000000       0x14 board/Realtek/rtl838x/librtl838x.o
 .data          0x0000000000000000        0x0 board/Realtek/rtl838x/librtl838x.o
 .data.f        0x0000000000000000        0x4 board/Realtek/rtl838x/librtl838x.o
 .data.ledModeInitSkip_value
                0x0000000000000000        0x1 board/Realtek/rtl838x/librtl838x.o
 .data.rtl8218fB_revB_rtl8380_fiber_perport
                0x0000000000000000       0x24 board/Realtek/rtl838x/librtl838x.o
 .data.rtl8218fB_revB_rtl8380_utp_perport
                0x0000000000000000       0x50 board/Realtek/rtl838x/librtl838x.o
 .data.rtl8218fB_revB_rtl8380_perchip
                0x0000000000000000       0xcc board/Realtek/rtl838x/librtl838x.o
 .data.rtl8218B_rtl8380_perchip
                0x0000000000000000       0x78 board/Realtek/rtl838x/librtl838x.o
 .data.rtl8218B_rtl8380_perport
                0x0000000000000000      0x830 board/Realtek/rtl838x/librtl838x.o
 .data.rtl8218B_rtl8380_serdes_perchip
                0x0000000000000000      0x120 board/Realtek/rtl838x/librtl838x.o
 .data.construct_rtl8218b_0455A_mode3_perchip
                0x0000000000000000       0xd8 board/Realtek/rtl838x/librtl838x.o
 .data.construct_rtl8218b_0455A_mode3_perport
                0x0000000000000000      0xf58 board/Realtek/rtl838x/librtl838x.o
 .data.construct_rtl8218b_0455A_mode2_perchip
                0x0000000000000000       0xd8 board/Realtek/rtl838x/librtl838x.o
 .data.construct_rtl8218b_0455A_mode2_perport
                0x0000000000000000      0xf44 board/Realtek/rtl838x/librtl838x.o
 .data.construct_rtl8214fc_0455B_rtl8380_perport
                0x0000000000000000      0x30c board/Realtek/rtl838x/librtl838x.o
 .data.construct_rtl8214fc_0455B_rtl8380_perchip
                0x0000000000000000      0x12c board/Realtek/rtl838x/librtl838x.o
 .data.rtl8214fb_rtl8380_perchip_revC_3
                0x0000000000000000       0x7c board/Realtek/rtl838x/librtl838x.o
 .data.rtl8214fb_rtl8380_perchip_revC_2
                0x0000000000000000      0xd40 board/Realtek/rtl838x/librtl838x.o
 .data.rtl8214fb_rtl8380_perchip_revC_1
                0x0000000000000000       0x7c board/Realtek/rtl838x/librtl838x.o
 .data.rtl8214fb_perchip_revB
                0x0000000000000000      0xae0 board/Realtek/rtl838x/librtl838x.o
 .data.rtl8208_perchip
                0x0000000000000000      0x16c board/Realtek/rtl838x/librtl838x.o
 .data.pin_i2c_data
                0x0000000000000000        0x4 board/Realtek/rtl838x/librtl838x.o
 .data.pin_i2c_clock
                0x0000000000000000        0x4 board/Realtek/rtl838x/librtl838x.o
 .bss           0x0000000000000000        0x0 board/Realtek/rtl838x/librtl838x.o
 .bss.hwp_unit_pool
                0x0000000000000000       0x40 board/Realtek/rtl838x/librtl838x.o
 .bss.ioal_init_status
                0x0000000000000000        0x4 board/Realtek/rtl838x/librtl838x.o
 .bss.rtk_chip_type
                0x0000000000000000       0x40 board/Realtek/rtl838x/librtl838x.o
 .bss.threadEnabled
                0x0000000000000000        0x4 board/Realtek/rtl838x/librtl838x.o
 .bss.software_i2c_NAME
                0x0000000000000000      0x1f0 board/Realtek/rtl838x/librtl838x.o
 .bss.rtl838x_6275B_intPhy_perchip
                0x0000000000000000        0x0 board/Realtek/rtl838x/librtl838x.o
 .bss.rtl838x_6275A_intPhy_perchip
                0x0000000000000000        0x0 board/Realtek/rtl838x/librtl838x.o
 .bss.rtl838x_intPhy_0477B_perchip
                0x0000000000000000        0x0 board/Realtek/rtl838x/librtl838x.o
 .bss.construct_rtl8214fc_6276A_rtl8380_perport
                0x0000000000000000        0x0 board/Realtek/rtl838x/librtl838x.o
 .bss.rtl8208_perport
                0x0000000000000000        0x0 board/Realtek/rtl838x/librtl838x.o
 .bss._debug_regShow
                0x0000000000000000        0x4 board/Realtek/rtl838x/librtl838x.o
 .bss.eee_init  0x0000000000000000       0x40 board/Realtek/rtl838x/librtl838x.o
 .pdr           0x0000000000000000     0xd700 board/Realtek/rtl838x/librtl838x.o

Memory Configuration

Name             Origin             Length             Attributes
*default*        0x0000000000000000 0xffffffffffffffff

Linker script and memory map

                0x000000009fc00000                OTTO_FLASH_BASE = 0x9fc00000
                0x000000009f000000                OTTO_SRAM_BASE = 0x9f000000

.ucflash        0x00000000bfc00000      0x4d0 load address 0x000000009fc00000
 arch/mips/cpu/mips4kec/start.o(.text*)
 .text          0x00000000bfc00000      0x440 arch/mips/cpu/mips4kec/start.o
                0x00000000bfc00000                _start
 *(preloader.uc)
 preloader.uc   0x00000000bfc00440       0x90 arch/mips/cpu/mips4kec/rtl838x/librtl838x.o
                0x00000000bfc00440                soc_init

.sram           0x000000009f0004d0     0x6ab4 load address 0x000000009fc004d0
 arch/mips/cpu/mips4kec/rtl838x/librtl838x.o(.text*)
 .text          0x000000009f0004d0      0x300 arch/mips/cpu/mips4kec/rtl838x/librtl838x.o
                0x000000009f0004d0                soc_init_in_cache
                0x000000009f000510                soc_ramtest_init
                0x000000009f000560                cpu_init
                0x000000009f000620                mips_cache_reset
                0x000000009f000690                invalidate_icache_all
                0x000000009f000710                writeback_invalidate_dcache_all
                0x000000009f000740                rlx5281_cache_flush_dcache
                0x000000009f000770                mips_cache_flush_all
 .text.c_start_r
                0x000000009f0007d0       0x54 arch/mips/cpu/mips4kec/rtl838x/librtl838x.o
                0x000000009f0007d0                c_start_r
 .text.c_start  0x000000009f000824      0x27c arch/mips/cpu/mips4kec/rtl838x/librtl838x.o
                0x000000009f000824                c_start
 .text.dram_model_select
                0x000000009f000aa0       0x10 arch/mips/cpu/mips4kec/rtl838x/librtl838x.o
                0x000000009f000aa0                dram_model_select
 .text.dummy_all
                0x000000009f000ab0        0x8 arch/mips/cpu/mips4kec/rtl838x/librtl838x.o
 .text.assign_uart_fp
                0x000000009f000ab8       0x48 arch/mips/cpu/mips4kec/rtl838x/librtl838x.o
 .text.otto_NS16550_init
                0x000000009f000b00       0x54 arch/mips/cpu/mips4kec/rtl838x/librtl838x.o
                0x000000009f000b00                otto_NS16550_init
 .text.otto_NS16550_tstc
                0x000000009f000b54       0x3c arch/mips/cpu/mips4kec/rtl838x/librtl838x.o
                0x000000009f000b54                otto_NS16550_tstc
 .text.otto_NS16550_getc
                0x000000009f000b90       0x48 arch/mips/cpu/mips4kec/rtl838x/librtl838x.o
                0x000000009f000b90                otto_NS16550_getc
 .text.otto_NS16550_putc
                0x000000009f000bd8       0x44 arch/mips/cpu/mips4kec/rtl838x/librtl838x.o
                0x000000009f000bd8                otto_NS16550_putc
 .text.otto_NS16550_IoCtl
                0x000000009f000c1c       0xb0 arch/mips/cpu/mips4kec/rtl838x/librtl838x.o
                0x000000009f000c1c                otto_NS16550_IoCtl
 .text.console_init
                0x000000009f000ccc       0x74 arch/mips/cpu/mips4kec/rtl838x/librtl838x.o
                0x000000009f000ccc                console_init
 .text.pll_setup
                0x000000009f000d40       0x6c arch/mips/cpu/mips4kec/rtl838x/librtl838x.o
                0x000000009f000d40                pll_setup
 .text.otto_pll_gen3_set_to_reg
                0x000000009f000dac       0xec arch/mips/cpu/mips4kec/rtl838x/librtl838x.o
                0x000000009f000dac                otto_pll_gen3_set_to_reg
 .text.pll_query_freq
                0x000000009f000e98       0xb0 arch/mips/cpu/mips4kec/rtl838x/librtl838x.o
                0x000000009f000e98                pll_query_freq
 .text._memctl_delay_clkm_cycles
                0x000000009f000f48       0x30 arch/mips/cpu/mips4kec/rtl838x/librtl838x.o
 .text.memctlc_set_dqm_delay
                0x000000009f000f78       0x1c arch/mips/cpu/mips4kec/rtl838x/librtl838x.o
                0x000000009f000f78                memctlc_set_dqm_delay
 .text.memctlc_config_DRAM_size
                0x000000009f000f94       0x54 arch/mips/cpu/mips4kec/rtl838x/librtl838x.o
                0x000000009f000f94                memctlc_config_DRAM_size
 .text.memctlc_DDR3_ZQ_long_calibration
                0x000000009f000fe8       0x44 arch/mips/cpu/mips4kec/rtl838x/librtl838x.o
                0x000000009f000fe8                memctlc_DDR3_ZQ_long_calibration
 .text.memctlc_ZQ_calibration
                0x000000009f00102c      0x1fc arch/mips/cpu/mips4kec/rtl838x/librtl838x.o
                0x000000009f00102c                memctlc_ZQ_calibration
 .text.memctlc_ZQ_config
                0x000000009f001228       0x8c arch/mips/cpu/mips4kec/rtl838x/librtl838x.o
                0x000000009f001228                memctlc_ZQ_config
 .text.memctlc_config_DTR
                0x000000009f0012b4       0x4c arch/mips/cpu/mips4kec/rtl838x/librtl838x.o
                0x000000009f0012b4                memctlc_config_DTR
 .text.memctlc_DRAM_DLL_reset
                0x000000009f001300       0x7c arch/mips/cpu/mips4kec/rtl838x/librtl838x.o
                0x000000009f001300                memctlc_DRAM_DLL_reset
 .text.memctlc_dram_phy_reset
                0x000000009f00137c       0x28 arch/mips/cpu/mips4kec/rtl838x/librtl838x.o
                0x000000009f00137c                memctlc_dram_phy_reset
 .text.memctlc_DBFM_enable
                0x000000009f0013a4       0x18 arch/mips/cpu/mips4kec/rtl838x/librtl838x.o
                0x000000009f0013a4                memctlc_DBFM_enable
 .text.dram_setup
                0x000000009f0013bc      0x240 arch/mips/cpu/mips4kec/rtl838x/librtl838x.o
                0x000000009f0013bc                dram_setup
 .text._memctl_update_phy_param
                0x000000009f0015fc       0x90 arch/mips/cpu/mips4kec/rtl838x/librtl838x.o
                0x000000009f0015fc                _memctl_update_phy_param
 .text.get_memory_memctl_dq_write_delay_parameters
                0x000000009f00168c       0x34 arch/mips/cpu/mips4kec/rtl838x/librtl838x.o
                0x000000009f00168c                get_memory_memctl_dq_write_delay_parameters
 .text.memctlc_ddr1_dll_reset
                0x000000009f0016c0       0xcc arch/mips/cpu/mips4kec/rtl838x/librtl838x.o
                0x000000009f0016c0                memctlc_ddr1_dll_reset
 .text.memctlc_is_DDR
                0x000000009f00178c       0x18 arch/mips/cpu/mips4kec/rtl838x/librtl838x.o
                0x000000009f00178c                memctlc_is_DDR
 .text.memctlc_ddr2_dll_reset
                0x000000009f0017a4       0xe8 arch/mips/cpu/mips4kec/rtl838x/librtl838x.o
                0x000000009f0017a4                memctlc_ddr2_dll_reset
 .text.memctlc_is_DDR2
                0x000000009f00188c       0x1c arch/mips/cpu/mips4kec/rtl838x/librtl838x.o
                0x000000009f00188c                memctlc_is_DDR2
 .text.memctlc_ddr3_dll_reset
                0x000000009f0018a8       0xe8 arch/mips/cpu/mips4kec/rtl838x/librtl838x.o
                0x000000009f0018a8                memctlc_ddr3_dll_reset
 .text.memctlc_is_DDR3
                0x000000009f001990       0x20 arch/mips/cpu/mips4kec/rtl838x/librtl838x.o
                0x000000009f001990                memctlc_is_DDR3
 .text.plat_memctl_ZQ_force_config
                0x000000009f0019b0       0x94 arch/mips/cpu/mips4kec/rtl838x/librtl838x.o
                0x000000009f0019b0                plat_memctl_ZQ_force_config
 .text.plat_memctl_dcache_flush
                0x000000009f001a44       0x14 arch/mips/cpu/mips4kec/rtl838x/librtl838x.o
                0x000000009f001a44                plat_memctl_dcache_flush
 .text.plat_memctl_CPU_clock_MHz
                0x000000009f001a58       0x14 arch/mips/cpu/mips4kec/rtl838x/librtl838x.o
                0x000000009f001a58                plat_memctl_CPU_clock_MHz
 .text.plat_memctl_MEM_clock_MHz
                0x000000009f001a6c       0x14 arch/mips/cpu/mips4kec/rtl838x/librtl838x.o
                0x000000009f001a6c                plat_memctl_MEM_clock_MHz
 .text.plat_memctl_LX_clock_MHz
                0x000000009f001a80       0x14 arch/mips/cpu/mips4kec/rtl838x/librtl838x.o
                0x000000009f001a80                plat_memctl_LX_clock_MHz
 .text.plat_mem_clk_rev_check
                0x000000009f001a94       0x88 arch/mips/cpu/mips4kec/rtl838x/librtl838x.o
                0x000000009f001a94                plat_mem_clk_rev_check
 .text.plat_memctl_input_sig_delay
                0x000000009f001b1c       0xa0 arch/mips/cpu/mips4kec/rtl838x/librtl838x.o
                0x000000009f001b1c                plat_memctl_input_sig_delay
 .text.plat_memctl_dramclk_en
                0x000000009f001bbc       0x50 arch/mips/cpu/mips4kec/rtl838x/librtl838x.o
                0x000000009f001bbc                plat_memctl_dramclk_en
 .text.plat_memctl_show_dram_config
                0x000000009f001c0c      0x11c arch/mips/cpu/mips4kec/rtl838x/librtl838x.o
                0x000000009f001c0c                plat_memctl_show_dram_config
 .text.plat_memctl_calculate_dqrf_delay
                0x000000009f001d28       0x50 arch/mips/cpu/mips4kec/rtl838x/librtl838x.o
                0x000000009f001d28                plat_memctl_calculate_dqrf_delay
 .text.memctl_sync_write_buf
                0x000000009f001d78       0x24 arch/mips/cpu/mips4kec/rtl838x/librtl838x.o
                0x000000009f001d78                memctl_sync_write_buf
 .text._memctl_set_phy_delay_all
                0x000000009f001d9c       0x34 arch/mips/cpu/mips4kec/rtl838x/librtl838x.o
                0x000000009f001d9c                _memctl_set_phy_delay_all
 .text._memctl_set_phy_delay_dqrf
                0x000000009f001dd0       0xa0 arch/mips/cpu/mips4kec/rtl838x/librtl838x.o
                0x000000009f001dd0                _memctl_set_phy_delay_dqrf
 .text._write_pattern_1
                0x000000009f001e70       0x80 arch/mips/cpu/mips4kec/rtl838x/librtl838x.o
                0x000000009f001e70                _write_pattern_1
 .text._verify_pattern_1
                0x000000009f001ef0       0xa0 arch/mips/cpu/mips4kec/rtl838x/librtl838x.o
                0x000000009f001ef0                _verify_pattern_1
 .text._memctl_result_to_DQ_RW_Array
                0x000000009f001f90       0x80 arch/mips/cpu/mips4kec/rtl838x/librtl838x.o
                0x000000009f001f90                _memctl_result_to_DQ_RW_Array
 .text._memctl_find_proper_RW_dealy
                0x000000009f002010      0x2f8 arch/mips/cpu/mips4kec/rtl838x/librtl838x.o
                0x000000009f002010                _memctl_find_proper_RW_dealy
 .text._DDR_Calibration_Full_Scan
                0x000000009f002308      0x15c arch/mips/cpu/mips4kec/rtl838x/librtl838x.o
                0x000000009f002308                _DDR_Calibration_Full_Scan
 .text.DDR_Calibration
                0x000000009f002464       0xac arch/mips/cpu/mips4kec/rtl838x/librtl838x.o
                0x000000009f002464                DDR_Calibration
 .text.pblr_putc
                0x000000009f002510       0x54 arch/mips/cpu/mips4kec/rtl838x/librtl838x.o
                0x000000009f002510                pblr_putc
 .text.pblr_number
                0x000000009f002564      0x2fc arch/mips/cpu/mips4kec/rtl838x/librtl838x.o
 .text.pblr_puts
                0x000000009f002860       0x48 arch/mips/cpu/mips4kec/rtl838x/librtl838x.o
                0x000000009f002860                pblr_puts
 .text.pblr_strnlen
                0x000000009f0028a8       0x28 arch/mips/cpu/mips4kec/rtl838x/librtl838x.o
                0x000000009f0028a8                pblr_strnlen
 .text.pblr_soc_printf
                0x000000009f0028d0      0x4cc arch/mips/cpu/mips4kec/rtl838x/librtl838x.o
                0x000000009f0028d0                pblr_soc_printf
 .text.search_spare_by_type
                0x000000009f002d9c       0x48 arch/mips/cpu/mips4kec/rtl838x/librtl838x.o
                0x000000009f002d9c                search_spare_by_type
 .text.pblr_udelay
                0x000000009f002de4       0x6c arch/mips/cpu/mips4kec/rtl838x/librtl838x.o
                0x000000009f002de4                pblr_udelay
 .text.pblr_memcpy
                0x000000009f002e50       0x30 arch/mips/cpu/mips4kec/rtl838x/librtl838x.o
                0x000000009f002e50                pblr_memcpy
 .text.__random32
                0x000000009f002e80       0x84 arch/mips/cpu/mips4kec/rtl838x/librtl838x.o
 .text.plr_dram_normal_patterns
                0x000000009f002f04      0x1ac arch/mips/cpu/mips4kec/rtl838x/librtl838x.o
                0x000000009f002f04                plr_dram_normal_patterns
 .text.plr_dram_walking_of_1
                0x000000009f0030b0      0x19c arch/mips/cpu/mips4kec/rtl838x/librtl838x.o
                0x000000009f0030b0                plr_dram_walking_of_1
 .text.plr_dram_walking_of_0
                0x000000009f00324c      0x1a0 arch/mips/cpu/mips4kec/rtl838x/librtl838x.o
                0x000000009f00324c                plr_dram_walking_of_0
 .text.plr_dram_addr_rot
                0x000000009f0033ec      0x1e0 arch/mips/cpu/mips4kec/rtl838x/librtl838x.o
                0x000000009f0033ec                plr_dram_addr_rot
 .text.plr_dram_com_addr_rot
                0x000000009f0035cc      0x1f0 arch/mips/cpu/mips4kec/rtl838x/librtl838x.o
                0x000000009f0035cc                plr_dram_com_addr_rot
 .text.plr_dram_half_word_access
                0x000000009f0037bc      0x1b8 arch/mips/cpu/mips4kec/rtl838x/librtl838x.o
                0x000000009f0037bc                plr_dram_half_word_access
 .text.plr_dram_byte_access
                0x000000009f003974      0x1c8 arch/mips/cpu/mips4kec/rtl838x/librtl838x.o
                0x000000009f003974                plr_dram_byte_access
 .text.plr_memcpy_test
                0x000000009f003b3c      0x1c0 arch/mips/cpu/mips4kec/rtl838x/librtl838x.o
                0x000000009f003b3c                plr_memcpy_test
 .text.plr_unaligned_test
                0x000000009f003cfc      0x4a4 arch/mips/cpu/mips4kec/rtl838x/librtl838x.o
                0x000000009f003cfc                plr_unaligned_test
 .text.plr_disable_DRAM_prefech
                0x000000009f0041a0       0x54 arch/mips/cpu/mips4kec/rtl838x/librtl838x.o
                0x000000009f0041a0                plr_disable_DRAM_prefech
 .text.plr_enable_DRAM_prefech
                0x000000009f0041f4       0xb4 arch/mips/cpu/mips4kec/rtl838x/librtl838x.o
                0x000000009f0041f4                plr_enable_DRAM_prefech
 .text.plr_cache_flush_adj_addr
                0x000000009f0042a8      0x15c arch/mips/cpu/mips4kec/rtl838x/librtl838x.o
                0x000000009f0042a8                plr_cache_flush_adj_addr
 .text.plr_cache_flush_adjacent
                0x000000009f004404      0x248 arch/mips/cpu/mips4kec/rtl838x/librtl838x.o
                0x000000009f004404                plr_cache_flush_adjacent
 .text.plr_cache_flush_dispersed
                0x000000009f00464c      0x3cc arch/mips/cpu/mips4kec/rtl838x/librtl838x.o
                0x000000009f00464c                plr_cache_flush_dispersed
 .text.plr_cache_flush_adjacent_toggle_word
                0x000000009f004a18      0x194 arch/mips/cpu/mips4kec/rtl838x/librtl838x.o
                0x000000009f004a18                plr_cache_flush_adjacent_toggle_word
 .text.plr_cache_flush_dispersed_toggle_word
                0x000000009f004bac      0x304 arch/mips/cpu/mips4kec/rtl838x/librtl838x.o
                0x000000009f004bac                plr_cache_flush_dispersed_toggle_word
 .text.plr_cache_flush_adjacent_toggle_line128
                0x000000009f004eb0      0x288 arch/mips/cpu/mips4kec/rtl838x/librtl838x.o
                0x000000009f004eb0                plr_cache_flush_adjacent_toggle_line128
 .text.plr_cache_flush_test
                0x000000009f005138      0x234 arch/mips/cpu/mips4kec/rtl838x/librtl838x.o
                0x000000009f005138                plr_cache_flush_test
 .text._plrdram_test
                0x000000009f00536c      0x18c arch/mips/cpu/mips4kec/rtl838x/librtl838x.o
                0x000000009f00536c                _plrdram_test
 .text.plr_initdram
                0x000000009f0054f8      0x100 arch/mips/cpu/mips4kec/rtl838x/librtl838x.o
                0x000000009f0054f8                plr_initdram
 .text.plr_dram_test_lines
                0x000000009f0055f8      0x1b4 arch/mips/cpu/mips4kec/rtl838x/librtl838x.o
                0x000000009f0055f8                plr_dram_test_lines
 .text.plr_dram_test
                0x000000009f0057ac      0x314 arch/mips/cpu/mips4kec/rtl838x/librtl838x.o
                0x000000009f0057ac                plr_dram_test
                0x000000009f005ac0                . = ALIGN (0x4)
 *(.flash_text)
 .flash_text    0x000000009f005ac0      0x344 arch/mips/cpu/mips4kec/rtl838x/librtl838x.o
                0x000000009f005ac0                pll_gen3_get_to_mhz
                0x000000009f005b14                pll_gen3_set_from_mhz
                0x000000009f005b64                pll_gen3_setup
                0x000000009f005c80                _pll_gen3_get_to_mhz
                0x000000009f005cec                _pll_gen3_set_from_mhz
                0x000000009f005e04                . = ALIGN (0x4)
 arch/mips/cpu/mips4kec/rtl838x/librtl838x.o(.rodata*)
 *fill*         0x000000009f005e04        0xc 
 .rodata        0x000000009f005e10       0x40 arch/mips/cpu/mips4kec/rtl838x/librtl838x.o
 .rodata.str1.4
                0x000000009f005e50      0xb70 arch/mips/cpu/mips4kec/rtl838x/librtl838x.o
                                        0xbc0 (size before relaxing)
 .rodata.c_sp_pos
                0x000000009f0069c0        0x4 arch/mips/cpu/mips4kec/rtl838x/librtl838x.o
                0x000000009f0069c0                c_sp_pos
 .rodata.soc_in_flash
                0x000000009f0069c4      0x178 arch/mips/cpu/mips4kec/rtl838x/librtl838x.o
                0x000000009f0069c4                soc_in_flash
 .rodata.spare_headers_in_flash
                0x000000009f006b3c       0x24 arch/mips/cpu/mips4kec/rtl838x/librtl838x.o
                0x000000009f006b3c                spare_headers_in_flash
 .rodata.flash_info_in_spare
                0x000000009f006b60       0x50 arch/mips/cpu/mips4kec/rtl838x/librtl838x.o
                0x000000009f006b60                flash_info_in_spare
 .rodata.dram_info_in_spare
                0x000000009f006bb0      0x1d0 arch/mips/cpu/mips4kec/rtl838x/librtl838x.o
                0x000000009f006bb0                dram_info_in_spare
 .rodata.__func__.1471
                0x000000009f006d80       0x10 arch/mips/cpu/mips4kec/rtl838x/librtl838x.o
 .rodata.pat_ary
                0x000000009f006d90       0x80 arch/mips/cpu/mips4kec/rtl838x/librtl838x.o
                0x000000009f006d90                pat_ary
 .rodata.__FUNCTION__.1732
                0x000000009f006e10       0x14 arch/mips/cpu/mips4kec/rtl838x/librtl838x.o
 .rodata.__FUNCTION__.1692
                0x000000009f006e24       0x10 arch/mips/cpu/mips4kec/rtl838x/librtl838x.o
 .rodata.__FUNCTION__.1669
                0x000000009f006e34       0x18 arch/mips/cpu/mips4kec/rtl838x/librtl838x.o
 .rodata.__FUNCTION__.1646
                0x000000009f006e4c       0x1c arch/mips/cpu/mips4kec/rtl838x/librtl838x.o
 .rodata.__FUNCTION__.1620
                0x000000009f006e68       0x18 arch/mips/cpu/mips4kec/rtl838x/librtl838x.o
 .rodata.__FUNCTION__.1594
                0x000000009f006e80       0x14 arch/mips/cpu/mips4kec/rtl838x/librtl838x.o
 .rodata.__FUNCTION__.1571
                0x000000009f006e94       0x18 arch/mips/cpu/mips4kec/rtl838x/librtl838x.o
 .rodata.__FUNCTION__.1548
                0x000000009f006eac       0x18 arch/mips/cpu/mips4kec/rtl838x/librtl838x.o
 .rodata.__FUNCTION__.1525
                0x000000009f006ec4       0x1c arch/mips/cpu/mips4kec/rtl838x/librtl838x.o
 .rodata.plr_toggle_pattern
                0x000000009f006ee0       0x30 arch/mips/cpu/mips4kec/rtl838x/librtl838x.o
                0x000000009f006ee0                plr_toggle_pattern
 .rodata.plr_line_plr_toggle_pattern
                0x000000009f006f10       0x20 arch/mips/cpu/mips4kec/rtl838x/librtl838x.o
                0x000000009f006f10                plr_line_plr_toggle_pattern
 .rodata.plr_dram_patterns
                0x000000009f006f30       0x30 arch/mips/cpu/mips4kec/rtl838x/librtl838x.o
                0x000000009f006f30                plr_dram_patterns
                0x000000009f006f60                . = ALIGN (0x4)
 arch/mips/cpu/mips4kec/rtl838x/librtl838x.o(.data*)
 .data.pll_mhz  0x000000009f006f60       0x10 arch/mips/cpu/mips4kec/rtl838x/librtl838x.o
                0x000000009f006f60                pll_mhz
 .data._pll_freq
                0x000000009f006f70        0xc arch/mips/cpu/mips4kec/rtl838x/librtl838x.o
 .data.__upper_digits
                0x000000009f006f7c        0x4 arch/mips/cpu/mips4kec/rtl838x/librtl838x.o
                0x000000009f006f7c                __upper_digits
 .data.__lower_digits
                0x000000009f006f80        0x4 arch/mips/cpu/mips4kec/rtl838x/librtl838x.o
                0x000000009f006f80                __lower_digits
                0x000000009f006f84                . = ALIGN (0x4)
 arch/mips/cpu/mips4kec/rtl838x/librtl838x.o(.sdata*)
                0x000000009fc00000                preloader_sram_start = LOADADDR (.ucflash)
                0x0000000000006f84                preloader_sram_size = (SIZEOF (.sram) + SIZEOF (.ucflash))
                0x000000009f006f84                . = ALIGN (0x4)

.sram.bss       0x000000009f006f84        0xc load address 0x0000000000000000
 arch/mips/cpu/mips4kec/rtl838x/librtl838x.o(.sbss*)
                0x000000009f006f84                . = ALIGN (0x4)
 arch/mips/cpu/mips4kec/rtl838x/librtl838x.o(.bss*)
 .bss.s3.1770   0x000000009f006f84        0x4 arch/mips/cpu/mips4kec/rtl838x/librtl838x.o
 .bss.s2.1769   0x000000009f006f88        0x4 arch/mips/cpu/mips4kec/rtl838x/librtl838x.o
 .bss.s1.1768   0x000000009f006f8c        0x4 arch/mips/cpu/mips4kec/rtl838x/librtl838x.o
                0x000000009f006f84                preloader_bss_start = ADDR (.sram.bss)
                0x000000000000000c                preloader_bss_size = SIZEOF (.sram.bss)

.dram           0x0000000083f00000    0x8f02c load address 0x000000009fc06f84
 *(EXCLUDE_FILE(arch/mips/cpu/mips4kec/rtl838x/librtl838x.o arch/mips/cpu/mips4kec/start.o) .text*)
 .text.do_reset
                0x0000000083f00000       0x34 arch/mips/cpu/mips4kec/libmips4kec.o
                0x0000000083f00000                do_reset
 .text.flush_cache
                0x0000000083f00034       0x34 arch/mips/cpu/mips4kec/libmips4kec.o
                0x0000000083f00034                flush_cache
 .text.enable_interrupts
                0x0000000083f00068        0x8 arch/mips/cpu/mips4kec/libmips4kec.o
                0x0000000083f00068                enable_interrupts
 .text.disable_interrupts
                0x0000000083f00070        0x8 arch/mips/cpu/mips4kec/libmips4kec.o
                0x0000000083f00070                disable_interrupts
 .text.__board_early_init_f
                0x0000000083f00078        0x8 arch/mips/lib/libmips.o
                0x0000000083f00078                __board_early_init_f
                0x0000000083f00078                board_early_init_f
 .text.display_banner
                0x0000000083f00080       0x2c arch/mips/lib/libmips.o
 .text.init_func_ram
                0x0000000083f000ac       0x50 arch/mips/lib/libmips.o
 .text.board_init_r
                0x0000000083f000fc      0x274 arch/mips/lib/libmips.o
                0x0000000083f000fc                board_init_r
 .text.hang     0x0000000083f00370       0x1c arch/mips/lib/libmips.o
                0x0000000083f00370                hang
 .text.board_init_f
                0x0000000083f0038c       0xfc arch/mips/lib/libmips.o
                0x0000000083f0038c                board_init_f
 .text.linux_env_set
                0x0000000083f00488       0xec arch/mips/lib/libmips.o
 .text.do_bootm_linux
                0x0000000083f00574      0x2f8 arch/mips/lib/libmips.o
                0x0000000083f00574                do_bootm_linux
 .text.__ashldi3
                0x0000000083f0086c       0x40 arch/mips/lib/libmips.o
                0x0000000083f0086c                __ashldi3
 .text.__lshrdi3
                0x0000000083f008ac       0x40 arch/mips/lib/libmips.o
                0x0000000083f008ac                __lshrdi3
 .text.calc_divisor
                0x0000000083f008ec       0x5c arch/mips/lib/libmips.o
 .text.serial_putc
                0x0000000083f00948       0x54 arch/mips/lib/libmips.o
                0x0000000083f00948                serial_putc
 .text.serial_puts
                0x0000000083f0099c       0x38 arch/mips/lib/libmips.o
                0x0000000083f0099c                serial_puts
 .text.serial_getc
                0x0000000083f009d4       0x28 arch/mips/lib/libmips.o
                0x0000000083f009d4                serial_getc
 .text.serial_tstc
                0x0000000083f009fc       0x18 arch/mips/lib/libmips.o
                0x0000000083f009fc                serial_tstc
 .text.serial_setbrg
                0x0000000083f00a14       0x48 arch/mips/lib/libmips.o
                0x0000000083f00a14                serial_setbrg
 .text.serial_init
                0x0000000083f00a5c       0x30 arch/mips/lib/libmips.o
                0x0000000083f00a5c                serial_init
 .text.do_sleep
                0x0000000083f00a8c       0x7c arch/mips/lib/libmips.o
                0x0000000083f00a8c                do_sleep
 .text.timer_init
                0x0000000083f00b08       0x10 arch/mips/lib/libmips.o
                0x0000000083f00b08                timer_init
 .text.get_timer
                0x0000000083f00b18       0x74 arch/mips/lib/libmips.o
                0x0000000083f00b18                get_timer
 .text.__udelay
                0x0000000083f00b8c       0x14 arch/mips/lib/libmips.o
                0x0000000083f00b8c                __udelay
 .text.otto_spi_flash_read
                0x0000000083f00ba0       0xd0 arch/mips/lib/libmips.o
                0x0000000083f00ba0                otto_spi_flash_read
 .text.otto_spi_flash_erase
                0x0000000083f00c70      0x12c arch/mips/lib/libmips.o
                0x0000000083f00c70                otto_spi_flash_erase
 .text.otto_spi_flash_write
                0x0000000083f00d9c      0x268 arch/mips/lib/libmips.o
                0x0000000083f00d9c                otto_spi_flash_write
 .text.spi_flash_init
                0x0000000083f01004       0xb4 arch/mips/lib/libmips.o
                0x0000000083f01004                spi_flash_init
 .text.spi_flash_probe
                0x0000000083f010b8       0x3c arch/mips/lib/libmips.o
                0x0000000083f010b8                spi_flash_probe
 .text.spi_flash_free
                0x0000000083f010f4        0x8 arch/mips/lib/libmips.o
                0x0000000083f010f4                spi_flash_free
 .text.sdk_spi_flash_chip_num
                0x0000000083f010fc       0x10 arch/mips/lib/libmips.o
                0x0000000083f010fc                sdk_spi_flash_chip_num
 .text.sdk_spi_flash_chip_size
                0x0000000083f0110c       0x2c arch/mips/lib/libmips.o
                0x0000000083f0110c                sdk_spi_flash_chip_size
 .text.CHECK_CTRL_READY
                0x0000000083f01138       0x78 arch/mips/lib/libmips.o
 .text.sffunc_rems_id
                0x0000000083f011b0       0x84 arch/mips/lib/libmips.o
 .text.sffunc_rdbusy
                0x0000000083f01234       0x90 arch/mips/lib/libmips.o
 .text.sffunc_rdevcr
                0x0000000083f012c4       0x70 arch/mips/lib/libmips.o
 .text.sffunc_rdsr_rdsr2
                0x0000000083f01334       0x90 arch/mips/lib/libmips.o
 .text.sffunc_en4b_ex4b
                0x0000000083f013c4       0x48 arch/mips/lib/libmips.o
 .text.sffunc_wren_wrdi_eqcmd
                0x0000000083f0140c       0x48 arch/mips/lib/libmips.o
 .text.sffunc_rdid
                0x0000000083f01454       0x74 arch/mips/lib/libmips.o
 .text.sffunc_read
                0x0000000083f014c8      0x1e4 arch/mips/lib/libmips.o
 .text._spi_cmd
                0x0000000083f016ac      0x13c arch/mips/lib/libmips.o
 .text.flash_unit_erase
                0x0000000083f017e8       0xb0 arch/mips/lib/libmips.o
                0x0000000083f017e8                flash_unit_erase
 .text.flash_unit_write
                0x0000000083f01898       0xc8 arch/mips/lib/libmips.o
                0x0000000083f01898                flash_unit_write
 .text.flash_read
                0x0000000083f01960       0x50 arch/mips/lib/libmips.o
                0x0000000083f01960                flash_read
 .text.sffunc_wrevcr
                0x0000000083f019b0       0xe8 arch/mips/lib/libmips.o
 .text.sffunc_wrsr
                0x0000000083f01a98      0x104 arch/mips/lib/libmips.o
 .text.sffunc_erase
                0x0000000083f01b9c      0x104 arch/mips/lib/libmips.o
 .text.sffunc_write
                0x0000000083f01ca0      0x21c arch/mips/lib/libmips.o
 .text.probe_mxic_id
                0x0000000083f01ebc       0x54 arch/mips/lib/libmips.o
                0x0000000083f01ebc                probe_mxic_id
 .text.flash_init
                0x0000000083f01f10      0x8f8 arch/mips/lib/libmips.o
                0x0000000083f01f10                flash_init
 .text.do_go_exec
                0x0000000083f02808       0x14 common/libcommon.o
                0x0000000083f02808                do_go_exec
 .text.do_go    0x0000000083f0281c       0xa0 common/libcommon.o
                0x0000000083f0281c                do_go
 .text.image_info
                0x0000000083f028bc       0xec common/libcommon.o
 .text._do_bootm_addr
                0x0000000083f029a8       0xe8 common/libcommon.o
 .text.do_bootm_rtems
                0x0000000083f02a90       0x60 common/libcommon.o
 .text.do_bootm_netbsd
                0x0000000083f02af0      0x194 common/libcommon.o
 .text.do_iminfo
                0x0000000083f02c84       0xb0 common/libcommon.o
                0x0000000083f02c84                do_iminfo
 .text._do_boota_img_check
                0x0000000083f02d34       0x5c common/libcommon.o
 .text.dual_image_sel
                0x0000000083f02d90      0x334 common/libcommon.o
 .text.bootm_load_os.isra.14
                0x0000000083f030c4      0x21c common/libcommon.o
 .text.do_boota
                0x0000000083f032e0       0x78 common/libcommon.o
                0x0000000083f032e0                do_boota
 .text.bootm_start.isra.11
                0x0000000083f03358      0x3a8 common/libcommon.o
 .text.__arch_preboot_os
                0x0000000083f03700        0x8 common/libcommon.o
                0x0000000083f03700                arch_preboot_os
                0x0000000083f03700                __arch_preboot_os
 .text.do_bootm_subcommand
                0x0000000083f03708      0x1f8 common/libcommon.o
                0x0000000083f03708                do_bootm_subcommand
 .text.do_bootm
                0x0000000083f03900      0x2e8 common/libcommon.o
                0x0000000083f03900                do_bootm
 .text.bootm_maybe_autostart
                0x0000000083f03be8       0x8c common/libcommon.o
                0x0000000083f03be8                bootm_maybe_autostart
 .text.do_flinfo
                0x0000000083f03c74        0x8 common/libcommon.o
                0x0000000083f03c74                do_flinfo
 .text.do_flerase
                0x0000000083f03c7c        0x8 common/libcommon.o
                0x0000000083f03c7c                do_flerase
 .text.do_protect
                0x0000000083f03c84       0x1c common/libcommon.o
                0x0000000083f03c84                do_protect
 .text.do_help  0x0000000083f03ca0       0x54 common/libcommon.o
                0x0000000083f03ca0                do_help
 .text.bin_data_init
                0x0000000083f03cf4       0x1c common/libcommon.o
 .text.getcxmodem
                0x0000000083f03d10       0x2c common/libcommon.o
 .text.load_serial_ymodem
                0x0000000083f03d3c      0x100 common/libcommon.o
 .text.bin_data_char
                0x0000000083f03e3c       0x2c common/libcommon.o
 .text.load_serial
                0x0000000083f03e68      0x240 common/libcommon.o
 .text.do_load_serial
                0x0000000083f040a8      0x104 common/libcommon.o
                0x0000000083f040a8                do_load_serial
 .text.send_pad
                0x0000000083f041ac       0x48 common/libcommon.o
                0x0000000083f041ac                send_pad
 .text.ktrans   0x0000000083f041f4       0x34 common/libcommon.o
                0x0000000083f041f4                ktrans
 .text.chk1     0x0000000083f04228       0x28 common/libcommon.o
                0x0000000083f04228                chk1
 .text.s1_sendpacket
                0x0000000083f04250       0x3c common/libcommon.o
                0x0000000083f04250                s1_sendpacket
 .text.send_ack
                0x0000000083f0428c       0x70 common/libcommon.o
                0x0000000083f0428c                send_ack
 .text.send_nack
                0x0000000083f042fc       0x70 common/libcommon.o
                0x0000000083f042fc                send_nack
 .text.k_data_init
                0x0000000083f0436c       0x18 common/libcommon.o
                0x0000000083f0436c                k_data_init
 .text.k_data_save
                0x0000000083f04384       0x34 common/libcommon.o
                0x0000000083f04384                k_data_save
 .text.k_data_restore
                0x0000000083f043b8       0x34 common/libcommon.o
                0x0000000083f043b8                k_data_restore
 .text.k_data_char
                0x0000000083f043ec       0x84 common/libcommon.o
                0x0000000083f043ec                k_data_char
 .text.handle_send_packet
                0x0000000083f04470      0x23c common/libcommon.o
                0x0000000083f04470                handle_send_packet
 .text.do_load_serial_bin
                0x0000000083f046ac      0x55c common/libcommon.o
                0x0000000083f046ac                do_load_serial_bin
 .text.do_mem_loop
                0x0000000083f04c08      0x12c common/libcommon.o
                0x0000000083f04c08                do_mem_loop
 .text.do_mem_md
                0x0000000083f04d34      0x150 common/libcommon.o
                0x0000000083f04d34                do_mem_md
 .text.do_mem_base
                0x0000000083f04e84       0x50 common/libcommon.o
                0x0000000083f04e84                do_mem_base
 .text.do_mem_mtest
                0x0000000083f04ed4      0x200 common/libcommon.o
                0x0000000083f04ed4                do_mem_mtest
 .text.do_mem_mw
                0x0000000083f050d4      0x114 common/libcommon.o
                0x0000000083f050d4                do_mem_mw
 .text.do_mem_cmp
                0x0000000083f051e8      0x1c4 common/libcommon.o
                0x0000000083f051e8                do_mem_cmp
 .text.mod_mem.part.2
                0x0000000083f053ac      0x1c4 common/libcommon.o
 .text.do_mem_mm
                0x0000000083f05570       0x20 common/libcommon.o
                0x0000000083f05570                do_mem_mm
 .text.do_mem_cp
                0x0000000083f05590      0x11c common/libcommon.o
                0x0000000083f05590                do_mem_cp
 .text.do_mem_crc
                0x0000000083f056ac       0xf4 common/libcommon.o
                0x0000000083f056ac                do_mem_crc
 .text.do_mem_nm
                0x0000000083f057a0       0x20 common/libcommon.o
                0x0000000083f057a0                do_mem_nm
 .text.netboot_common
                0x0000000083f057c0      0x2cc common/libcommon.o
 .text.do_bootp
                0x0000000083f05a8c       0x10 common/libcommon.o
                0x0000000083f05a8c                do_bootp
 .text.do_tftpb
                0x0000000083f05a9c       0x10 common/libcommon.o
                0x0000000083f05a9c                do_tftpb
 .text.do_ping  0x0000000083f05aac       0xa4 common/libcommon.o
                0x0000000083f05aac                do_ping
 .text.do_env_delete
                0x0000000083f05b50       0x24 common/libcommon.o
 .text.env_print
                0x0000000083f05b74       0xa4 common/libcommon.o
 .text.do_env_save
                0x0000000083f05c18       0x34 common/libcommon.o
                0x0000000083f05c18                do_env_save
 .text.do_env   0x0000000083f05c4c       0x9c common/libcommon.o
 .text.do_env_import
                0x0000000083f05ce8      0x284 common/libcommon.o
 .text.do_env_default
                0x0000000083f05f6c       0x64 common/libcommon.o
 .text.do_env_print
                0x0000000083f05fd0       0xc4 common/libcommon.o
                0x0000000083f05fd0                do_env_print
 .text.get_env_id
                0x0000000083f06094        0xc common/libcommon.o
                0x0000000083f06094                get_env_id
 .text._do_env_set
                0x0000000083f060a0      0x400 common/libcommon.o
                0x0000000083f060a0                _do_env_set
 .text.do_env_set
                0x0000000083f064a0       0x28 common/libcommon.o
                0x0000000083f064a0                do_env_set
 .text.setenv   0x0000000083f064c8       0x4c common/libcommon.o
                0x0000000083f064c8                setenv
 .text.do_env_export
                0x0000000083f06514      0x2e8 common/libcommon.o
 .text.setenv_ulong
                0x0000000083f067fc       0x30 common/libcommon.o
                0x0000000083f067fc                setenv_ulong
 .text.envmatch
                0x0000000083f0682c       0x98 common/libcommon.o
                0x0000000083f0682c                envmatch
 .text.getenv_f
                0x0000000083f068c4      0x104 common/libcommon.o
                0x0000000083f068c4                getenv_f
 .text.getenv   0x0000000083f069c8       0x74 common/libcommon.o
                0x0000000083f069c8                getenv
 .text.getenv_ulong
                0x0000000083f06a3c       0x58 common/libcommon.o
                0x0000000083f06a3c                getenv_ulong
 .text.do_spi_flash
                0x0000000083f06a94      0x5ac common/libcommon.o
 .text.do_version
                0x0000000083f07040       0x44 common/libcommon.o
                0x0000000083f07040                do_version
 .text.find_cmd_tbl
                0x0000000083f07084       0xdc common/libcommon.o
                0x0000000083f07084                find_cmd_tbl
 .text.find_cmd
                0x0000000083f07160       0x2c common/libcommon.o
                0x0000000083f07160                find_cmd
 .text.cmd_usage
                0x0000000083f0718c       0x78 common/libcommon.o
                0x0000000083f0718c                cmd_usage
 .text._do_help
                0x0000000083f07204      0x1e0 common/libcommon.o
                0x0000000083f07204                _do_help
 .text.var_complete
                0x0000000083f073e4       0x7c common/libcommon.o
                0x0000000083f073e4                var_complete
 .text.cmd_auto_complete
                0x0000000083f07460      0x534 common/libcommon.o
                0x0000000083f07460                cmd_auto_complete
 .text.cmd_get_data_size
                0x0000000083f07994       0x7c common/libcommon.o
                0x0000000083f07994                cmd_get_data_size
 .text.console_setfile
                0x0000000083f07a10       0xd0 common/libcommon.o
 .text.fputs    0x0000000083f07ae0       0x38 common/libcommon.o
                0x0000000083f07ae0                fputs
 .text.fprintf  0x0000000083f07b18       0x4c common/libcommon.o
                0x0000000083f07b18                fprintf
 .text.getc     0x0000000083f07b64       0x40 common/libcommon.o
                0x0000000083f07b64                getc
 .text.tstc     0x0000000083f07ba4       0x40 common/libcommon.o
                0x0000000083f07ba4                tstc
 .text.putc     0x0000000083f07be4       0x54 common/libcommon.o
                0x0000000083f07be4                putc
 .text.puts     0x0000000083f07c38       0x6c common/libcommon.o
                0x0000000083f07c38                puts
 .text.printf   0x0000000083f07ca4       0x44 common/libcommon.o
                0x0000000083f07ca4                printf
 .text.vprintf  0x0000000083f07ce8       0x38 common/libcommon.o
                0x0000000083f07ce8                vprintf
 .text.ctrlc    0x0000000083f07d20       0x6c common/libcommon.o
                0x0000000083f07d20                ctrlc
 .text.had_ctrlc
                0x0000000083f07d8c        0xc common/libcommon.o
                0x0000000083f07d8c                had_ctrlc
 .text.clear_ctrlc
                0x0000000083f07d98        0xc common/libcommon.o
                0x0000000083f07d98                clear_ctrlc
 .text.search_device
                0x0000000083f07da4       0x3c common/libcommon.o
                0x0000000083f07da4                search_device
 .text.console_assign
                0x0000000083f07de0       0x68 common/libcommon.o
                0x0000000083f07de0                console_assign
 .text.console_init_f
                0x0000000083f07e48       0x78 common/libcommon.o
                0x0000000083f07e48                console_init_f
 .text.console_init_r
                0x0000000083f07ec0      0x118 common/libcommon.o
                0x0000000083f07ec0                console_init_r
 .text.sbrk     0x0000000083f07fd8       0x84 common/libcommon.o
                0x0000000083f07fd8                sbrk
 .text.mem_malloc_init
                0x0000000083f0805c       0x2c common/libcommon.o
                0x0000000083f0805c                mem_malloc_init
 .text.malloc_trim
                0x0000000083f08088       0xf0 common/libcommon.o
                0x0000000083f08088                malloc_trim
 .text.free     0x0000000083f08178      0x24c common/libcommon.o
                0x0000000083f08178                free
 .text.malloc   0x0000000083f083c4      0x678 common/libcommon.o
                0x0000000083f083c4                malloc
 .text.calloc   0x0000000083f08a3c       0xf8 common/libcommon.o
                0x0000000083f08a3c                calloc
 .text.env_get_addr
                0x0000000083f08b34       0x28 common/libcommon.o
                0x0000000083f08b34                env_get_addr
 .text.env_get_char_memory
                0x0000000083f08b5c       0x20 common/libcommon.o
                0x0000000083f08b5c                env_get_char_memory
 .text.env_get_char
                0x0000000083f08b7c       0x3c common/libcommon.o
                0x0000000083f08b7c                env_get_char
 .text.set_default_env
                0x0000000083f08bb8       0xd4 common/libcommon.o
                0x0000000083f08bb8                set_default_env
 .text.env_import
                0x0000000083f08c8c       0xe0 common/libcommon.o
                0x0000000083f08c8c                env_import
 .text.env_relocate
                0x0000000083f08d6c       0x38 common/libcommon.o
                0x0000000083f08d6c                env_relocate
 .text.env_complete
                0x0000000083f08da4      0x138 common/libcommon.o
                0x0000000083f08da4                env_complete
 .text.env_get_char_spec
                0x0000000083f08edc       0x10 common/libcommon.o
                0x0000000083f08edc                env_get_char_spec
 .text.saveenv  0x0000000083f08eec      0x188 common/libcommon.o
                0x0000000083f08eec                saveenv
 .text.env_relocate_spec
                0x0000000083f09074       0xcc common/libcommon.o
                0x0000000083f09074                env_relocate_spec
 .text.env_init
                0x0000000083f09140       0x1c common/libcommon.o
                0x0000000083f09140                env_init
 .text.dummy    0x0000000083f0915c        0x8 common/libcommon.o
 .text.get_version
                0x0000000083f09164        0x8 common/libcommon.o
                0x0000000083f09164                get_version
 .text.jumptable_init
                0x0000000083f0916c      0x1a4 common/libcommon.o
                0x0000000083f0916c                jumptable_init
 .text.image_check_hcrc
                0x0000000083f09310       0x50 common/libcommon.o
                0x0000000083f09310                image_check_hcrc
 .text.image_check_dcrc
                0x0000000083f09360       0x40 common/libcommon.o
                0x0000000083f09360                image_check_dcrc
 .text.image_multi_count
                0x0000000083f093a0       0x28 common/libcommon.o
                0x0000000083f093a0                image_multi_count
 .text.image_multi_getimg
                0x0000000083f093c8       0xb4 common/libcommon.o
                0x0000000083f093c8                image_multi_getimg
 .text.getenv_yesno
                0x0000000083f0947c       0x30 common/libcommon.o
                0x0000000083f0947c                getenv_yesno
 .text.memmove_wd
                0x0000000083f094ac       0x18 common/libcommon.o
                0x0000000083f094ac                memmove_wd
 .text.genimg_print_size
                0x0000000083f094c4       0x40 common/libcommon.o
                0x0000000083f094c4                genimg_print_size
 .text.get_table_entry_name
                0x0000000083f09504       0x24 common/libcommon.o
                0x0000000083f09504                get_table_entry_name
 .text.genimg_get_os_name
                0x0000000083f09528       0x1c common/libcommon.o
                0x0000000083f09528                genimg_get_os_name
 .text.genimg_get_arch_name
                0x0000000083f09544       0x1c common/libcommon.o
                0x0000000083f09544                genimg_get_arch_name
 .text.genimg_get_type_name
                0x0000000083f09560       0x1c common/libcommon.o
                0x0000000083f09560                genimg_get_type_name
 .text.genimg_get_comp_name
                0x0000000083f0957c       0x1c common/libcommon.o
                0x0000000083f0957c                genimg_get_comp_name
 .text.image_print_contents
                0x0000000083f09598      0x1f4 common/libcommon.o
                0x0000000083f09598                image_print_contents
 .text.genimg_get_format
                0x0000000083f0978c       0x14 common/libcommon.o
                0x0000000083f0978c                genimg_get_format
 .text.genimg_get_image
                0x0000000083f097a0        0x8 common/libcommon.o
                0x0000000083f097a0                genimg_get_image
 .text.boot_get_ramdisk
                0x0000000083f097a8      0x240 common/libcommon.o
                0x0000000083f097a8                boot_get_ramdisk
 .text.delete_char.part.0
                0x0000000083f099e8      0x124 common/libcommon.o
 .text.cread_add_char
                0x0000000083f09b0c      0x130 common/libcommon.o
 .text.__show_boot_progress
                0x0000000083f09c3c        0x8 common/libcommon.o
                0x0000000083f09c3c                __show_boot_progress
                0x0000000083f09c3c                show_boot_progress
 .text.board_prompt
                0x0000000083f09c44        0xc common/libcommon.o
                0x0000000083f09c44                board_prompt
 .text.readline_into_buffer
                0x0000000083f09c50      0xa2c common/libcommon.o
                0x0000000083f09c50                readline_into_buffer
 .text.readline
                0x0000000083f0a67c       0x14 common/libcommon.o
                0x0000000083f0a67c                readline
 .text.parse_line
                0x0000000083f0a690       0xb4 common/libcommon.o
                0x0000000083f0a690                parse_line
 .text.run_command
                0x0000000083f0a744      0x3d4 common/libcommon.o
                0x0000000083f0a744                run_command
 .text.main_loop
                0x0000000083f0ab18      0x1dc common/libcommon.o
                0x0000000083f0ab18                main_loop
 .text.do_run   0x0000000083f0acf4       0xc4 common/libcommon.o
                0x0000000083f0acf4                do_run
 .text.hex1_bin
                0x0000000083f0adb8       0x44 common/libcommon.o
 .text.hex2_bin
                0x0000000083f0adfc       0x54 common/libcommon.o
 .text.srec_decode
                0x0000000083f0ae50      0x268 common/libcommon.o
                0x0000000083f0ae50                srec_decode
 .text.stdio_get_list
                0x0000000083f0b0b8        0xc common/libcommon.o
                0x0000000083f0b0b8                stdio_get_list
 .text.stdio_get_by_name
                0x0000000083f0b0c4       0x74 common/libcommon.o
                0x0000000083f0b0c4                stdio_get_by_name
 .text.stdio_clone
                0x0000000083f0b138       0x6c common/libcommon.o
                0x0000000083f0b138                stdio_clone
 .text.stdio_register
                0x0000000083f0b1a4       0x54 common/libcommon.o
                0x0000000083f0b1a4                stdio_register
 .text.stdio_init
                0x0000000083f0b1f8       0x94 common/libcommon.o
                0x0000000083f0b1f8                stdio_init
 .text.CYGACC_COMM_IF_GETC_TIMEOUT
                0x0000000083f0b28c       0x78 common/libcommon.o
                0x0000000083f0b28c                CYGACC_COMM_IF_GETC_TIMEOUT
 .text.xyzModem_flush
                0x0000000083f0b304       0x38 common/libcommon.o
 .text.xyzModem_get_hdr
                0x0000000083f0b33c      0x2c4 common/libcommon.o
 .text.parse_num
                0x0000000083f0b600      0x12c common/libcommon.o
                0x0000000083f0b600                parse_num
 .text.xyzModem_stream_open
                0x0000000083f0b72c      0x1a8 common/libcommon.o
                0x0000000083f0b72c                xyzModem_stream_open
 .text.xyzModem_stream_read
                0x0000000083f0b8d4      0x2c0 common/libcommon.o
                0x0000000083f0b8d4                xyzModem_stream_read
 .text.xyzModem_stream_close
                0x0000000083f0bb94       0x5c common/libcommon.o
                0x0000000083f0bb94                xyzModem_stream_close
 .text.xyzModem_stream_terminate
                0x0000000083f0bbf0       0xb8 common/libcommon.o
                0x0000000083f0bbf0                xyzModem_stream_terminate
 .text.xyzModem_error
                0x0000000083f0bca8       0x30 common/libcommon.o
                0x0000000083f0bca8                xyzModem_error
 .text.GregorianDay
                0x0000000083f0bcd8      0x110 drivers/rtc/librtc.o
                0x0000000083f0bcd8                GregorianDay
 .text.to_tm    0x0000000083f0bde8       0xe0 drivers/rtc/librtc.o
                0x0000000083f0bde8                to_tm
 .text.cyg_crc16
                0x0000000083f0bec8       0x50 lib/libgeneric.o
                0x0000000083f0bec8                cyg_crc16
 .text.crc32_no_comp
                0x0000000083f0bf18      0x138 lib/libgeneric.o
                0x0000000083f0bf18                crc32_no_comp
 .text.crc32    0x0000000083f0c050       0x20 lib/libgeneric.o
                0x0000000083f0c050                crc32
 .text.crc32_wd
                0x0000000083f0c070        0x8 lib/libgeneric.o
                0x0000000083f0c070                crc32_wd
 .text.print_size
                0x0000000083f0c078        0x8 lib/libgeneric.o
                0x0000000083f0c078                print_size
 .text.print_buffer
                0x0000000083f0c080      0x204 lib/libgeneric.o
                0x0000000083f0c080                print_buffer
 .text.zalloc   0x0000000083f0c284       0x18 lib/libgeneric.o
                0x0000000083f0c284                zalloc
 .text.zfree    0x0000000083f0c29c        0xc lib/libgeneric.o
                0x0000000083f0c29c                zfree
 .text.zunzip   0x0000000083f0c2a8      0x140 lib/libgeneric.o
                0x0000000083f0c2a8                zunzip
 .text.gunzip   0x0000000083f0c3e8       0xc4 lib/libgeneric.o
                0x0000000083f0c3e8                gunzip
 .text.cmpkey   0x0000000083f0c4ac       0x18 lib/libgeneric.o
 .text.hcreate_r
                0x0000000083f0c4c4       0xac lib/libgeneric.o
                0x0000000083f0c4c4                hcreate_r
 .text.hdestroy_r
                0x0000000083f0c570       0x9c lib/libgeneric.o
                0x0000000083f0c570                hdestroy_r
 .text.hmatch_r
                0x0000000083f0c60c       0xd4 lib/libgeneric.o
                0x0000000083f0c60c                hmatch_r
 .text.hsearch_r
                0x0000000083f0c6e0      0x290 lib/libgeneric.o
                0x0000000083f0c6e0                hsearch_r
 .text.hdelete_r
                0x0000000083f0c970       0x9c lib/libgeneric.o
                0x0000000083f0c970                hdelete_r
 .text.hexport_r
                0x0000000083f0ca0c      0x2d0 lib/libgeneric.o
                0x0000000083f0ca0c                hexport_r
 .text.himport_r
                0x0000000083f0ccdc      0x290 lib/libgeneric.o
                0x0000000083f0ccdc                himport_r
 .text.string_to_ip
                0x0000000083f0cf6c       0x94 lib/libgeneric.o
                0x0000000083f0cf6c                string_to_ip
 .text.qsort    0x0000000083f0d000      0x158 lib/libgeneric.o
                0x0000000083f0d000                qsort
 .text.strcmp_compar
                0x0000000083f0d158       0x10 lib/libgeneric.o
                0x0000000083f0d158                strcmp_compar
 .text.__div64_32
                0x0000000083f0d168      0x114 lib/libgeneric.o
                0x0000000083f0d168                __div64_32
 .text.strcpy   0x0000000083f0d27c       0x24 lib/libgeneric.o
                0x0000000083f0d27c                strcpy
 .text.strncpy  0x0000000083f0d2a0       0x2c lib/libgeneric.o
                0x0000000083f0d2a0                strncpy
 .text.strcmp   0x0000000083f0d2cc       0x2c lib/libgeneric.o
                0x0000000083f0d2cc                strcmp
 .text.strncmp  0x0000000083f0d2f8       0x3c lib/libgeneric.o
                0x0000000083f0d2f8                strncmp
 .text.strchr   0x0000000083f0d334       0x30 lib/libgeneric.o
                0x0000000083f0d334                strchr
 .text.strlen   0x0000000083f0d364       0x20 lib/libgeneric.o
                0x0000000083f0d364                strlen
 .text.strnlen  0x0000000083f0d384       0x28 lib/libgeneric.o
                0x0000000083f0d384                strnlen
 .text.strdup   0x0000000083f0d3ac       0x5c lib/libgeneric.o
                0x0000000083f0d3ac                strdup
 .text.memset   0x0000000083f0d408       0x7c lib/libgeneric.o
                0x0000000083f0d408                memset
 .text.memcpy   0x0000000083f0d484       0x7c lib/libgeneric.o
                0x0000000083f0d484                memcpy
 .text.memmove  0x0000000083f0d500       0x74 lib/libgeneric.o
                0x0000000083f0d500                memmove
 .text.memcmp   0x0000000083f0d574       0x30 lib/libgeneric.o
                0x0000000083f0d574                memcmp
 .text.memchr   0x0000000083f0d5a4       0x34 lib/libgeneric.o
                0x0000000083f0d5a4                memchr
 .text.udelay   0x0000000083f0d5d8       0x68 lib/libgeneric.o
                0x0000000083f0d5d8                udelay
 .text.mdelay   0x0000000083f0d640       0x34 lib/libgeneric.o
                0x0000000083f0d640                mdelay
 .text.put_dec_trunc
                0x0000000083f0d674      0x100 lib/libgeneric.o
 .text.string   0x0000000083f0d774       0xd8 lib/libgeneric.o
 .text.put_dec  0x0000000083f0d84c      0x158 lib/libgeneric.o
 .text.number   0x0000000083f0d9a4      0x31c lib/libgeneric.o
 .text.simple_strtoul
                0x0000000083f0dcc0       0xdc lib/libgeneric.o
                0x0000000083f0dcc0                simple_strtoul
 .text.strict_strtoul
                0x0000000083f0dd9c       0xa0 lib/libgeneric.o
                0x0000000083f0dd9c                strict_strtoul
 .text.simple_strtol
                0x0000000083f0de3c       0x38 lib/libgeneric.o
                0x0000000083f0de3c                simple_strtol
 .text.vsprintf
                0x0000000083f0de74      0x744 lib/libgeneric.o
                0x0000000083f0de74                vsprintf
 .text.sprintf  0x0000000083f0e5b8       0x28 lib/libgeneric.o
                0x0000000083f0e5b8                sprintf
 .text.simple_itoa
                0x0000000083f0e5e0       0x44 lib/libgeneric.o
                0x0000000083f0e5e0                simple_itoa
 .text.LzmaDec_WriteRem
                0x0000000083f0e624       0xa0 lib/lzma/liblzma.o
 .text.LzmaDec_DecodeReal2
                0x0000000083f0e6c4      0xe90 lib/lzma/liblzma.o
 .text.LzmaDec_TryDummy
                0x0000000083f0f554      0x6fc lib/lzma/liblzma.o
 .text.LzmaDec_Init
                0x0000000083f0fc50       0x24 lib/lzma/liblzma.o
                0x0000000083f0fc50                LzmaDec_Init
 .text.LzmaDec_DecodeToDic
                0x0000000083f0fc74      0x398 lib/lzma/liblzma.o
                0x0000000083f0fc74                LzmaDec_DecodeToDic
 .text.LzmaDec_FreeProbs
                0x0000000083f1000c       0x34 lib/lzma/liblzma.o
                0x0000000083f1000c                LzmaDec_FreeProbs
 .text.LzmaDec_AllocateProbs2
                0x0000000083f10040       0x90 lib/lzma/liblzma.o
 .text.LzmaProps_Decode
                0x0000000083f100d0       0x94 lib/lzma/liblzma.o
                0x0000000083f100d0                LzmaProps_Decode
 .text.LzmaDec_AllocateProbs
                0x0000000083f10164       0x70 lib/lzma/liblzma.o
                0x0000000083f10164                LzmaDec_AllocateProbs
 .text.LzmaDecode
                0x0000000083f101d4      0x118 lib/lzma/liblzma.o
                0x0000000083f101d4                LzmaDecode
 .text.SzFree   0x0000000083f102ec        0xc lib/lzma/liblzma.o
 .text.SzAlloc  0x0000000083f102f8        0xc lib/lzma/liblzma.o
 .text.lzmaBuffToBuffDecompress
                0x0000000083f10304      0x104 lib/lzma/liblzma.o
                0x0000000083f10304                lzmaBuffToBuffDecompress
 .text.zcalloc  0x0000000083f10408        0xc lib/zlib/libz.o
                0x0000000083f10408                zcalloc
 .text.zcfree   0x0000000083f10414        0xc lib/zlib/libz.o
                0x0000000083f10414                zcfree
 .text.inflate_fast
                0x0000000083f10420      0x59c lib/zlib/libz.o
                0x0000000083f10420                inflate_fast
 .text.inflate_table
                0x0000000083f109bc      0x4fc lib/zlib/libz.o
                0x0000000083f109bc                inflate_table
 .text.inflateReset
                0x0000000083f10eb8       0x78 lib/zlib/libz.o
                0x0000000083f10eb8                inflateReset
 .text.inflateInit2_
                0x0000000083f10f30      0x124 lib/zlib/libz.o
                0x0000000083f10f30                inflateInit2_
 .text.inflateEnd
                0x0000000083f11054       0x78 lib/zlib/libz.o
                0x0000000083f11054                inflateEnd
 .text.adler32  0x0000000083f110cc      0x300 lib/zlib/libz.o
                0x0000000083f110cc                adler32
 .text.inflate  0x0000000083f113cc     0x161c lib/zlib/libz.o
                0x0000000083f113cc                inflate
 .text.BootpHandler
                0x0000000083f129e8      0x3c4 net/libnet.o
 .text.BootpRequest
                0x0000000083f12dac      0x244 net/libnet.o
                0x0000000083f12dac                BootpRequest
 .text.BootpTimeout
                0x0000000083f12ff0       0x4c net/libnet.o
 .text.__def_eth_init
                0x0000000083f1303c        0x8 net/libnet.o
                0x0000000083f1303c                cpu_eth_init
                0x0000000083f1303c                board_eth_init
 .text.eth_current_changed
                0x0000000083f13044       0x98 net/libnet.o
 .text.eth_parse_enetaddr
                0x0000000083f130dc       0x88 net/libnet.o
                0x0000000083f130dc                eth_parse_enetaddr
 .text.eth_getenv_enetaddr
                0x0000000083f13164       0x70 net/libnet.o
                0x0000000083f13164                eth_getenv_enetaddr
 .text.eth_getenv_enetaddr_by_index
                0x0000000083f131d4       0x58 net/libnet.o
                0x0000000083f131d4                eth_getenv_enetaddr_by_index
 .text.eth_get_dev
                0x0000000083f1322c        0xc net/libnet.o
                0x0000000083f1322c                eth_get_dev
 .text.eth_get_dev_index
                0x0000000083f13238       0x40 net/libnet.o
                0x0000000083f13238                eth_get_dev_index
 .text.eth_write_hwaddr
                0x0000000083f13278      0x188 net/libnet.o
                0x0000000083f13278                eth_write_hwaddr
 .text.eth_register
                0x0000000083f13400       0x78 net/libnet.o
                0x0000000083f13400                eth_register
 .text.eth_initialize
                0x0000000083f13478      0x1cc net/libnet.o
                0x0000000083f13478                eth_initialize
 .text.eth_halt
                0x0000000083f13644       0x44 net/libnet.o
                0x0000000083f13644                eth_halt
 .text.eth_send
                0x0000000083f13688       0x2c net/libnet.o
                0x0000000083f13688                eth_send
 .text.eth_rx   0x0000000083f136b4       0x24 net/libnet.o
                0x0000000083f136b4                eth_rx
 .text.eth_try_another
                0x0000000083f136d8       0xac net/libnet.o
                0x0000000083f136d8                eth_try_another
 .text.eth_init
                0x0000000083f13784      0x104 net/libnet.o
                0x0000000083f13784                eth_init
 .text.eth_set_current
                0x0000000083f13888       0xd0 net/libnet.o
                0x0000000083f13888                eth_set_current
 .text.eth_get_name
                0x0000000083f13958       0x20 net/libnet.o
                0x0000000083f13958                eth_get_name
 .text.startAgainTimeout
                0x0000000083f13978       0x10 net/libnet.o
 .text.startAgainHandler
                0x0000000083f13988        0x8 net/libnet.o
 .text.PingHandler
                0x0000000083f13990       0x20 net/libnet.o
 .text.NetCopyIP
                0x0000000083f139b0        0xc net/libnet.o
 .text.PingTimeout
                0x0000000083f139bc       0x28 net/libnet.o
 .text.getenv_IPaddr
                0x0000000083f139e4       0x20 net/libnet.o
 .text.net_auto_load
                0x0000000083f13a04       0x4c net/libnet.o
                0x0000000083f13a04                net_auto_load
 .text.NetStartAgain
                0x0000000083f13a50      0x150 net/libnet.o
                0x0000000083f13a50                NetStartAgain
 .text.NetSetHandler
                0x0000000083f13ba0        0xc net/libnet.o
                0x0000000083f13ba0                NetSetHandler
 .text.NetSetTimeout
                0x0000000083f13bac       0x4c net/libnet.o
                0x0000000083f13bac                NetSetTimeout
 .text.NetSendPacket
                0x0000000083f13bf8        0x8 net/libnet.o
                0x0000000083f13bf8                NetSendPacket
 .text.NetCksum
                0x0000000083f13c00       0x38 net/libnet.o
                0x0000000083f13c00                NetCksum
 .text.NetCksumOk
                0x0000000083f13c38       0x28 net/libnet.o
                0x0000000083f13c38                NetCksumOk
 .text.NetEthHdrSize
                0x0000000083f13c60       0x2c net/libnet.o
                0x0000000083f13c60                NetEthHdrSize
 .text.NetSetEther
                0x0000000083f13c8c       0x94 net/libnet.o
                0x0000000083f13c8c                NetSetEther
 .text.ArpRequest
                0x0000000083f13d20      0x12c net/libnet.o
                0x0000000083f13d20                ArpRequest
 .text.ArpTimeoutCheck
                0x0000000083f13e4c       0x98 net/libnet.o
                0x0000000083f13e4c                ArpTimeoutCheck
 .text.PingSend
                0x0000000083f13ee4      0x168 net/libnet.o
                0x0000000083f13ee4                PingSend
 .text.NetReceive
                0x0000000083f1404c      0x4b0 net/libnet.o
                0x0000000083f1404c                NetReceive
 .text.NetSetIP
                0x0000000083f144fc       0xe8 net/libnet.o
                0x0000000083f144fc                NetSetIP
 .text.NetSendUDPPacket
                0x0000000083f145e4      0x194 net/libnet.o
                0x0000000083f145e4                NetSendUDPPacket
 .text.copy_filename
                0x0000000083f14778       0x4c net/libnet.o
                0x0000000083f14778                copy_filename
 .text.ip_to_string
                0x0000000083f147c4       0x40 net/libnet.o
                0x0000000083f147c4                ip_to_string
 .text.string_to_VLAN
                0x0000000083f14804       0x54 net/libnet.o
                0x0000000083f14804                string_to_VLAN
 .text.getenv_VLAN
                0x0000000083f14858       0x20 net/libnet.o
                0x0000000083f14858                getenv_VLAN
 .text.NetLoop  0x0000000083f14878      0x4e4 net/libnet.o
                0x0000000083f14878                NetLoop
 .text.TftpSend
                0x0000000083f14d5c      0x1cc net/libnet.o
 .text.TftpHandler
                0x0000000083f14f28      0x35c net/libnet.o
 .text.TftpTimeout
                0x0000000083f15284       0x8c net/libnet.o
 .text.TftpStart
                0x0000000083f15310      0x324 net/libnet.o
                0x0000000083f15310                TftpStart
 .text.initdram
                0x0000000083f15634       0xcc board/Realtek/rtl838x/librtl838x.o
                0x0000000083f15634                initdram
 .text.checkboard
                0x0000000083f15700       0x7c board/Realtek/rtl838x/librtl838x.o
                0x0000000083f15700                checkboard
 .text.do_dram_test
                0x0000000083f1577c       0x14 board/Realtek/rtl838x/librtl838x.o
                0x0000000083f1577c                do_dram_test
 .text.__random32
                0x0000000083f15790       0x84 board/Realtek/rtl838x/librtl838x.o
 .text.dram_normal_patterns
                0x0000000083f15814      0x198 board/Realtek/rtl838x/librtl838x.o
                0x0000000083f15814                dram_normal_patterns
 .text.dram_walking_of_1
                0x0000000083f159ac      0x194 board/Realtek/rtl838x/librtl838x.o
                0x0000000083f159ac                dram_walking_of_1
 .text.dram_walking_of_0
                0x0000000083f15b40      0x198 board/Realtek/rtl838x/librtl838x.o
                0x0000000083f15b40                dram_walking_of_0
 .text.dram_addr_rot
                0x0000000083f15cd8      0x1e8 board/Realtek/rtl838x/librtl838x.o
                0x0000000083f15cd8                dram_addr_rot
 .text.dram_com_addr_rot
                0x0000000083f15ec0      0x1f4 board/Realtek/rtl838x/librtl838x.o
                0x0000000083f15ec0                dram_com_addr_rot
 .text.dram_half_word_access
                0x0000000083f160b4      0x1a4 board/Realtek/rtl838x/librtl838x.o
                0x0000000083f160b4                dram_half_word_access
 .text.dram_byte_access
                0x0000000083f16258      0x1b4 board/Realtek/rtl838x/librtl838x.o
                0x0000000083f16258                dram_byte_access
 .text.memcpy_test
                0x0000000083f1640c      0x1b0 board/Realtek/rtl838x/librtl838x.o
                0x0000000083f1640c                memcpy_test
 .text.unaligned_test
                0x0000000083f165bc      0x490 board/Realtek/rtl838x/librtl838x.o
                0x0000000083f165bc                unaligned_test
 .text.disable_DRAM_prefech
                0x0000000083f16a4c       0x50 board/Realtek/rtl838x/librtl838x.o
                0x0000000083f16a4c                disable_DRAM_prefech
 .text.enable_DRAM_prefech
                0x0000000083f16a9c       0x6c board/Realtek/rtl838x/librtl838x.o
                0x0000000083f16a9c                enable_DRAM_prefech
 .text.cache_flush_adj_addr
                0x0000000083f16b08      0x154 board/Realtek/rtl838x/librtl838x.o
                0x0000000083f16b08                cache_flush_adj_addr
 .text.cache_flush_adjacent
                0x0000000083f16c5c      0x23c board/Realtek/rtl838x/librtl838x.o
                0x0000000083f16c5c                cache_flush_adjacent
 .text.cache_flush_dispersed
                0x0000000083f16e98      0x3b4 board/Realtek/rtl838x/librtl838x.o
                0x0000000083f16e98                cache_flush_dispersed
 .text.cache_flush_adjacent_toggle_word
                0x0000000083f1724c      0x17c board/Realtek/rtl838x/librtl838x.o
                0x0000000083f1724c                cache_flush_adjacent_toggle_word
 .text.cache_flush_dispersed_toggle_word
                0x0000000083f173c8      0x2f4 board/Realtek/rtl838x/librtl838x.o
                0x0000000083f173c8                cache_flush_dispersed_toggle_word
 .text.cache_flush_adjacent_toggle_line128
                0x0000000083f176bc      0x25c board/Realtek/rtl838x/librtl838x.o
                0x0000000083f176bc                cache_flush_adjacent_toggle_line128
 .text.cache_flush_test
                0x0000000083f17918      0x394 board/Realtek/rtl838x/librtl838x.o
                0x0000000083f17918                cache_flush_test
 .text._dram_test
                0x0000000083f17cac      0x2a0 board/Realtek/rtl838x/librtl838x.o
                0x0000000083f17cac                _dram_test
 .text.dram_test
                0x0000000083f17f4c      0x350 board/Realtek/rtl838x/librtl838x.o
                0x0000000083f17f4c                dram_test
 .text.uboot_sdk_init
                0x0000000083f1829c       0x9c board/Realtek/rtl838x/librtl838x.o
                0x0000000083f1829c                uboot_sdk_init
 .text.misc_init_r
                0x0000000083f18338        0x8 board/Realtek/rtl838x/librtl838x.o
                0x0000000083f18338                misc_init_r
 .text.sys_envmatch
                0x0000000083f18340       0x64 board/Realtek/rtl838x/librtl838x.o
 .text.sysinfo_mem_init
                0x0000000083f183a4       0x48 board/Realtek/rtl838x/librtl838x.o
                0x0000000083f183a4                sysinfo_mem_init
 .text.do_printsys
                0x0000000083f183ec      0x244 board/Realtek/rtl838x/librtl838x.o
                0x0000000083f183ec                do_printsys
 .text._do_setsys
                0x0000000083f18630      0x244 board/Realtek/rtl838x/librtl838x.o
                0x0000000083f18630                _do_setsys
 .text.do_setsys
                0x0000000083f18874       0x44 board/Realtek/rtl838x/librtl838x.o
                0x0000000083f18874                do_setsys
 .text.setsys   0x0000000083f188b8       0x48 board/Realtek/rtl838x/librtl838x.o
                0x0000000083f188b8                setsys
 .text.getsys   0x0000000083f18900       0xa8 board/Realtek/rtl838x/librtl838x.o
                0x0000000083f18900                getsys
 .text.savesys  0x0000000083f189a8       0xfc board/Realtek/rtl838x/librtl838x.o
                0x0000000083f189a8                savesys
 .text.do_savesys
                0x0000000083f18aa4        0x8 board/Realtek/rtl838x/librtl838x.o
                0x0000000083f18aa4                do_savesys
 .text._tftpDownloadFile
                0x0000000083f18aac       0xec board/Realtek/rtl838x/librtl838x.o
 .text._write2flash
                0x0000000083f18b98      0x1d0 board/Realtek/rtl838x/librtl838x.o
 .text.sdk_get_paritition_info
                0x0000000083f18d68      0x1bc board/Realtek/rtl838x/librtl838x.o
                0x0000000083f18d68                sdk_get_paritition_info
 .text.flash_partition_size_ret
                0x0000000083f18f24       0x2c board/Realtek/rtl838x/librtl838x.o
                0x0000000083f18f24                flash_partition_size_ret
 .text._loaderCheck.constprop.3
                0x0000000083f18f50      0x1e8 board/Realtek/rtl838x/librtl838x.o
 .text.flash_partition_addr_ret
                0x0000000083f19138       0x2c board/Realtek/rtl838x/librtl838x.o
                0x0000000083f19138                flash_partition_addr_ret
 .text.upgrade_loader
                0x0000000083f19164       0xe4 board/Realtek/rtl838x/librtl838x.o
                0x0000000083f19164                upgrade_loader
 .text.upgrade_runtime
                0x0000000083f19248      0x1cc board/Realtek/rtl838x/librtl838x.o
                0x0000000083f19248                upgrade_runtime
 .text.upgrade_rom
                0x0000000083f19414      0x28c board/Realtek/rtl838x/librtl838x.o
                0x0000000083f19414                upgrade_rom
 .text.do_upgrade
                0x0000000083f196a0      0x2bc board/Realtek/rtl838x/librtl838x.o
                0x0000000083f196a0                do_upgrade
 .text.do_partshow
                0x0000000083f1995c      0x110 board/Realtek/rtl838x/librtl838x.o
                0x0000000083f1995c                do_partshow
 .text.do_parterase
                0x0000000083f19a6c      0x118 board/Realtek/rtl838x/librtl838x.o
                0x0000000083f19a6c                do_parterase
 .text.do_rtk   0x0000000083f19b84     0x105c board/Realtek/rtl838x/librtl838x.o
                0x0000000083f19b84                do_rtk
 .text.rtk_network_on
                0x0000000083f1abe0      0x1d4 board/Realtek/rtl838x/librtl838x.o
                0x0000000083f1abe0                rtk_network_on
 .text.rtk_network_off
                0x0000000083f1adb4      0x10c board/Realtek/rtl838x/librtl838x.o
                0x0000000083f1adb4                rtk_network_off
 .text.rtk_hwProfileList_show
                0x0000000083f1aec0        0x8 board/Realtek/rtl838x/librtl838x.o
                0x0000000083f1aec0                rtk_hwProfileList_show
 .text.rtk_forcelinkDown10Gserdes
                0x0000000083f1aec8        0x8 board/Realtek/rtl838x/librtl838x.o
                0x0000000083f1aec8                rtk_forcelinkDown10Gserdes
 .text._rtk_comboport_media_set
                0x0000000083f1aed0      0x108 board/Realtek/rtl838x/librtl838x.o
                0x0000000083f1aed0                _rtk_comboport_media_set
 .text.rtk_comboport_fiber
                0x0000000083f1afd8       0x14 board/Realtek/rtl838x/librtl838x.o
                0x0000000083f1afd8                rtk_comboport_fiber
 .text.rtk_comboport_copper
                0x0000000083f1afec       0x14 board/Realtek/rtl838x/librtl838x.o
                0x0000000083f1afec                rtk_comboport_copper
 .text.rtk_saLearning
                0x0000000083f1b000      0x100 board/Realtek/rtl838x/librtl838x.o
                0x0000000083f1b000                rtk_saLearning
 .text.rtk_port_isolation_on
                0x0000000083f1b100      0x20c board/Realtek/rtl838x/librtl838x.o
                0x0000000083f1b100                rtk_port_isolation_on
 .text.rtk_port_isolation_off
                0x0000000083f1b30c      0x174 board/Realtek/rtl838x/librtl838x.o
                0x0000000083f1b30c                rtk_port_isolation_off
 .text.rtk_intGpio_pin_set
                0x0000000083f1b480       0xac board/Realtek/rtl838x/librtl838x.o
                0x0000000083f1b480                rtk_intGpio_pin_set
 .text.rtk_intGpio_pin_get
                0x0000000083f1b52c       0xac board/Realtek/rtl838x/librtl838x.o
                0x0000000083f1b52c                rtk_intGpio_pin_get
 .text.rtk_extGpio_device_init
                0x0000000083f1b5d8       0x98 board/Realtek/rtl838x/librtl838x.o
                0x0000000083f1b5d8                rtk_extGpio_device_init
 .text.rtk_extGpio_pin_set
                0x0000000083f1b670       0x90 board/Realtek/rtl838x/librtl838x.o
                0x0000000083f1b670                rtk_extGpio_pin_set
 .text.rtk_extGpio_pin_get
                0x0000000083f1b700       0x90 board/Realtek/rtl838x/librtl838x.o
                0x0000000083f1b700                rtk_extGpio_pin_get
 .text.rtk_swled_init
                0x0000000083f1b790       0xb0 board/Realtek/rtl838x/librtl838x.o
                0x0000000083f1b790                rtk_swled_init
 .text.rtk_swled_out
                0x0000000083f1b840      0x194 board/Realtek/rtl838x/librtl838x.o
                0x0000000083f1b840                rtk_swled_out
 .text.rtk_swled_uninit
                0x0000000083f1b9d4       0x58 board/Realtek/rtl838x/librtl838x.o
                0x0000000083f1b9d4                rtk_swled_uninit
 .text.rtk_swledtest_on
                0x0000000083f1ba2c      0x280 board/Realtek/rtl838x/librtl838x.o
                0x0000000083f1ba2c                rtk_swledtest_on
 .text.rtk_ledTest_run
                0x0000000083f1bcac      0x454 board/Realtek/rtl838x/librtl838x.o
                0x0000000083f1bcac                rtk_ledTest_run
 .text.rtk_phyreg_get
                0x0000000083f1c100       0xfc board/Realtek/rtl838x/librtl838x.o
                0x0000000083f1c100                rtk_phyreg_get
 .text.rtk_phyreg_set
                0x0000000083f1c1fc      0x11c board/Realtek/rtl838x/librtl838x.o
                0x0000000083f1c1fc                rtk_phyreg_set
 .text.rtk_phymmd_get
                0x0000000083f1c318       0xc0 board/Realtek/rtl838x/librtl838x.o
                0x0000000083f1c318                rtk_phymmd_get
 .text.rtk_phymmd_set
                0x0000000083f1c3d8       0xd0 board/Realtek/rtl838x/librtl838x.o
                0x0000000083f1c3d8                rtk_phymmd_set
 .text.rtk_sdsreg_get
                0x0000000083f1c4a8       0xc0 board/Realtek/rtl838x/librtl838x.o
                0x0000000083f1c4a8                rtk_sdsreg_get
 .text.rtk_sdsreg_set
                0x0000000083f1c568       0xd0 board/Realtek/rtl838x/librtl838x.o
                0x0000000083f1c568                rtk_sdsreg_set
 .text.rtk_phyreg_portmask_set
                0x0000000083f1c638      0x1b8 board/Realtek/rtl838x/librtl838x.o
                0x0000000083f1c638                rtk_phyreg_portmask_set
 .text.rtk_phyreg_dump_top
                0x0000000083f1c7f0       0x64 board/Realtek/rtl838x/librtl838x.o
                0x0000000083f1c7f0                rtk_phyreg_dump_top
 .text.rtk_l2testmode_on
                0x0000000083f1c854       0x80 board/Realtek/rtl838x/librtl838x.o
                0x0000000083f1c854                rtk_l2testmode_on
 .text.rtk_l2testmode_off
                0x0000000083f1c8d4       0x48 board/Realtek/rtl838x/librtl838x.o
                0x0000000083f1c8d4                rtk_l2testmode_off
 .text.rtk_phy_testmode
                0x0000000083f1c91c      0x128 board/Realtek/rtl838x/librtl838x.o
                0x0000000083f1c91c                rtk_phy_testmode
 .text.rtk_i2c_sw_init
                0x0000000083f1ca44      0x2a8 board/Realtek/rtl838x/librtl838x.o
                0x0000000083f1ca44                rtk_i2c_sw_init
 .text.rtk_i2c_hw_init
                0x0000000083f1ccec      0x110 board/Realtek/rtl838x/librtl838x.o
                0x0000000083f1ccec                rtk_i2c_hw_init
 .text.rtk_i2c_read
                0x0000000083f1cdfc       0x60 board/Realtek/rtl838x/librtl838x.o
                0x0000000083f1cdfc                rtk_i2c_read
 .text.rtk_i2c_write
                0x0000000083f1ce5c       0x68 board/Realtek/rtl838x/librtl838x.o
                0x0000000083f1ce5c                rtk_i2c_write
 .text.rtk_boardId_get
                0x0000000083f1cec4       0x34 board/Realtek/rtl838x/librtl838x.o
                0x0000000083f1cec4                rtk_boardId_get
 .text.rtk_boardId_set
                0x0000000083f1cef8       0x54 board/Realtek/rtl838x/librtl838x.o
                0x0000000083f1cef8                rtk_boardId_set
 .text.rtk_boardModel_get
                0x0000000083f1cf4c       0x34 board/Realtek/rtl838x/librtl838x.o
                0x0000000083f1cf4c                rtk_boardModel_get
 .text.rtk_boardModel_set
                0x0000000083f1cf80       0x30 board/Realtek/rtl838x/librtl838x.o
                0x0000000083f1cf80                rtk_boardModel_set
 .text._rtk_10gMedia_set
                0x0000000083f1cfb0       0xa0 board/Realtek/rtl838x/librtl838x.o
                0x0000000083f1cfb0                _rtk_10gMedia_set
 .text.rtk_10gMedia_none_set
                0x0000000083f1d050        0xc board/Realtek/rtl838x/librtl838x.o
                0x0000000083f1d050                rtk_10gMedia_none_set
 .text.rtk_10gMedia_fiber10g_set
                0x0000000083f1d05c        0xc board/Realtek/rtl838x/librtl838x.o
                0x0000000083f1d05c                rtk_10gMedia_fiber10g_set
 .text.rtk_10gMedia_fiber1g_set
                0x0000000083f1d068        0xc board/Realtek/rtl838x/librtl838x.o
                0x0000000083f1d068                rtk_10gMedia_fiber1g_set
 .text.rtk_10gMedia_dac50cm_set
                0x0000000083f1d074        0xc board/Realtek/rtl838x/librtl838x.o
                0x0000000083f1d074                rtk_10gMedia_dac50cm_set
 .text.rtk_10gMedia_dac100cm_set
                0x0000000083f1d080        0xc board/Realtek/rtl838x/librtl838x.o
                0x0000000083f1d080                rtk_10gMedia_dac100cm_set
 .text.rtk_10gMedia_dac300cm_set
                0x0000000083f1d08c        0xc board/Realtek/rtl838x/librtl838x.o
                0x0000000083f1d08c                rtk_10gMedia_dac300cm_set
 .text.rtk_mac_sdsMode_set
                0x0000000083f1d098       0x10 board/Realtek/rtl838x/librtl838x.o
                0x0000000083f1d098                rtk_mac_sdsMode_set
 .text.rtcore_init
                0x0000000083f1d0a8      0x29c board/Realtek/rtl838x/librtl838x.o
                0x0000000083f1d0a8                rtcore_init
 .text._hwp_portCount_add
                0x0000000083f1d344       0x34 board/Realtek/rtl838x/librtl838x.o
 .text._hwp_portMaskAll_default
                0x0000000083f1d378       0xc0 board/Realtek/rtl838x/librtl838x.o
 .text._hwp_parsedInfo_default
                0x0000000083f1d438      0x1f8 board/Realtek/rtl838x/librtl838x.o
                0x0000000083f1d438                _hwp_parsedInfo_default
 .text._hwp_chip_parse
                0x0000000083f1d630      0x440 board/Realtek/rtl838x/librtl838x.o
                0x0000000083f1d630                _hwp_chip_parse
 .text._hwp_port_parse
                0x0000000083f1da70      0x98c board/Realtek/rtl838x/librtl838x.o
                0x0000000083f1da70                _hwp_port_parse
 .text._hwp_serdes_parse
                0x0000000083f1e3fc      0x3b4 board/Realtek/rtl838x/librtl838x.o
                0x0000000083f1e3fc                _hwp_serdes_parse
 .text._hwp_led_parse
                0x0000000083f1e7b0      0x3a8 board/Realtek/rtl838x/librtl838x.o
                0x0000000083f1e7b0                _hwp_led_parse
 .text._hwp_cascade_parse
                0x0000000083f1eb58       0xa4 board/Realtek/rtl838x/librtl838x.o
                0x0000000083f1eb58                _hwp_cascade_parse
 .text._hwp_info_parse
                0x0000000083f1ebfc       0x6c board/Realtek/rtl838x/librtl838x.o
                0x0000000083f1ebfc                _hwp_info_parse
 .text.hwp_parsedInfo_buildup
                0x0000000083f1ec68       0xbc board/Realtek/rtl838x/librtl838x.o
                0x0000000083f1ec68                hwp_parsedInfo_buildup
 .text.hwp_unit_attach
                0x0000000083f1ed24       0xf0 board/Realtek/rtl838x/librtl838x.o
                0x0000000083f1ed24                hwp_unit_attach
 .text.hwp_init_sys
                0x0000000083f1ee14      0x248 board/Realtek/rtl838x/librtl838x.o
                0x0000000083f1ee14                hwp_init_sys
 .text.hwp_init
                0x0000000083f1f05c       0x94 board/Realtek/rtl838x/librtl838x.o
                0x0000000083f1f05c                hwp_init
 .text.hwp_profilePhy_del
                0x0000000083f1f0f0      0x164 board/Realtek/rtl838x/librtl838x.o
                0x0000000083f1f0f0                hwp_profilePhy_del
 .text.hwp_profilePhy_update
                0x0000000083f1f254       0x84 board/Realtek/rtl838x/librtl838x.o
                0x0000000083f1f254                hwp_profilePhy_update
 .text.hwp_portmaskValid_Chk
                0x0000000083f1f2d8       0x58 board/Realtek/rtl838x/librtl838x.o
                0x0000000083f1f2d8                hwp_portmaskValid_Chk
 .text._hwp_portInUplink_check
                0x0000000083f1f330       0x38 board/Realtek/rtl838x/librtl838x.o
                0x0000000083f1f330                _hwp_portInUplink_check
 .text.hwp_forcedProfile_get
                0x0000000083f1f368       0x9c board/Realtek/rtl838x/librtl838x.o
                0x0000000083f1f368                hwp_forcedProfile_get
 .text.hwp_identifier_cmp
                0x0000000083f1f404       0x7c board/Realtek/rtl838x/librtl838x.o
                0x0000000083f1f404                hwp_identifier_cmp
 .text.hwp_chipInfo_update
                0x0000000083f1f480       0xc0 board/Realtek/rtl838x/librtl838x.o
                0x0000000083f1f480                hwp_chipInfo_update
 .text.hwp_defaultProfilePort_update
                0x0000000083f1f540       0x80 board/Realtek/rtl838x/librtl838x.o
                0x0000000083f1f540                hwp_defaultProfilePort_update
 .text.hwp_defaultProfilePort_build
                0x0000000083f1f5c0      0x198 board/Realtek/rtl838x/librtl838x.o
                0x0000000083f1f5c0                hwp_defaultProfilePort_build
 .text.hwp_defaultProfilePhy_build
                0x0000000083f1f758       0x58 board/Realtek/rtl838x/librtl838x.o
                0x0000000083f1f758                hwp_defaultProfilePhy_build
 .text.hwp_defaultProfile_build
                0x0000000083f1f7b0      0x260 board/Realtek/rtl838x/librtl838x.o
                0x0000000083f1f7b0                hwp_defaultProfile_build
 .text.hwp_profileList_show
                0x0000000083f1fa10       0xa8 board/Realtek/rtl838x/librtl838x.o
                0x0000000083f1fa10                hwp_profileList_show
 .text.hwp_probeFailure_handler
                0x0000000083f1fab8       0x2c board/Realtek/rtl838x/librtl838x.o
                0x0000000083f1fab8                hwp_probeFailure_handler
 .text.hwp_profile_find
                0x0000000083f1fae4       0x68 board/Realtek/rtl838x/librtl838x.o
                0x0000000083f1fae4                hwp_profile_find
 .text._hwp_hwpDatabaseDefault_init
                0x0000000083f1fb4c       0x54 board/Realtek/rtl838x/librtl838x.o
                0x0000000083f1fb4c                _hwp_hwpDatabaseDefault_init
 .text.hwp_probe
                0x0000000083f1fba0      0x160 board/Realtek/rtl838x/librtl838x.o
                0x0000000083f1fba0                hwp_probe
 .text.ioal_init_memRegion_get
                0x0000000083f1fd00       0x6c board/Realtek/rtl838x/librtl838x.o
                0x0000000083f1fd00                ioal_init_memRegion_get
 .text.ioal_init
                0x0000000083f1fd6c       0x84 board/Realtek/rtl838x/librtl838x.o
                0x0000000083f1fd6c                ioal_init
 .text.ioal_init_unitID_change
                0x0000000083f1fdf0       0xa4 board/Realtek/rtl838x/librtl838x.o
                0x0000000083f1fdf0                ioal_init_unitID_change
 .text.ioal_param_hwpIdKey_get
                0x0000000083f1fe94      0x120 board/Realtek/rtl838x/librtl838x.o
                0x0000000083f1fe94                ioal_param_hwpIdKey_get
 .text.ioal_param_phyXfmrRj45Impd_get
                0x0000000083f1ffb4       0x10 board/Realtek/rtl838x/librtl838x.o
                0x0000000083f1ffb4                ioal_param_phyXfmrRj45Impd_get
 .text.ioal_mem32_check
                0x0000000083f1ffc4       0x40 board/Realtek/rtl838x/librtl838x.o
                0x0000000083f1ffc4                ioal_mem32_check
 .text.ioal_mem32_read
                0x0000000083f20004      0x164 board/Realtek/rtl838x/librtl838x.o
                0x0000000083f20004                ioal_mem32_read
 .text.ioal_mem32_write
                0x0000000083f20168      0x138 board/Realtek/rtl838x/librtl838x.o
                0x0000000083f20168                ioal_mem32_write
 .text.ioal_mem32_field_read
                0x0000000083f202a0       0x4c board/Realtek/rtl838x/librtl838x.o
                0x0000000083f202a0                ioal_mem32_field_read
 .text.ioal_mem32_field_write
                0x0000000083f202ec       0x80 board/Realtek/rtl838x/librtl838x.o
                0x0000000083f202ec                ioal_mem32_field_write
 .text.ioal_soc_mem32_read
                0x0000000083f2036c       0x4c board/Realtek/rtl838x/librtl838x.o
                0x0000000083f2036c                ioal_soc_mem32_read
 .text.ioal_soc_mem32_write
                0x0000000083f203b8       0x48 board/Realtek/rtl838x/librtl838x.o
                0x0000000083f203b8                ioal_soc_mem32_write
 .text.rt_bsp_phy_reset
                0x0000000083f20400      0x1d4 board/Realtek/rtl838x/librtl838x.o
                0x0000000083f20400                rt_bsp_phy_reset
 .text.ioal_phy_reset
                0x0000000083f205d4        0x8 board/Realtek/rtl838x/librtl838x.o
                0x0000000083f205d4                ioal_phy_reset
 .text.osal_time_usleep
                0x0000000083f205dc        0x8 board/Realtek/rtl838x/librtl838x.o
                0x0000000083f205dc                osal_time_usleep
 .text.osal_time_udelay
                0x0000000083f205e4       0x48 board/Realtek/rtl838x/librtl838x.o
                0x0000000083f205e4                osal_time_udelay
 .text.osal_time_mdelay
                0x0000000083f2062c        0x8 board/Realtek/rtl838x/librtl838x.o
                0x0000000083f2062c                osal_time_mdelay
 .text.osal_time_usecs_get
                0x0000000083f20634       0x38 board/Realtek/rtl838x/librtl838x.o
                0x0000000083f20634                osal_time_usecs_get
 .text.osal_alloc
                0x0000000083f2066c        0x8 board/Realtek/rtl838x/librtl838x.o
                0x0000000083f2066c                osal_alloc
 .text.osal_free
                0x0000000083f20674        0x8 board/Realtek/rtl838x/librtl838x.o
                0x0000000083f20674                osal_free
 .text.osal_sem_mutex_create
                0x0000000083f2067c        0x8 board/Realtek/rtl838x/librtl838x.o
                0x0000000083f2067c                osal_sem_mutex_create
 .text.osal_sem_mutex_take
                0x0000000083f20684        0x8 board/Realtek/rtl838x/librtl838x.o
                0x0000000083f20684                osal_sem_mutex_take
 .text.osal_sem_mutex_give
                0x0000000083f2068c        0x8 board/Realtek/rtl838x/librtl838x.o
                0x0000000083f2068c                osal_sem_mutex_give
 .text.osal_cache_memory_flush
                0x0000000083f20694       0x20 board/Realtek/rtl838x/librtl838x.o
                0x0000000083f20694                osal_cache_memory_flush
 .text.drv_swcore_reg32_read
                0x0000000083f206b4       0x10 board/Realtek/rtl838x/librtl838x.o
                0x0000000083f206b4                drv_swcore_reg32_read
 .text.drv_swcore_reg32_write
                0x0000000083f206c4       0x10 board/Realtek/rtl838x/librtl838x.o
                0x0000000083f206c4                drv_swcore_reg32_write
 .text._drv_swcore_cid8380_get
                0x0000000083f206d4      0x1ac board/Realtek/rtl838x/librtl838x.o
 .text.drv_swcore_earlyInit_end
                0x0000000083f20880        0xc board/Realtek/rtl838x/librtl838x.o
                0x0000000083f20880                drv_swcore_earlyInit_end
 .text.drv_swcore_ioalCB_register
                0x0000000083f2088c       0x14 board/Realtek/rtl838x/librtl838x.o
                0x0000000083f2088c                drv_swcore_ioalCB_register
 .text.drv_swcore_chipFamilyId_get
                0x0000000083f208a0       0x20 board/Realtek/rtl838x/librtl838x.o
                0x0000000083f208a0                drv_swcore_chipFamilyId_get
 .text.drv_swcore_cid_get
                0x0000000083f208c0       0x3c board/Realtek/rtl838x/librtl838x.o
                0x0000000083f208c0                drv_swcore_cid_get
 .text.nic_probe
                0x0000000083f208fc       0xc0 board/Realtek/rtl838x/librtl838x.o
                0x0000000083f208fc                nic_probe
 .text._nic_ringInfo_get
                0x0000000083f209bc       0x34 board/Realtek/rtl838x/librtl838x.o
                0x0000000083f209bc                _nic_ringInfo_get
 .text._nic_cpuPortTxRxEnable_set
                0x0000000083f209f0       0x34 board/Realtek/rtl838x/librtl838x.o
                0x0000000083f209f0                _nic_cpuPortTxRxEnable_set
 .text._nic_intrMask_get
                0x0000000083f20a24       0x34 board/Realtek/rtl838x/librtl838x.o
                0x0000000083f20a24                _nic_intrMask_get
 .text._nic_intrMask_set
                0x0000000083f20a58       0x34 board/Realtek/rtl838x/librtl838x.o
                0x0000000083f20a58                _nic_intrMask_set
 .text._nic_intrSts_get
                0x0000000083f20a8c       0x34 board/Realtek/rtl838x/librtl838x.o
                0x0000000083f20a8c                _nic_intrSts_get
 .text._nic_intrSts_set
                0x0000000083f20ac0       0x34 board/Realtek/rtl838x/librtl838x.o
                0x0000000083f20ac0                _nic_intrSts_set
 .text._nic_swQueRst_get
                0x0000000083f20af4       0x34 board/Realtek/rtl838x/librtl838x.o
                0x0000000083f20af4                _nic_swQueRst_get
 .text._nic_swQueRst_set
                0x0000000083f20b28       0x34 board/Realtek/rtl838x/librtl838x.o
                0x0000000083f20b28                _nic_swQueRst_set
 .text._nic_cpuL2FloodMask_add
                0x0000000083f20b5c       0x34 board/Realtek/rtl838x/librtl838x.o
                0x0000000083f20b5c                _nic_cpuL2FloodMask_add
 .text._nic_cpuForceLinkupEnable_set
                0x0000000083f20b90       0x34 board/Realtek/rtl838x/librtl838x.o
                0x0000000083f20b90                _nic_cpuForceLinkupEnable_set
 .text._nic_holRingSize_set
                0x0000000083f20bc4       0x34 board/Realtek/rtl838x/librtl838x.o
                0x0000000083f20bc4                _nic_holRingSize_set
 .text._nic_ntfyBaseAddr_get
                0x0000000083f20bf8       0x34 board/Realtek/rtl838x/librtl838x.o
                0x0000000083f20bf8                _nic_ntfyBaseAddr_get
 .text._nic_ntfyBaseAddr_set
                0x0000000083f20c2c       0x34 board/Realtek/rtl838x/librtl838x.o
                0x0000000083f20c2c                _nic_ntfyBaseAddr_set
 .text._nic_ringBaseAddr_set
                0x0000000083f20c60       0x34 board/Realtek/rtl838x/librtl838x.o
                0x0000000083f20c60                _nic_ringBaseAddr_set
 .text._nic_ringCurAddr_get
                0x0000000083f20c94       0x34 board/Realtek/rtl838x/librtl838x.o
                0x0000000083f20c94                _nic_ringCurAddr_get
 .text._nic_isr_mbRoutine
                0x0000000083f20cc8      0x220 board/Realtek/rtl838x/librtl838x.o
 .text._nic_rxTruncateLength_set
                0x0000000083f20ee8       0x34 board/Realtek/rtl838x/librtl838x.o
                0x0000000083f20ee8                _nic_rxTruncateLength_set
 .text._nic_nicEnable_set
                0x0000000083f20f1c       0x34 board/Realtek/rtl838x/librtl838x.o
                0x0000000083f20f1c                _nic_nicEnable_set
 .text._nic_nicTxFetch_set
                0x0000000083f20f50       0x34 board/Realtek/rtl838x/librtl838x.o
                0x0000000083f20f50                _nic_nicTxFetch_set
 .text._nic_cpuTagId_get
                0x0000000083f20f84       0x34 board/Realtek/rtl838x/librtl838x.o
                0x0000000083f20f84                _nic_cpuTagId_get
 .text._nic_supportJumboSize_get
                0x0000000083f20fb8       0x34 board/Realtek/rtl838x/librtl838x.o
                0x0000000083f20fb8                _nic_supportJumboSize_get
 .text._nic_init
                0x0000000083f20fec      0xbdc board/Realtek/rtl838x/librtl838x.o
 .text._nic_cpuTagFromRaw_cnvt
                0x0000000083f21bc8       0x34 board/Realtek/rtl838x/librtl838x.o
                0x0000000083f21bc8                _nic_cpuTagFromRaw_cnvt
 .text._nic_cpuTagToRaw_cnvt
                0x0000000083f21bfc       0x34 board/Realtek/rtl838x/librtl838x.o
                0x0000000083f21bfc                _nic_cpuTagToRaw_cnvt
 .text._nic_cpuTag_dump
                0x0000000083f21c30       0x34 board/Realtek/rtl838x/librtl838x.o
                0x0000000083f21c30                _nic_cpuTag_dump
 .text._nic_rawTag_dump
                0x0000000083f21c64       0x34 board/Realtek/rtl838x/librtl838x.o
                0x0000000083f21c64                _nic_rawTag_dump
 .text._nic_isr_rxRoutine
                0x0000000083f21c98      0x7b8 board/Realtek/rtl838x/librtl838x.o
                0x0000000083f21c98                _nic_isr_rxRoutine
 .text._nic_isr_txRoutine
                0x0000000083f22450      0x19c board/Realtek/rtl838x/librtl838x.o
                0x0000000083f22450                _nic_isr_txRoutine
 .text.drv_nic_isr_handler
                0x0000000083f225ec      0x150 board/Realtek/rtl838x/librtl838x.o
                0x0000000083f225ec                drv_nic_isr_handler
 .text._nic_pkt_tx
                0x0000000083f2273c      0x348 board/Realtek/rtl838x/librtl838x.o
                0x0000000083f2273c                _nic_pkt_tx
 .text.drv_nic_init
                0x0000000083f22a84       0x88 board/Realtek/rtl838x/librtl838x.o
                0x0000000083f22a84                drv_nic_init
 .text.drv_nic_pkt_tx
                0x0000000083f22b0c       0x8c board/Realtek/rtl838x/librtl838x.o
                0x0000000083f22b0c                drv_nic_pkt_tx
 .text.drv_nic_rx_start
                0x0000000083f22b98       0x44 board/Realtek/rtl838x/librtl838x.o
                0x0000000083f22b98                drv_nic_rx_start
 .text.drv_nic_rx_stop
                0x0000000083f22bdc       0x44 board/Realtek/rtl838x/librtl838x.o
                0x0000000083f22bdc                drv_nic_rx_stop
 .text.drv_nic_rx_register
                0x0000000083f22c20       0x88 board/Realtek/rtl838x/librtl838x.o
                0x0000000083f22c20                drv_nic_rx_register
 .text.swnic_recv
                0x0000000083f22ca8       0x2c board/Realtek/rtl838x/librtl838x.o
                0x0000000083f22ca8                swnic_recv
 .text.swnic_halt
                0x0000000083f22cd4       0x48 board/Realtek/rtl838x/librtl838x.o
                0x0000000083f22cd4                swnic_halt
 .text.uboot_rtnic_pkt_free
                0x0000000083f22d1c       0x88 board/Realtek/rtl838x/librtl838x.o
                0x0000000083f22d1c                uboot_rtnic_pkt_free
 .text.uboot_rtnic_pkt_alloc
                0x0000000083f22da4       0xe8 board/Realtek/rtl838x/librtl838x.o
                0x0000000083f22da4                uboot_rtnic_pkt_alloc
 .text.swnic_send
                0x0000000083f22e8c       0x9c board/Realtek/rtl838x/librtl838x.o
                0x0000000083f22e8c                swnic_send
 .text.uboot_rtnic_rx_callback
                0x0000000083f22f28       0x24 board/Realtek/rtl838x/librtl838x.o
                0x0000000083f22f28                uboot_rtnic_rx_callback
 .text.swnic_init
                0x0000000083f22f4c       0x5c board/Realtek/rtl838x/librtl838x.o
                0x0000000083f22f4c                swnic_init
 .text.osal_isr_register
                0x0000000083f22fa8       0x4c board/Realtek/rtl838x/librtl838x.o
                0x0000000083f22fa8                osal_isr_register
 .text.uboot_rtnic_drv_init
                0x0000000083f22ff4      0x1ac board/Realtek/rtl838x/librtl838x.o
                0x0000000083f22ff4                uboot_rtnic_drv_init
 .text.drv_extGpio_reg_read
                0x0000000083f231a0       0xbc board/Realtek/rtl838x/librtl838x.o
                0x0000000083f231a0                drv_extGpio_reg_read
 .text.drv_extGpio_reg_write
                0x0000000083f2325c      0x118 board/Realtek/rtl838x/librtl838x.o
                0x0000000083f2325c                drv_extGpio_reg_write
 .text.drv_extGpio_dev_init
                0x0000000083f23374      0x104 board/Realtek/rtl838x/librtl838x.o
                0x0000000083f23374                drv_extGpio_dev_init
 .text.drv_extGpio_devEnable_set
                0x0000000083f23478      0x1d4 board/Realtek/rtl838x/librtl838x.o
                0x0000000083f23478                drv_extGpio_devEnable_set
 .text.drv_extGpio_pin_init
                0x0000000083f2364c      0x468 board/Realtek/rtl838x/librtl838x.o
                0x0000000083f2364c                drv_extGpio_pin_init
 .text.drv_extGpio_dataBit_get
                0x0000000083f23ab4      0x1c8 board/Realtek/rtl838x/librtl838x.o
                0x0000000083f23ab4                drv_extGpio_dataBit_get
 .text.drv_extGpio_dataBit_set
                0x0000000083f23c7c      0x1fc board/Realtek/rtl838x/librtl838x.o
                0x0000000083f23c7c                drv_extGpio_dataBit_set
 .text.drv_extGpio_direction_set
                0x0000000083f23e78      0x2b8 board/Realtek/rtl838x/librtl838x.o
                0x0000000083f23e78                drv_extGpio_direction_set
 .text.rtl8231_common_unavail
                0x0000000083f24130        0x8 board/Realtek/rtl838x/librtl838x.o
                0x0000000083f24130                rtl8231_common_unavail
 .text.rtl8231_probe
                0x0000000083f24138       0xd8 board/Realtek/rtl838x/librtl838x.o
                0x0000000083f24138                rtl8231_probe
 .text.drv_rtl8231_i2c_read
                0x0000000083f24210       0x54 board/Realtek/rtl838x/librtl838x.o
                0x0000000083f24210                drv_rtl8231_i2c_read
 .text.drv_rtl8231_i2c_write
                0x0000000083f24264       0x54 board/Realtek/rtl838x/librtl838x.o
                0x0000000083f24264                drv_rtl8231_i2c_write
 .text.drv_rtl8231_mdc_read
                0x0000000083f242b8       0x54 board/Realtek/rtl838x/librtl838x.o
                0x0000000083f242b8                drv_rtl8231_mdc_read
 .text.drv_rtl8231_mdc_write
                0x0000000083f2430c       0x54 board/Realtek/rtl838x/librtl838x.o
                0x0000000083f2430c                drv_rtl8231_mdc_write
 .text.drv_rtl8231_init
                0x0000000083f24360       0x98 board/Realtek/rtl838x/librtl838x.o
                0x0000000083f24360                drv_rtl8231_init
 .text.drv_rtl8231_intrEnable_set
                0x0000000083f243f8       0x54 board/Realtek/rtl838x/librtl838x.o
                0x0000000083f243f8                drv_rtl8231_intrEnable_set
 .text.drv_rtl8231_intrMode_set
                0x0000000083f2444c       0x54 board/Realtek/rtl838x/librtl838x.o
                0x0000000083f2444c                drv_rtl8231_intrMode_set
 .text.drv_rtl8231_extra_dataBit_get
                0x0000000083f244a0       0x34 board/Realtek/rtl838x/librtl838x.o
                0x0000000083f244a0                drv_rtl8231_extra_dataBit_get
 .text.drv_rtl8231_extra_dataBit_set
                0x0000000083f244d4       0x34 board/Realtek/rtl838x/librtl838x.o
                0x0000000083f244d4                drv_rtl8231_extra_dataBit_set
 .text.drv_rtl8231_extra_read
                0x0000000083f24508       0x34 board/Realtek/rtl838x/librtl838x.o
                0x0000000083f24508                drv_rtl8231_extra_read
 .text.drv_rtl8231_extra_write
                0x0000000083f2453c       0x34 board/Realtek/rtl838x/librtl838x.o
                0x0000000083f2453c                drv_rtl8231_extra_write
 .text.drv_rtl8231_extra_devEnable_set
                0x0000000083f24570       0x34 board/Realtek/rtl838x/librtl838x.o
                0x0000000083f24570                drv_rtl8231_extra_devEnable_set
 .text.drv_rtl8231_extra_direction_set
                0x0000000083f245a4       0x34 board/Realtek/rtl838x/librtl838x.o
                0x0000000083f245a4                drv_rtl8231_extra_direction_set
 .text.drv_gpio_init
                0x0000000083f245d8       0xf4 board/Realtek/rtl838x/librtl838x.o
                0x0000000083f245d8                drv_gpio_init
 .text.drv_gpio_direction_set
                0x0000000083f246cc      0x16c board/Realtek/rtl838x/librtl838x.o
                0x0000000083f246cc                drv_gpio_direction_set
 .text.drv_gpio_pin_init
                0x0000000083f24838      0x250 board/Realtek/rtl838x/librtl838x.o
                0x0000000083f24838                drv_gpio_pin_init
 .text.drv_gpio_dataBit_init
                0x0000000083f24a88      0x158 board/Realtek/rtl838x/librtl838x.o
                0x0000000083f24a88                drv_gpio_dataBit_init
 .text.drv_gpio_dataBit_get
                0x0000000083f24be0      0x168 board/Realtek/rtl838x/librtl838x.o
                0x0000000083f24be0                drv_gpio_dataBit_get
 .text.drv_gpio_dataBit_set
                0x0000000083f24d48      0x158 board/Realtek/rtl838x/librtl838x.o
                0x0000000083f24d48                drv_gpio_dataBit_set
 .text.drv_generalCtrlGPIO_dev_init
                0x0000000083f24ea0       0x90 board/Realtek/rtl838x/librtl838x.o
                0x0000000083f24ea0                drv_generalCtrlGPIO_dev_init
 .text.drv_generalCtrlGPIO_devEnable_set
                0x0000000083f24f30       0x3c board/Realtek/rtl838x/librtl838x.o
                0x0000000083f24f30                drv_generalCtrlGPIO_devEnable_set
 .text.drv_generalCtrlGPIO_pin_init
                0x0000000083f24f6c      0x118 board/Realtek/rtl838x/librtl838x.o
                0x0000000083f24f6c                drv_generalCtrlGPIO_pin_init
 .text.drv_generalCtrlGPIO_dataBit_set
                0x0000000083f25084       0x58 board/Realtek/rtl838x/librtl838x.o
                0x0000000083f25084                drv_generalCtrlGPIO_dataBit_set
 .text.drv_generalCtrlGPIO_dataBit_get
                0x0000000083f250dc       0x58 board/Realtek/rtl838x/librtl838x.o
                0x0000000083f250dc                drv_generalCtrlGPIO_dataBit_get
 .text.drv_generalCtrlGPIO_direction_set
                0x0000000083f25134       0x58 board/Realtek/rtl838x/librtl838x.o
                0x0000000083f25134                drv_generalCtrlGPIO_direction_set
 .text.gpio_probe
                0x0000000083f2518c       0xd8 board/Realtek/rtl838x/librtl838x.o
                0x0000000083f2518c                gpio_probe
 .text.drv_spi_init
                0x0000000083f25264       0x6c board/Realtek/rtl838x/librtl838x.o
                0x0000000083f25264                drv_spi_init
 .text.drv_spi_write
                0x0000000083f252d0        0x8 board/Realtek/rtl838x/librtl838x.o
                0x0000000083f252d0                drv_spi_write
 .text.drv_spi_read
                0x0000000083f252d8        0xc board/Realtek/rtl838x/librtl838x.o
                0x0000000083f252d8                drv_spi_read
 .text.drv_i2c_init
                0x0000000083f252e4      0x130 board/Realtek/rtl838x/librtl838x.o
                0x0000000083f252e4                drv_i2c_init
 .text.drv_i2c_dev_init
                0x0000000083f25414      0x158 board/Realtek/rtl838x/librtl838x.o
                0x0000000083f25414                drv_i2c_dev_init
 .text.drv_i2c_write
                0x0000000083f2556c      0x150 board/Realtek/rtl838x/librtl838x.o
                0x0000000083f2556c                drv_i2c_write
 .text.drv_i2c_read
                0x0000000083f256bc      0x150 board/Realtek/rtl838x/librtl838x.o
                0x0000000083f256bc                drv_i2c_read
 .text.i2c_probe
                0x0000000083f2580c       0xc0 board/Realtek/rtl838x/librtl838x.o
                0x0000000083f2580c                i2c_probe
 .text._general_nbits_dev_start
                0x0000000083f258cc      0x10c board/Realtek/rtl838x/librtl838x.o
 .text._general_software_i2c_writeBit
                0x0000000083f259d8      0x12c board/Realtek/rtl838x/librtl838x.o
 .text._general_nbits_dev_stop
                0x0000000083f25b04      0x104 board/Realtek/rtl838x/librtl838x.o
 .text._general_software_i2c_readBit
                0x0000000083f25c08      0x184 board/Realtek/rtl838x/librtl838x.o
 .text.drv_software_i2c_type_set
                0x0000000083f25d8c       0x50 board/Realtek/rtl838x/librtl838x.o
                0x0000000083f25d8c                drv_software_i2c_type_set
 .text._general_nbits_dev_read
                0x0000000083f25ddc      0x1ec board/Realtek/rtl838x/librtl838x.o
                0x0000000083f25ddc                _general_nbits_dev_read
 .text._general_sequential_nbits_dev_read
                0x0000000083f25fc8      0x120 board/Realtek/rtl838x/librtl838x.o
                0x0000000083f25fc8                _general_sequential_nbits_dev_read
 .text._general_nbits_dev_write
                0x0000000083f260e8      0x170 board/Realtek/rtl838x/librtl838x.o
                0x0000000083f260e8                _general_nbits_dev_write
 .text.drv_software_i2c_init
                0x0000000083f26258      0x194 board/Realtek/rtl838x/librtl838x.o
                0x0000000083f26258                drv_software_i2c_init
 .text.drv_software_i2c_write
                0x0000000083f263ec       0xd8 board/Realtek/rtl838x/librtl838x.o
                0x0000000083f263ec                drv_software_i2c_write
 .text.drv_software_i2c_read
                0x0000000083f264c4       0xe4 board/Realtek/rtl838x/librtl838x.o
                0x0000000083f264c4                drv_software_i2c_read
 .text.drv_software_i2c_sequential_read
                0x0000000083f265a8       0xd0 board/Realtek/rtl838x/librtl838x.o
                0x0000000083f265a8                drv_software_i2c_sequential_read
 .text.drv_software_i2c_module_init
                0x0000000083f26678       0x24 board/Realtek/rtl838x/librtl838x.o
                0x0000000083f26678                drv_software_i2c_module_init
 .text.rt_chip_familyIndex_get
                0x0000000083f2669c       0x98 board/Realtek/rtl838x/librtl838x.o
                0x0000000083f2669c                rt_chip_familyIndex_get
 .text.rt_util_flashEnv_get
                0x0000000083f26734       0x48 board/Realtek/rtl838x/librtl838x.o
                0x0000000083f26734                rt_util_flashEnv_get
 .text.rt_util_ascii2dec
                0x0000000083f2677c       0x2c board/Realtek/rtl838x/librtl838x.o
                0x0000000083f2677c                rt_util_ascii2dec
 .text.bitop_numberOfSetBitsInArray
                0x0000000083f267a8       0x80 board/Realtek/rtl838x/librtl838x.o
                0x0000000083f267a8                bitop_numberOfSetBitsInArray
 .text.hal_find_device
                0x0000000083f26828       0xa8 board/Realtek/rtl838x/librtl838x.o
                0x0000000083f26828                hal_find_device
 .text.hal_isPpBlock_check
                0x0000000083f268d0       0x80 board/Realtek/rtl838x/librtl838x.o
                0x0000000083f268d0                hal_isPpBlock_check
 .text.hal_find_driver
                0x0000000083f26950       0x2c board/Realtek/rtl838x/librtl838x.o
                0x0000000083f26950                hal_find_driver
 .text.hal_init_sys
                0x0000000083f2697c       0xac board/Realtek/rtl838x/librtl838x.o
                0x0000000083f2697c                hal_init_sys
 .text.hal_chipInfo_clear
                0x0000000083f26a28       0x68 board/Realtek/rtl838x/librtl838x.o
                0x0000000083f26a28                hal_chipInfo_clear
 .text.hal_init
                0x0000000083f26a90      0x1d4 board/Realtek/rtl838x/librtl838x.o
                0x0000000083f26a90                hal_init
 .text.hal_ctrlInfo_get
                0x0000000083f26c64       0x28 board/Realtek/rtl838x/librtl838x.o
                0x0000000083f26c64                hal_ctrlInfo_get
 .text.phy_media_get
                0x0000000083f26c8c       0xf8 board/Realtek/rtl838x/librtl838x.o
                0x0000000083f26c8c                phy_media_get
 .text.phy_media_set
                0x0000000083f26d84      0x1a4 board/Realtek/rtl838x/librtl838x.o
                0x0000000083f26d84                phy_media_set
 .text.phy_autoNegoEnable_get
                0x0000000083f26f28       0xf8 board/Realtek/rtl838x/librtl838x.o
                0x0000000083f26f28                phy_autoNegoEnable_get
 .text.phy_autoNegoEnable_set
                0x0000000083f27020       0xf8 board/Realtek/rtl838x/librtl838x.o
                0x0000000083f27020                phy_autoNegoEnable_set
 .text.phy_autoNegoAbilityLocal_get
                0x0000000083f27118       0xf8 board/Realtek/rtl838x/librtl838x.o
                0x0000000083f27118                phy_autoNegoAbilityLocal_get
 .text.phy_autoNegoAbility_get
                0x0000000083f27210       0xf8 board/Realtek/rtl838x/librtl838x.o
                0x0000000083f27210                phy_autoNegoAbility_get
 .text.phy_autoNegoAbility_set
                0x0000000083f27308       0xf8 board/Realtek/rtl838x/librtl838x.o
                0x0000000083f27308                phy_autoNegoAbility_set
 .text.phy_duplex_get
                0x0000000083f27400       0xf8 board/Realtek/rtl838x/librtl838x.o
                0x0000000083f27400                phy_duplex_get
 .text.phy_duplex_set
                0x0000000083f274f8       0xf8 board/Realtek/rtl838x/librtl838x.o
                0x0000000083f274f8                phy_duplex_set
 .text.phy_speed_get
                0x0000000083f275f0       0xf8 board/Realtek/rtl838x/librtl838x.o
                0x0000000083f275f0                phy_speed_get
 .text.phy_speed_set
                0x0000000083f276e8       0xf8 board/Realtek/rtl838x/librtl838x.o
                0x0000000083f276e8                phy_speed_set
 .text.phy_enable_set
                0x0000000083f277e0       0xf8 board/Realtek/rtl838x/librtl838x.o
                0x0000000083f277e0                phy_enable_set
 .text.phy_enable_get
                0x0000000083f278d8       0xf8 board/Realtek/rtl838x/librtl838x.o
                0x0000000083f278d8                phy_enable_get
 .text.phy_rtct_start
                0x0000000083f279d0       0xe8 board/Realtek/rtl838x/librtl838x.o
                0x0000000083f279d0                phy_rtct_start
 .text.phy_rtctResult_get
                0x0000000083f27ab8       0xf8 board/Realtek/rtl838x/librtl838x.o
                0x0000000083f27ab8                phy_rtctResult_get
 .text.phy_greenEnable_get
                0x0000000083f27bb0       0xf8 board/Realtek/rtl838x/librtl838x.o
                0x0000000083f27bb0                phy_greenEnable_get
 .text.phy_greenEnable_set
                0x0000000083f27ca8       0xf8 board/Realtek/rtl838x/librtl838x.o
                0x0000000083f27ca8                phy_greenEnable_set
 .text.phy_eeeEnable_get
                0x0000000083f27da0       0xf8 board/Realtek/rtl838x/librtl838x.o
                0x0000000083f27da0                phy_eeeEnable_get
 .text.phy_eeeEnable_set
                0x0000000083f27e98      0x1a4 board/Realtek/rtl838x/librtl838x.o
                0x0000000083f27e98                phy_eeeEnable_set
 .text.phy_crossOverMode_get
                0x0000000083f2803c       0xf8 board/Realtek/rtl838x/librtl838x.o
                0x0000000083f2803c                phy_crossOverMode_get
 .text.phy_crossOverMode_set
                0x0000000083f28134       0xf8 board/Realtek/rtl838x/librtl838x.o
                0x0000000083f28134                phy_crossOverMode_set
 .text.phy_crossOverStatus_get
                0x0000000083f2822c       0xf8 board/Realtek/rtl838x/librtl838x.o
                0x0000000083f2822c                phy_crossOverStatus_get
 .text.phy_fiber_media_get
                0x0000000083f28324       0xf8 board/Realtek/rtl838x/librtl838x.o
                0x0000000083f28324                phy_fiber_media_get
 .text.phy_fiber_media_set
                0x0000000083f2841c       0xf8 board/Realtek/rtl838x/librtl838x.o
                0x0000000083f2841c                phy_fiber_media_set
 .text.phy_linkDownPowerSavingEnable_get
                0x0000000083f28514       0xf8 board/Realtek/rtl838x/librtl838x.o
                0x0000000083f28514                phy_linkDownPowerSavingEnable_get
 .text.phy_linkDownPowerSavingEnable_set
                0x0000000083f2860c       0xf8 board/Realtek/rtl838x/librtl838x.o
                0x0000000083f2860c                phy_linkDownPowerSavingEnable_set
 .text.phy_gigaLiteEnable_get
                0x0000000083f28704       0xf8 board/Realtek/rtl838x/librtl838x.o
                0x0000000083f28704                phy_gigaLiteEnable_get
 .text.phy_gigaLiteEnable_set
                0x0000000083f287fc       0xf8 board/Realtek/rtl838x/librtl838x.o
                0x0000000083f287fc                phy_gigaLiteEnable_set
 .text.phy_downSpeedEnable_get
                0x0000000083f288f4      0x1a4 board/Realtek/rtl838x/librtl838x.o
                0x0000000083f288f4                phy_downSpeedEnable_get
 .text.phy_downSpeedEnable_set
                0x0000000083f28a98      0x1a4 board/Realtek/rtl838x/librtl838x.o
                0x0000000083f28a98                phy_downSpeedEnable_set
 .text.phy_downSpeedStatus_get
                0x0000000083f28c3c      0x1a4 board/Realtek/rtl838x/librtl838x.o
                0x0000000083f28c3c                phy_downSpeedStatus_get
 .text.phy_fiberDownSpeedEnable_get
                0x0000000083f28de0      0x1a4 board/Realtek/rtl838x/librtl838x.o
                0x0000000083f28de0                phy_fiberDownSpeedEnable_get
 .text.phy_fiberDownSpeedEnable_set
                0x0000000083f28f84      0x1a4 board/Realtek/rtl838x/librtl838x.o
                0x0000000083f28f84                phy_fiberDownSpeedEnable_set
 .text.phy_fiberNwayForceLinkEnable_get
                0x0000000083f29128       0xf8 board/Realtek/rtl838x/librtl838x.o
                0x0000000083f29128                phy_fiberNwayForceLinkEnable_get
 .text.phy_fiberNwayForceLinkEnable_set
                0x0000000083f29220       0xf8 board/Realtek/rtl838x/librtl838x.o
                0x0000000083f29220                phy_fiberNwayForceLinkEnable_set
 .text.phy_ptpSwitchMacAddr_get
                0x0000000083f29318       0xf8 board/Realtek/rtl838x/librtl838x.o
                0x0000000083f29318                phy_ptpSwitchMacAddr_get
 .text.phy_ptpSwitchMacAddr_set
                0x0000000083f29410       0xf8 board/Realtek/rtl838x/librtl838x.o
                0x0000000083f29410                phy_ptpSwitchMacAddr_set
 .text.phy_ptpRefTime_get
                0x0000000083f29508       0xf8 board/Realtek/rtl838x/librtl838x.o
                0x0000000083f29508                phy_ptpRefTime_get
 .text.phy_ptpRefTime_set
                0x0000000083f29600      0x110 board/Realtek/rtl838x/librtl838x.o
                0x0000000083f29600                phy_ptpRefTime_set
 .text.phy_ptpRefTimeAdjust_set
                0x0000000083f29710      0x120 board/Realtek/rtl838x/librtl838x.o
                0x0000000083f29710                phy_ptpRefTimeAdjust_set
 .text.phy_ptpRefTimeEnable_get
                0x0000000083f29830       0xf8 board/Realtek/rtl838x/librtl838x.o
                0x0000000083f29830                phy_ptpRefTimeEnable_get
 .text.phy_ptpRefTimeEnable_set
                0x0000000083f29928       0xf8 board/Realtek/rtl838x/librtl838x.o
                0x0000000083f29928                phy_ptpRefTimeEnable_set
 .text.phy_ptpRefTimeFreq_get
                0x0000000083f29a20       0xf8 board/Realtek/rtl838x/librtl838x.o
                0x0000000083f29a20                phy_ptpRefTimeFreq_get
 .text.phy_ptpRefTimeFreq_set
                0x0000000083f29b18       0xf8 board/Realtek/rtl838x/librtl838x.o
                0x0000000083f29b18                phy_ptpRefTimeFreq_set
 .text.phy_ptpEnable_get
                0x0000000083f29c10       0xf8 board/Realtek/rtl838x/librtl838x.o
                0x0000000083f29c10                phy_ptpEnable_get
 .text.phy_ptpEnable_set
                0x0000000083f29d08       0xf8 board/Realtek/rtl838x/librtl838x.o
                0x0000000083f29d08                phy_ptpEnable_set
 .text.phy_ptpIgrTpid_get
                0x0000000083f29e00      0x110 board/Realtek/rtl838x/librtl838x.o
                0x0000000083f29e00                phy_ptpIgrTpid_get
 .text.phy_ptpIgrTpid_set
                0x0000000083f29f10      0x110 board/Realtek/rtl838x/librtl838x.o
                0x0000000083f29f10                phy_ptpIgrTpid_set
 .text.phy_ptpSwitchMacRange_get
                0x0000000083f2a020       0xf8 board/Realtek/rtl838x/librtl838x.o
                0x0000000083f2a020                phy_ptpSwitchMacRange_get
 .text.phy_ptpSwitchMacRange_set
                0x0000000083f2a118       0xf8 board/Realtek/rtl838x/librtl838x.o
                0x0000000083f2a118                phy_ptpSwitchMacRange_set
 .text.phy_ptpInterruptEnable_get
                0x0000000083f2a210       0xf8 board/Realtek/rtl838x/librtl838x.o
                0x0000000083f2a210                phy_ptpInterruptEnable_get
 .text.phy_ptpInterruptEnable_set
                0x0000000083f2a308       0xf8 board/Realtek/rtl838x/librtl838x.o
                0x0000000083f2a308                phy_ptpInterruptEnable_set
 .text.phy_ptpRxTimestamp_get
                0x0000000083f2a400      0x100 board/Realtek/rtl838x/librtl838x.o
                0x0000000083f2a400                phy_ptpRxTimestamp_get
 .text.phy_ptpTxTimestamp_get
                0x0000000083f2a500      0x100 board/Realtek/rtl838x/librtl838x.o
                0x0000000083f2a500                phy_ptpTxTimestamp_get
 .text.phy_ptpOper_get
                0x0000000083f2a600       0xf8 board/Realtek/rtl838x/librtl838x.o
                0x0000000083f2a600                phy_ptpOper_get
 .text.phy_ptpOper_set
                0x0000000083f2a6f8       0xf8 board/Realtek/rtl838x/librtl838x.o
                0x0000000083f2a6f8                phy_ptpOper_set
 .text.phy_ptpLatchTime_get
                0x0000000083f2a7f0       0xf8 board/Realtek/rtl838x/librtl838x.o
                0x0000000083f2a7f0                phy_ptpLatchTime_get
 .text.phy_ptpRefTimeFreqCfg_get
                0x0000000083f2a8e8      0x108 board/Realtek/rtl838x/librtl838x.o
                0x0000000083f2a8e8                phy_ptpRefTimeFreqCfg_get
 .text.phy_ptpRefTimeFreqCfg_set
                0x0000000083f2a9f0      0x108 board/Realtek/rtl838x/librtl838x.o
                0x0000000083f2a9f0                phy_ptpRefTimeFreqCfg_set
 .text.phy_ptpTxInterruptStatus_get
                0x0000000083f2aaf8       0xf8 board/Realtek/rtl838x/librtl838x.o
                0x0000000083f2aaf8                phy_ptpTxInterruptStatus_get
 .text.phy_ptpTxTimestampFifo_get
                0x0000000083f2abf0       0xf8 board/Realtek/rtl838x/librtl838x.o
                0x0000000083f2abf0                phy_ptpTxTimestampFifo_get
 .text.phy_ptp1PPSOutput_get
                0x0000000083f2ace8      0x108 board/Realtek/rtl838x/librtl838x.o
                0x0000000083f2ace8                phy_ptp1PPSOutput_get
 .text.phy_ptp1PPSOutput_set
                0x0000000083f2adf0      0x108 board/Realtek/rtl838x/librtl838x.o
                0x0000000083f2adf0                phy_ptp1PPSOutput_set
 .text.phy_ptpClockOutput_get
                0x0000000083f2aef8       0xf8 board/Realtek/rtl838x/librtl838x.o
                0x0000000083f2aef8                phy_ptpClockOutput_get
 .text.phy_ptpClockOutput_set
                0x0000000083f2aff0       0xf8 board/Realtek/rtl838x/librtl838x.o
                0x0000000083f2aff0                phy_ptpClockOutput_set
 .text.phy_ptpOutputSigSel_get
                0x0000000083f2b0e8       0xf8 board/Realtek/rtl838x/librtl838x.o
                0x0000000083f2b0e8                phy_ptpOutputSigSel_get
 .text.phy_ptpOutputSigSel_set
                0x0000000083f2b1e0       0xf8 board/Realtek/rtl838x/librtl838x.o
                0x0000000083f2b1e0                phy_ptpOutputSigSel_set
 .text.phy_ptpTransEnable_get
                0x0000000083f2b2d8       0xf8 board/Realtek/rtl838x/librtl838x.o
                0x0000000083f2b2d8                phy_ptpTransEnable_get
 .text.phy_ptpTransEnable_set
                0x0000000083f2b3d0       0xf8 board/Realtek/rtl838x/librtl838x.o
                0x0000000083f2b3d0                phy_ptpTransEnable_set
 .text.phy_ptpLinkDelay_get
                0x0000000083f2b4c8       0xf8 board/Realtek/rtl838x/librtl838x.o
                0x0000000083f2b4c8                phy_ptpLinkDelay_get
 .text.phy_ptpLinkDelay_set
                0x0000000083f2b5c0       0xf8 board/Realtek/rtl838x/librtl838x.o
                0x0000000083f2b5c0                phy_ptpLinkDelay_set
 .text.phy_reg_get
                0x0000000083f2b6b8      0x130 board/Realtek/rtl838x/librtl838x.o
                0x0000000083f2b6b8                phy_reg_get
 .text.phy_reg_set
                0x0000000083f2b7e8      0x130 board/Realtek/rtl838x/librtl838x.o
                0x0000000083f2b7e8                phy_reg_set
 .text.phy_reg_mmd_get
                0x0000000083f2b918      0x130 board/Realtek/rtl838x/librtl838x.o
                0x0000000083f2b918                phy_reg_mmd_get
 .text.phy_reg_mmd_set
                0x0000000083f2ba48      0x130 board/Realtek/rtl838x/librtl838x.o
                0x0000000083f2ba48                phy_reg_mmd_set
 .text.phy_reg_mmd_portmask_set
                0x0000000083f2bb78       0xbc board/Realtek/rtl838x/librtl838x.o
                0x0000000083f2bb78                phy_reg_mmd_portmask_set
 .text.phy_reg_extParkPage_get
                0x0000000083f2bc34      0x120 board/Realtek/rtl838x/librtl838x.o
                0x0000000083f2bc34                phy_reg_extParkPage_get
 .text.phy_reg_extParkPage_set
                0x0000000083f2bd54      0x120 board/Realtek/rtl838x/librtl838x.o
                0x0000000083f2bd54                phy_reg_extParkPage_set
 .text.phy_reg_extParkPage_portmask_set
                0x0000000083f2be74       0xcc board/Realtek/rtl838x/librtl838x.o
                0x0000000083f2be74                phy_reg_extParkPage_portmask_set
 .text.phy_reg_portmask_set
                0x0000000083f2bf40       0xbc board/Realtek/rtl838x/librtl838x.o
                0x0000000083f2bf40                phy_reg_portmask_set
 .text.phy_masterSlave_get
                0x0000000083f2bffc      0x108 board/Realtek/rtl838x/librtl838x.o
                0x0000000083f2bffc                phy_masterSlave_get
 .text.phy_masterSlave_set
                0x0000000083f2c104       0xf8 board/Realtek/rtl838x/librtl838x.o
                0x0000000083f2c104                phy_masterSlave_set
 .text.phy_loopbackEnable_get
                0x0000000083f2c1fc       0xf8 board/Realtek/rtl838x/librtl838x.o
                0x0000000083f2c1fc                phy_loopbackEnable_get
 .text.phy_loopbackEnable_set
                0x0000000083f2c2f4      0x1a4 board/Realtek/rtl838x/librtl838x.o
                0x0000000083f2c2f4                phy_loopbackEnable_set
 .text.phy_construct_reg_park_get
                0x0000000083f2c498       0xcc board/Realtek/rtl838x/librtl838x.o
                0x0000000083f2c498                phy_construct_reg_park_get
 .text.phy_construct_reg_park_set
                0x0000000083f2c564       0xcc board/Realtek/rtl838x/librtl838x.o
                0x0000000083f2c564                phy_construct_reg_park_set
 .text.phy_fiberTxDis_set
                0x0000000083f2c630       0xf8 board/Realtek/rtl838x/librtl838x.o
                0x0000000083f2c630                phy_fiberTxDis_set
 .text.phy_fiberTxDisPin_set
                0x0000000083f2c728       0xf8 board/Realtek/rtl838x/librtl838x.o
                0x0000000083f2c728                phy_fiberTxDisPin_set
 .text.phy_fiberRxEnable_get
                0x0000000083f2c820       0xf8 board/Realtek/rtl838x/librtl838x.o
                0x0000000083f2c820                phy_fiberRxEnable_get
 .text.phy_fiberRxEnable_set
                0x0000000083f2c918       0xf8 board/Realtek/rtl838x/librtl838x.o
                0x0000000083f2c918                phy_fiberRxEnable_set
 .text.phy_10gMedia_get
                0x0000000083f2ca10       0xf8 board/Realtek/rtl838x/librtl838x.o
                0x0000000083f2ca10                phy_10gMedia_get
 .text.phy_10gMedia_set
                0x0000000083f2cb08       0xf8 board/Realtek/rtl838x/librtl838x.o
                0x0000000083f2cb08                phy_10gMedia_set
 .text.phy_polar_get
                0x0000000083f2cc00       0xf8 board/Realtek/rtl838x/librtl838x.o
                0x0000000083f2cc00                phy_polar_get
 .text.phy_polar_set
                0x0000000083f2ccf8       0xf8 board/Realtek/rtl838x/librtl838x.o
                0x0000000083f2ccf8                phy_polar_set
 .text.phy_chipRevId_get
                0x0000000083f2cdf0      0x118 board/Realtek/rtl838x/librtl838x.o
                0x0000000083f2cdf0                phy_chipRevId_get
 .text.phy_id_get
                0x0000000083f2cf08      0x160 board/Realtek/rtl838x/librtl838x.o
                0x0000000083f2cf08                phy_id_get
 .text.phy_ieeeTestMode_set
                0x0000000083f2d068       0xf8 board/Realtek/rtl838x/librtl838x.o
                0x0000000083f2d068                phy_ieeeTestMode_set
 .text.phy_portEyeMonitor_start
                0x0000000083f2d160      0x120 board/Realtek/rtl838x/librtl838x.o
                0x0000000083f2d160                phy_portEyeMonitor_start
 .text.phy_eyeMonitorInfo_get
                0x0000000083f2d280      0x128 board/Realtek/rtl838x/librtl838x.o
                0x0000000083f2d280                phy_eyeMonitorInfo_get
 .text.phy_portFlashImage_load
                0x0000000083f2d3a8      0x108 board/Realtek/rtl838x/librtl838x.o
                0x0000000083f2d3a8                phy_portFlashImage_load
 .text.phy_sds_get
                0x0000000083f2d4b0       0xf8 board/Realtek/rtl838x/librtl838x.o
                0x0000000083f2d4b0                phy_sds_get
 .text.phy_sds_set
                0x0000000083f2d5a8       0xf8 board/Realtek/rtl838x/librtl838x.o
                0x0000000083f2d5a8                phy_sds_set
 .text.phy_sdsRxCaliStatus_get
                0x0000000083f2d6a0      0x108 board/Realtek/rtl838x/librtl838x.o
                0x0000000083f2d6a0                phy_sdsRxCaliStatus_get
 .text.phy_reset_set
                0x0000000083f2d7a8       0xe8 board/Realtek/rtl838x/librtl838x.o
                0x0000000083f2d7a8                phy_reset_set
 .text.phy_linkStatus_get
                0x0000000083f2d890       0xf8 board/Realtek/rtl838x/librtl838x.o
                0x0000000083f2d890                phy_linkStatus_get
 .text.phy_peerAutoNegoAbility_get
                0x0000000083f2d988       0xf8 board/Realtek/rtl838x/librtl838x.o
                0x0000000083f2d988                phy_peerAutoNegoAbility_get
 .text.phy_macIntfSerdesMode_get
                0x0000000083f2da80       0xf8 board/Realtek/rtl838x/librtl838x.o
                0x0000000083f2da80                phy_macIntfSerdesMode_get
 .text.phy_ledMode_set
                0x0000000083f2db78       0xf8 board/Realtek/rtl838x/librtl838x.o
                0x0000000083f2db78                phy_ledMode_set
 .text.phy_ledCtrl_get
                0x0000000083f2dc70       0xf8 board/Realtek/rtl838x/librtl838x.o
                0x0000000083f2dc70                phy_ledCtrl_get
 .text.phy_ledCtrl_set
                0x0000000083f2dd68       0xf8 board/Realtek/rtl838x/librtl838x.o
                0x0000000083f2dd68                phy_ledCtrl_set
 .text.phy_macIntfSerdesLinkStatus_get
                0x0000000083f2de60       0xf8 board/Realtek/rtl838x/librtl838x.o
                0x0000000083f2de60                phy_macIntfSerdesLinkStatus_get
 .text.phy_sdsEyeParam_get
                0x0000000083f2df58      0x108 board/Realtek/rtl838x/librtl838x.o
                0x0000000083f2df58                phy_sdsEyeParam_get
 .text.phy_sdsEyeParam_set
                0x0000000083f2e060      0x108 board/Realtek/rtl838x/librtl838x.o
                0x0000000083f2e060                phy_sdsEyeParam_set
 .text.phy_2pt5gLiteEnable_get
                0x0000000083f2e168       0xf8 board/Realtek/rtl838x/librtl838x.o
                0x0000000083f2e168                phy_2pt5gLiteEnable_get
 .text.phy_2pt5gLiteEnable_set
                0x0000000083f2e260       0xf8 board/Realtek/rtl838x/librtl838x.o
                0x0000000083f2e260                phy_2pt5gLiteEnable_set
 .text.phy_mdiLoopbackEnable_get
                0x0000000083f2e358       0xf8 board/Realtek/rtl838x/librtl838x.o
                0x0000000083f2e358                phy_mdiLoopbackEnable_get
 .text.phy_mdiLoopbackEnable_set
                0x0000000083f2e450       0xf8 board/Realtek/rtl838x/librtl838x.o
                0x0000000083f2e450                phy_mdiLoopbackEnable_set
 .text.phy_intr_init
                0x0000000083f2e548       0xf8 board/Realtek/rtl838x/librtl838x.o
                0x0000000083f2e548                phy_intr_init
 .text.phy_intrEnable_get
                0x0000000083f2e640      0x108 board/Realtek/rtl838x/librtl838x.o
                0x0000000083f2e640                phy_intrEnable_get
 .text.phy_intrEnable_set
                0x0000000083f2e748      0x108 board/Realtek/rtl838x/librtl838x.o
                0x0000000083f2e748                phy_intrEnable_set
 .text.phy_intrStatus_get
                0x0000000083f2e850      0x108 board/Realtek/rtl838x/librtl838x.o
                0x0000000083f2e850                phy_intrStatus_get
 .text.phy_intrMask_get
                0x0000000083f2e958      0x108 board/Realtek/rtl838x/librtl838x.o
                0x0000000083f2e958                phy_intrMask_get
 .text.phy_intrMask_set
                0x0000000083f2ea60      0x108 board/Realtek/rtl838x/librtl838x.o
                0x0000000083f2ea60                phy_intrMask_set
 .text.phy_sdsTestMode_set
                0x0000000083f2eb68      0x108 board/Realtek/rtl838x/librtl838x.o
                0x0000000083f2eb68                phy_sdsTestMode_set
 .text.phy_sdsTestModeCnt_get
                0x0000000083f2ec70      0x108 board/Realtek/rtl838x/librtl838x.o
                0x0000000083f2ec70                phy_sdsTestModeCnt_get
 .text.phy_sdsLeq_get
                0x0000000083f2ed78      0x110 board/Realtek/rtl838x/librtl838x.o
                0x0000000083f2ed78                phy_sdsLeq_get
 .text.phy_sdsLeq_set
                0x0000000083f2ee88      0x110 board/Realtek/rtl838x/librtl838x.o
                0x0000000083f2ee88                phy_sdsLeq_set
 .text.phy_ctrl_get
                0x0000000083f2ef98      0x108 board/Realtek/rtl838x/librtl838x.o
                0x0000000083f2ef98                phy_ctrl_get
 .text.phy_ctrl_set
                0x0000000083f2f0a0      0x108 board/Realtek/rtl838x/librtl838x.o
                0x0000000083f2f0a0                phy_ctrl_set
 .text.phy_liteEnable_get
                0x0000000083f2f1a8      0x108 board/Realtek/rtl838x/librtl838x.o
                0x0000000083f2f1a8                phy_liteEnable_get
 .text.phy_liteEnable_set
                0x0000000083f2f2b0      0x108 board/Realtek/rtl838x/librtl838x.o
                0x0000000083f2f2b0                phy_liteEnable_set
 .text.phy_dbgCounter_get
                0x0000000083f2f3b8      0x108 board/Realtek/rtl838x/librtl838x.o
                0x0000000083f2f3b8                phy_dbgCounter_get
 .text.phy_speedDuplexStatus_get
                0x0000000083f2f4c0      0x108 board/Realtek/rtl838x/librtl838x.o
                0x0000000083f2f4c0                phy_speedDuplexStatus_get
 .text.miim_phy_macsec_reg_get
                0x0000000083f2f5c8      0x108 board/Realtek/rtl838x/librtl838x.o
                0x0000000083f2f5c8                miim_phy_macsec_reg_get
 .text.miim_phy_macsec_reg_set
                0x0000000083f2f6d0      0x108 board/Realtek/rtl838x/librtl838x.o
                0x0000000083f2f6d0                miim_phy_macsec_reg_set
 .text.miim_phy_macsec_port_cfg_set
                0x0000000083f2f7d8       0xf0 board/Realtek/rtl838x/librtl838x.o
                0x0000000083f2f7d8                miim_phy_macsec_port_cfg_set
 .text.miim_phy_macsec_port_cfg_get
                0x0000000083f2f8c8       0xf0 board/Realtek/rtl838x/librtl838x.o
                0x0000000083f2f8c8                miim_phy_macsec_port_cfg_get
 .text.miim_phy_macsec_sc_create
                0x0000000083f2f9b8      0x108 board/Realtek/rtl838x/librtl838x.o
                0x0000000083f2f9b8                miim_phy_macsec_sc_create
 .text.miim_phy_macsec_sc_get
                0x0000000083f2fac0      0x108 board/Realtek/rtl838x/librtl838x.o
                0x0000000083f2fac0                miim_phy_macsec_sc_get
 .text.miim_phy_macsec_sc_del
                0x0000000083f2fbc8      0x100 board/Realtek/rtl838x/librtl838x.o
                0x0000000083f2fbc8                miim_phy_macsec_sc_del
 .text.miim_phy_macsec_sc_status_get
                0x0000000083f2fcc8      0x108 board/Realtek/rtl838x/librtl838x.o
                0x0000000083f2fcc8                miim_phy_macsec_sc_status_get
 .text.miim_phy_macsec_sa_create
                0x0000000083f2fdd0      0x110 board/Realtek/rtl838x/librtl838x.o
                0x0000000083f2fdd0                miim_phy_macsec_sa_create
 .text.miim_phy_macsec_sa_get
                0x0000000083f2fee0      0x110 board/Realtek/rtl838x/librtl838x.o
                0x0000000083f2fee0                miim_phy_macsec_sa_get
 .text.miim_phy_macsec_sa_del
                0x0000000083f2fff0      0x108 board/Realtek/rtl838x/librtl838x.o
                0x0000000083f2fff0                miim_phy_macsec_sa_del
 .text.miim_phy_macsec_sa_activate
                0x0000000083f300f8      0x108 board/Realtek/rtl838x/librtl838x.o
                0x0000000083f300f8                miim_phy_macsec_sa_activate
 .text.miim_phy_macsec_rxsa_disable
                0x0000000083f30200      0x100 board/Realtek/rtl838x/librtl838x.o
                0x0000000083f30200                miim_phy_macsec_rxsa_disable
 .text.miim_phy_macsec_txsa_disable
                0x0000000083f30300       0xf0 board/Realtek/rtl838x/librtl838x.o
                0x0000000083f30300                miim_phy_macsec_txsa_disable
 .text.miim_phy_macsec_stat_clear
                0x0000000083f303f0       0xe0 board/Realtek/rtl838x/librtl838x.o
                0x0000000083f303f0                miim_phy_macsec_stat_clear
 .text.miim_phy_macsec_stat_port_get
                0x0000000083f304d0      0x100 board/Realtek/rtl838x/librtl838x.o
                0x0000000083f304d0                miim_phy_macsec_stat_port_get
 .text.miim_phy_macsec_stat_txsa_get
                0x0000000083f305d0      0x110 board/Realtek/rtl838x/librtl838x.o
                0x0000000083f305d0                miim_phy_macsec_stat_txsa_get
 .text.miim_phy_macsec_stat_rxsa_get
                0x0000000083f306e0      0x110 board/Realtek/rtl838x/librtl838x.o
                0x0000000083f306e0                miim_phy_macsec_stat_rxsa_get
 .text.miim_phy_macsec_intr_status_get
                0x0000000083f307f0       0xf0 board/Realtek/rtl838x/librtl838x.o
                0x0000000083f307f0                miim_phy_macsec_intr_status_get
 .text.phy_sdsReg_get
                0x0000000083f308e0       0xf4 board/Realtek/rtl838x/librtl838x.o
                0x0000000083f308e0                phy_sdsReg_get
 .text.phy_sdsReg_set
                0x0000000083f309d4       0xf4 board/Realtek/rtl838x/librtl838x.o
                0x0000000083f309d4                phy_sdsReg_set
 .text._reg_field_find
                0x0000000083f30ac8       0x78 board/Realtek/rtl838x/librtl838x.o
 .text._reg_addr_find
                0x0000000083f30b40      0x348 board/Realtek/rtl838x/librtl838x.o
 .text.reg_read
                0x0000000083f30e88       0xe4 board/Realtek/rtl838x/librtl838x.o
                0x0000000083f30e88                reg_read
 .text.reg_write
                0x0000000083f30f6c      0x14c board/Realtek/rtl838x/librtl838x.o
                0x0000000083f30f6c                reg_write
 .text.reg_field_get
                0x0000000083f310b8      0x180 board/Realtek/rtl838x/librtl838x.o
                0x0000000083f310b8                reg_field_get
 .text.reg_field_set
                0x0000000083f31238      0x1a0 board/Realtek/rtl838x/librtl838x.o
                0x0000000083f31238                reg_field_set
 .text.reg_field_read
                0x0000000083f313d8      0x148 board/Realtek/rtl838x/librtl838x.o
                0x0000000083f313d8                reg_field_read
 .text.reg_field_write
                0x0000000083f31520      0x1e0 board/Realtek/rtl838x/librtl838x.o
                0x0000000083f31520                reg_field_write
 .text.reg_array_read
                0x0000000083f31700       0xec board/Realtek/rtl838x/librtl838x.o
                0x0000000083f31700                reg_array_read
 .text.reg_array_write
                0x0000000083f317ec      0x160 board/Realtek/rtl838x/librtl838x.o
                0x0000000083f317ec                reg_array_write
 .text.reg_array_field_write
                0x0000000083f3194c      0x260 board/Realtek/rtl838x/librtl838x.o
                0x0000000083f3194c                reg_array_field_write
 .text.hal_miim_read
                0x0000000083f31bac      0x178 board/Realtek/rtl838x/librtl838x.o
                0x0000000083f31bac                hal_miim_read
 .text.hal_miim_write
                0x0000000083f31d24      0x194 board/Realtek/rtl838x/librtl838x.o
                0x0000000083f31d24                hal_miim_write
 .text.hal_miim_park_read
                0x0000000083f31eb8      0x128 board/Realtek/rtl838x/librtl838x.o
                0x0000000083f31eb8                hal_miim_park_read
 .text.hal_miim_park_write
                0x0000000083f31fe0      0x138 board/Realtek/rtl838x/librtl838x.o
                0x0000000083f31fe0                hal_miim_park_write
 .text.hal_miim_parkBits_read
                0x0000000083f32118       0x70 board/Realtek/rtl838x/librtl838x.o
                0x0000000083f32118                hal_miim_parkBits_read
 .text.hal_miim_parkBits_write
                0x0000000083f32188       0xd4 board/Realtek/rtl838x/librtl838x.o
                0x0000000083f32188                hal_miim_parkBits_write
 .text.hal_miim_portmask_write
                0x0000000083f3225c       0x90 board/Realtek/rtl838x/librtl838x.o
                0x0000000083f3225c                hal_miim_portmask_write
 .text.hal_miim_extParkPage_portmask_write
                0x0000000083f322ec       0xb8 board/Realtek/rtl838x/librtl838x.o
                0x0000000083f322ec                hal_miim_extParkPage_portmask_write
 .text.hal_miim_mmd_read
                0x0000000083f323a4       0x7c board/Realtek/rtl838x/librtl838x.o
                0x0000000083f323a4                hal_miim_mmd_read
 .text.hal_miim_mmd_write
                0x0000000083f32420       0x84 board/Realtek/rtl838x/librtl838x.o
                0x0000000083f32420                hal_miim_mmd_write
 .text.hal_miim_mmd_portmask_write
                0x0000000083f324a4       0x90 board/Realtek/rtl838x/librtl838x.o
                0x0000000083f324a4                hal_miim_mmd_portmask_write
 .text.hal_miim_pollingEnable_get
                0x0000000083f32534       0x9c board/Realtek/rtl838x/librtl838x.o
                0x0000000083f32534                hal_miim_pollingEnable_get
 .text.hal_miim_pollingEnable_set
                0x0000000083f325d0       0x9c board/Realtek/rtl838x/librtl838x.o
                0x0000000083f325d0                hal_miim_pollingEnable_set
 .text.hal_miim_pollingPauseAllPort_set
                0x0000000083f3266c      0x108 board/Realtek/rtl838x/librtl838x.o
                0x0000000083f3266c                hal_miim_pollingPauseAllPort_set
 .text.hal_miim_pollingResumeAllPort_set
                0x0000000083f32774       0xdc board/Realtek/rtl838x/librtl838x.o
                0x0000000083f32774                hal_miim_pollingResumeAllPort_set
 .text.hal_miim_pollingWa_lock
                0x0000000083f32850       0x84 board/Realtek/rtl838x/librtl838x.o
                0x0000000083f32850                hal_miim_pollingWa_lock
 .text.hal_miim_pollingWa_unlock
                0x0000000083f328d4       0x40 board/Realtek/rtl838x/librtl838x.o
                0x0000000083f328d4                hal_miim_pollingWa_unlock
 .text.hal_miim_portSmiMdxProto_get
                0x0000000083f32914       0x68 board/Realtek/rtl838x/librtl838x.o
                0x0000000083f32914                hal_miim_portSmiMdxProto_get
 .text.hal_miim_portSmiMdxProto_set
                0x0000000083f3297c       0x68 board/Realtek/rtl838x/librtl838x.o
                0x0000000083f3297c                hal_miim_portSmiMdxProto_set
 .text.mac_probe
                0x0000000083f329e4      0x1a4 board/Realtek/rtl838x/librtl838x.o
                0x0000000083f329e4                mac_probe
 .text.mac_init
                0x0000000083f32b88       0x70 board/Realtek/rtl838x/librtl838x.o
                0x0000000083f32b88                mac_init
 .text.drv_phy_smiCmdComplete_wait
                0x0000000083f32bf8       0xe4 board/Realtek/rtl838x/librtl838x.o
                0x0000000083f32bf8                drv_phy_smiCmdComplete_wait
 .text.table_find
                0x0000000083f32cdc       0x44 board/Realtek/rtl838x/librtl838x.o
                0x0000000083f32cdc                table_find
 .text.hal_serdes_reg_get
                0x0000000083f32d20      0x10c board/Realtek/rtl838x/librtl838x.o
                0x0000000083f32d20                hal_serdes_reg_get
 .text.hal_serdes_reg_set
                0x0000000083f32e2c      0x10c board/Realtek/rtl838x/librtl838x.o
                0x0000000083f32e2c                hal_serdes_reg_set
 .text.phy_construct_field_write
                0x0000000083f32f38       0xec board/Realtek/rtl838x/librtl838x.o
                0x0000000083f32f38                phy_construct_field_write
 .text.phy_construct_confcodeRv_write
                0x0000000083f33024       0x84 board/Realtek/rtl838x/librtl838x.o
                0x0000000083f33024                phy_construct_confcodeRv_write
 .text.phy_construct_confcodePrv_write
                0x0000000083f330a8       0x90 board/Realtek/rtl838x/librtl838x.o
                0x0000000083f330a8                phy_construct_confcodePrv_write
 .text.rtl8218b_rtl8380_config
                0x0000000083f33138      0xd34 board/Realtek/rtl838x/librtl838x.o
                0x0000000083f33138                rtl8218b_rtl8380_config
 .text.rtl8214fc_rtl8380_config
                0x0000000083f33e6c      0x850 board/Realtek/rtl838x/librtl838x.o
                0x0000000083f33e6c                rtl8214fc_rtl8380_config
 .text.rtl8214fc_basicSds_config
                0x0000000083f346bc      0x114 board/Realtek/rtl838x/librtl838x.o
                0x0000000083f346bc                rtl8214fc_basicSds_config
 .text.rtl8214fc_basicPhy_config
                0x0000000083f347d0      0x8d0 board/Realtek/rtl838x/librtl838x.o
                0x0000000083f347d0                rtl8214fc_basicPhy_config
 .text.rtl8214fc_basic_config
                0x0000000083f350a0       0x6c board/Realtek/rtl838x/librtl838x.o
                0x0000000083f350a0                rtl8214fc_basic_config
 .text.rtl8218b_config
                0x0000000083f3510c       0x40 board/Realtek/rtl838x/librtl838x.o
                0x0000000083f3510c                rtl8218b_config
 .text._rtl8218d_serdesMode_get
                0x0000000083f3514c      0x10c board/Realtek/rtl838x/librtl838x.o
                0x0000000083f3514c                _rtl8218d_serdesMode_get
 .text._rtl8218d_rtl8380_config
                0x0000000083f35258       0x7c board/Realtek/rtl838x/librtl838x.o
                0x0000000083f35258                _rtl8218d_rtl8380_config
 .text._rtl8218d_phy_config
                0x0000000083f352d4      0x34c board/Realtek/rtl838x/librtl838x.o
                0x0000000083f352d4                _rtl8218d_phy_config
 .text._rtl8218d_sdsBasic_config
                0x0000000083f35620       0x88 board/Realtek/rtl838x/librtl838x.o
                0x0000000083f35620                _rtl8218d_sdsBasic_config
 .text._rtl8218d_cust_conf
                0x0000000083f356a8      0x180 board/Realtek/rtl838x/librtl838x.o
                0x0000000083f356a8                _rtl8218d_cust_conf
 .text.rtl8218d_config
                0x0000000083f35828       0xf4 board/Realtek/rtl838x/librtl838x.o
                0x0000000083f35828                rtl8218d_config
 .text._phy_construct_samePhyTypeSmiBusfirstPort_get
                0x0000000083f3591c       0xc4 board/Realtek/rtl838x/librtl838x.o
                0x0000000083f3591c                _phy_construct_samePhyTypeSmiBusfirstPort_get
 .text._rtl8218e_sdsBasic_config
                0x0000000083f359e0      0x134 board/Realtek/rtl838x/librtl838x.o
                0x0000000083f359e0                _rtl8218e_sdsBasic_config
 .text.rtl8218e_perPort_config
                0x0000000083f35b14       0x94 board/Realtek/rtl838x/librtl838x.o
                0x0000000083f35b14                rtl8218e_perPort_config
 .text.rtl8218e_config
                0x0000000083f35ba8       0xd8 board/Realtek/rtl838x/librtl838x.o
                0x0000000083f35ba8                rtl8218e_config
 .text._phy_construct_config_init_broadcast
                0x0000000083f35c80      0x14c board/Realtek/rtl838x/librtl838x.o
                0x0000000083f35c80                _phy_construct_config_init_broadcast
 .text.phy_construct_config_init
                0x0000000083f35dcc      0x150 board/Realtek/rtl838x/librtl838x.o
                0x0000000083f35dcc                phy_construct_config_init
 .text.phy_driver_hook
                0x0000000083f35f1c      0x134 board/Realtek/rtl838x/librtl838x.o
                0x0000000083f35f1c                phy_driver_hook
 .text._phy_probe_defaultProfilePort_update
                0x0000000083f36050       0xa8 board/Realtek/rtl838x/librtl838x.o
                0x0000000083f36050                _phy_probe_defaultProfilePort_update
 .text.phy_probe
                0x0000000083f360f8      0x394 board/Realtek/rtl838x/librtl838x.o
                0x0000000083f360f8                phy_probe
 .text.phy_attach_hook_driver
                0x0000000083f3648c      0x138 board/Realtek/rtl838x/librtl838x.o
                0x0000000083f3648c                phy_attach_hook_driver
 .text.phy_init
                0x0000000083f365c4       0xfc board/Realtek/rtl838x/librtl838x.o
                0x0000000083f365c4                phy_init
 .text._phy_c22_check
                0x0000000083f366c0       0x78 board/Realtek/rtl838x/librtl838x.o
                0x0000000083f366c0                _phy_c22_check
 .text._phy_c45_check
                0x0000000083f36738      0x134 board/Realtek/rtl838x/librtl838x.o
                0x0000000083f36738                _phy_c45_check
 .text.phy_mdcProto_probe
                0x0000000083f3686c      0x1d0 board/Realtek/rtl838x/librtl838x.o
                0x0000000083f3686c                phy_mdcProto_probe
 .text._phy_identify_8380_serdes_ge
                0x0000000083f36a3c       0xf8 board/Realtek/rtl838x/librtl838x.o
 .text.phy_identify_OUI_check
                0x0000000083f36b34       0xcc board/Realtek/rtl838x/librtl838x.o
                0x0000000083f36b34                phy_identify_OUI_check
 .text._phy_mapper_hook
                0x0000000083f36c00       0x90 board/Realtek/rtl838x/librtl838x.o
                0x0000000083f36c00                _phy_mapper_hook
 .text.phy_identify_find
                0x0000000083f36c90       0xc8 board/Realtek/rtl838x/librtl838x.o
                0x0000000083f36c90                phy_identify_find
 .text.phy_identify_phyid_get
                0x0000000083f36d58       0x90 board/Realtek/rtl838x/librtl838x.o
                0x0000000083f36d58                phy_identify_phyid_get
 .text._phy_identify_default
                0x0000000083f36de8       0x90 board/Realtek/rtl838x/librtl838x.o
                0x0000000083f36de8                _phy_identify_default
 .text._phy_identify_8218dnmp
                0x0000000083f36e78      0x140 board/Realtek/rtl838x/librtl838x.o
 .text._phy_identify_8330_8208Lint
                0x0000000083f36fb8       0xb8 board/Realtek/rtl838x/librtl838x.o
 .text._phy_identify_8218e
                0x0000000083f37070       0x8c board/Realtek/rtl838x/librtl838x.o
 .text._phy_identify_8218d
                0x0000000083f370fc      0x188 board/Realtek/rtl838x/librtl838x.o
 .text._phy_identify_8214FC_MP
                0x0000000083f37284      0x204 board/Realtek/rtl838x/librtl838x.o
 .text._phy_identify_8214FC
                0x0000000083f37488      0x1a0 board/Realtek/rtl838x/librtl838x.o
 .text._phy_identify_8218B
                0x0000000083f37628      0x1b8 board/Realtek/rtl838x/librtl838x.o
 .text.phy_identify_serdesDrvCtrl_get
                0x0000000083f377e0       0xa0 board/Realtek/rtl838x/librtl838x.o
                0x0000000083f377e0                phy_identify_serdesDrvCtrl_get
 .text._phy_identify_phyctrl_register
                0x0000000083f37880       0xcc board/Realtek/rtl838x/librtl838x.o
                0x0000000083f37880                _phy_identify_phyctrl_register
 .text.phy_identify_driver_find_by_phyType
                0x0000000083f3794c       0x60 board/Realtek/rtl838x/librtl838x.o
                0x0000000083f3794c                phy_identify_driver_find_by_phyType
 .text.phy_identify_driver_find_blindly
                0x0000000083f379ac       0xdc board/Realtek/rtl838x/librtl838x.o
                0x0000000083f379ac                phy_identify_driver_find_blindly
 .text.phy_identify_init
                0x0000000083f37a88       0x98 board/Realtek/rtl838x/librtl838x.o
                0x0000000083f37a88                phy_identify_init
 .text.chip_construct
                0x0000000083f37b20       0xf8 board/Realtek/rtl838x/librtl838x.o
                0x0000000083f37b20                chip_construct
 .text.dal_mgmt_mapper_allocate
                0x0000000083f37c18       0x4c board/Realtek/rtl838x/librtl838x.o
                0x0000000083f37c18                dal_mgmt_mapper_allocate
 .text.dal_mgmt_mapper_init
                0x0000000083f37c64       0xfc board/Realtek/rtl838x/librtl838x.o
                0x0000000083f37c64                dal_mgmt_mapper_init
 .text.dal_mgmt_mapper_clear
                0x0000000083f37d60       0x8c board/Realtek/rtl838x/librtl838x.o
                0x0000000083f37d60                dal_mgmt_mapper_clear
 .text.dal_mgmt_initDevice
                0x0000000083f37dec       0xd4 board/Realtek/rtl838x/librtl838x.o
                0x0000000083f37dec                dal_mgmt_initDevice
 .text.dal_mgmt_init
                0x0000000083f37ec0      0x118 board/Realtek/rtl838x/librtl838x.o
                0x0000000083f37ec0                dal_mgmt_init
 .text.dal_phy_init
                0x0000000083f37fd8      0x45c board/Realtek/rtl838x/librtl838x.o
                0x0000000083f37fd8                dal_phy_init
 .text.dal_phy_portPtpRxTimestamp_get
                0x0000000083f38434      0x174 board/Realtek/rtl838x/librtl838x.o
                0x0000000083f38434                dal_phy_portPtpRxTimestamp_get
 .text.dal_phy_portPtpTxTimestamp_get
                0x0000000083f385a8      0x174 board/Realtek/rtl838x/librtl838x.o
                0x0000000083f385a8                dal_phy_portPtpTxTimestamp_get
 .text.dal_phy_portRefTime_set
                0x0000000083f3871c      0x1e0 board/Realtek/rtl838x/librtl838x.o
                0x0000000083f3871c                dal_phy_portRefTime_set
 .text.dal_phy_portRefTimeAdjust_set
                0x0000000083f388fc      0x1f8 board/Realtek/rtl838x/librtl838x.o
                0x0000000083f388fc                dal_phy_portRefTimeAdjust_set
 .text.dal_phy_portRefTimeEnable_set
                0x0000000083f38af4      0x1b8 board/Realtek/rtl838x/librtl838x.o
                0x0000000083f38af4                dal_phy_portRefTimeEnable_set
 .text.dal_phy_portRefTimeFreq_set
                0x0000000083f38cac      0x1b8 board/Realtek/rtl838x/librtl838x.o
                0x0000000083f38cac                dal_phy_portRefTimeFreq_set
 .text.dal_phy_portRtctResult_get
                0x0000000083f38e64      0x11c board/Realtek/rtl838x/librtl838x.o
                0x0000000083f38e64                dal_phy_portRtctResult_get
 .text.dal_phy_portForceFlowctrlMode_get
                0x0000000083f38f80      0x124 board/Realtek/rtl838x/librtl838x.o
                0x0000000083f38f80                dal_phy_portForceFlowctrlMode_get
 .text.dal_phy_portForceFlowctrlMode_set
                0x0000000083f390a4      0x124 board/Realtek/rtl838x/librtl838x.o
                0x0000000083f390a4                dal_phy_portForceFlowctrlMode_set
 .text.dal_phy_rtctEnable_set
                0x0000000083f391c8      0x190 board/Realtek/rtl838x/librtl838x.o
                0x0000000083f391c8                dal_phy_rtctEnable_set
 .text.dal_phy_portAutoNegoEnable_get
                0x0000000083f39358      0x158 board/Realtek/rtl838x/librtl838x.o
                0x0000000083f39358                dal_phy_portAutoNegoEnable_get
 .text.dal_phy_portMasterSlave_get
                0x0000000083f394b0      0x134 board/Realtek/rtl838x/librtl838x.o
                0x0000000083f394b0                dal_phy_portMasterSlave_get
 .text.dal_phy_portMasterSlave_set
                0x0000000083f395e4      0x12c board/Realtek/rtl838x/librtl838x.o
                0x0000000083f395e4                dal_phy_portMasterSlave_set
 .text.dal_phy_portReg_get
                0x0000000083f39710      0x104 board/Realtek/rtl838x/librtl838x.o
                0x0000000083f39710                dal_phy_portReg_get
 .text.dal_phy_portReg_set
                0x0000000083f39814       0xf4 board/Realtek/rtl838x/librtl838x.o
                0x0000000083f39814                dal_phy_portReg_set
 .text.dal_phy_portMmdReg_get
                0x0000000083f39908      0x104 board/Realtek/rtl838x/librtl838x.o
                0x0000000083f39908                dal_phy_portMmdReg_get
 .text.dal_phy_portMmdReg_set
                0x0000000083f39a0c       0xf4 board/Realtek/rtl838x/librtl838x.o
                0x0000000083f39a0c                dal_phy_portMmdReg_set
 .text.dal_phy_portmaskMmdReg_set
                0x0000000083f39b00      0x11c board/Realtek/rtl838x/librtl838x.o
                0x0000000083f39b00                dal_phy_portmaskMmdReg_set
 .text.dal_phy_portComboPortMedia_get
                0x0000000083f39c1c      0x144 board/Realtek/rtl838x/librtl838x.o
                0x0000000083f39c1c                dal_phy_portComboPortMedia_get
 .text.dal_phy_portComboPortMedia_set
                0x0000000083f39d60      0x148 board/Realtek/rtl838x/librtl838x.o
                0x0000000083f39d60                dal_phy_portComboPortMedia_set
 .text.dal_phy_portComboPortFiberMedia_get
                0x0000000083f39ea8      0x144 board/Realtek/rtl838x/librtl838x.o
                0x0000000083f39ea8                dal_phy_portComboPortFiberMedia_get
 .text.dal_phy_portComboPortFiberMedia_set
                0x0000000083f39fec      0x148 board/Realtek/rtl838x/librtl838x.o
                0x0000000083f39fec                dal_phy_portComboPortFiberMedia_set
 .text.dal_phy_portLinkDownPowerSavingEnable_get
                0x0000000083f3a134      0x144 board/Realtek/rtl838x/librtl838x.o
                0x0000000083f3a134                dal_phy_portLinkDownPowerSavingEnable_get
 .text.dal_phy_portLinkDownPowerSavingEnable_set
                0x0000000083f3a278      0x148 board/Realtek/rtl838x/librtl838x.o
                0x0000000083f3a278                dal_phy_portLinkDownPowerSavingEnable_set
 .text.dal_phy_portGigaLiteEnable_get
                0x0000000083f3a3c0      0x144 board/Realtek/rtl838x/librtl838x.o
                0x0000000083f3a3c0                dal_phy_portGigaLiteEnable_get
 .text.dal_phy_portGigaLiteEnable_set
                0x0000000083f3a504      0x148 board/Realtek/rtl838x/librtl838x.o
                0x0000000083f3a504                dal_phy_portGigaLiteEnable_set
 .text.dal_phy_port2pt5gLiteEnable_get
                0x0000000083f3a64c      0x144 board/Realtek/rtl838x/librtl838x.o
                0x0000000083f3a64c                dal_phy_port2pt5gLiteEnable_get
 .text.dal_phy_port2pt5gLiteEnable_set
                0x0000000083f3a790      0x148 board/Realtek/rtl838x/librtl838x.o
                0x0000000083f3a790                dal_phy_port2pt5gLiteEnable_set
 .text.dal_phy_portGreenEnable_get
                0x0000000083f3a8d8      0x144 board/Realtek/rtl838x/librtl838x.o
                0x0000000083f3a8d8                dal_phy_portGreenEnable_get
 .text.dal_phy_portGreenEnable_set
                0x0000000083f3aa1c      0x148 board/Realtek/rtl838x/librtl838x.o
                0x0000000083f3aa1c                dal_phy_portGreenEnable_set
 .text.dal_phy_portEeeEnable_get
                0x0000000083f3ab64      0x144 board/Realtek/rtl838x/librtl838x.o
                0x0000000083f3ab64                dal_phy_portEeeEnable_get
 .text.dal_phy_portEeeEnable_set
                0x0000000083f3aca8      0x148 board/Realtek/rtl838x/librtl838x.o
                0x0000000083f3aca8                dal_phy_portEeeEnable_set
 .text.dal_phy_portCrossOverMode_get
                0x0000000083f3adf0      0x144 board/Realtek/rtl838x/librtl838x.o
                0x0000000083f3adf0                dal_phy_portCrossOverMode_get
 .text.dal_phy_portCrossOverMode_set
                0x0000000083f3af34      0x148 board/Realtek/rtl838x/librtl838x.o
                0x0000000083f3af34                dal_phy_portCrossOverMode_set
 .text.dal_phy_portCrossOverStatus_get
                0x0000000083f3b07c      0x144 board/Realtek/rtl838x/librtl838x.o
                0x0000000083f3b07c                dal_phy_portCrossOverStatus_get
 .text.dal_phy_portDownSpeedEnable_get
                0x0000000083f3b1c0      0x144 board/Realtek/rtl838x/librtl838x.o
                0x0000000083f3b1c0                dal_phy_portDownSpeedEnable_get
 .text.dal_phy_portDownSpeedEnable_set
                0x0000000083f3b304      0x148 board/Realtek/rtl838x/librtl838x.o
                0x0000000083f3b304                dal_phy_portDownSpeedEnable_set
 .text.dal_phy_portDownSpeedStatus_get
                0x0000000083f3b44c      0x144 board/Realtek/rtl838x/librtl838x.o
                0x0000000083f3b44c                dal_phy_portDownSpeedStatus_get
 .text.dal_phy_portFiberDownSpeedEnable_get
                0x0000000083f3b590      0x144 board/Realtek/rtl838x/librtl838x.o
                0x0000000083f3b590                dal_phy_portFiberDownSpeedEnable_get
 .text.dal_phy_portFiberDownSpeedEnable_set
                0x0000000083f3b6d4      0x148 board/Realtek/rtl838x/librtl838x.o
                0x0000000083f3b6d4                dal_phy_portFiberDownSpeedEnable_set
 .text.dal_phy_portLoopBack_get
                0x0000000083f3b81c      0x16c board/Realtek/rtl838x/librtl838x.o
                0x0000000083f3b81c                dal_phy_portLoopBack_get
 .text.dal_phy_portLoopBack_set
                0x0000000083f3b988      0x170 board/Realtek/rtl838x/librtl838x.o
                0x0000000083f3b988                dal_phy_portLoopBack_set
 .text.dal_phy_portFiberTxDis_set
                0x0000000083f3baf8      0x158 board/Realtek/rtl838x/librtl838x.o
                0x0000000083f3baf8                dal_phy_portFiberTxDis_set
 .text.dal_phy_portFiberTxDisPin_set
                0x0000000083f3bc50      0x14c board/Realtek/rtl838x/librtl838x.o
                0x0000000083f3bc50                dal_phy_portFiberTxDisPin_set
 .text.dal_phy_portExtParkPageReg_get
                0x0000000083f3bd9c      0x16c board/Realtek/rtl838x/librtl838x.o
                0x0000000083f3bd9c                dal_phy_portExtParkPageReg_get
 .text.dal_phy_portExtParkPageReg_set
                0x0000000083f3bf08      0x15c board/Realtek/rtl838x/librtl838x.o
                0x0000000083f3bf08                dal_phy_portExtParkPageReg_set
 .text.dal_phy_portmaskExtParkPageReg_set
                0x0000000083f3c064      0x134 board/Realtek/rtl838x/librtl838x.o
                0x0000000083f3c064                dal_phy_portmaskExtParkPageReg_set
 .text.dal_phy_portFiberNwayForceLinkEnable_get
                0x0000000083f3c198      0x158 board/Realtek/rtl838x/librtl838x.o
                0x0000000083f3c198                dal_phy_portFiberNwayForceLinkEnable_get
 .text.dal_phy_portFiberNwayForceLinkEnable_set
                0x0000000083f3c2f0      0x15c board/Realtek/rtl838x/librtl838x.o
                0x0000000083f3c2f0                dal_phy_portFiberNwayForceLinkEnable_set
 .text.dal_phy_portForceModeAbility_get
                0x0000000083f3c44c      0x2e0 board/Realtek/rtl838x/librtl838x.o
                0x0000000083f3c44c                dal_phy_portForceModeAbility_get
 .text.dal_phy_portAutoNegoAbility_get
                0x0000000083f3c72c      0x200 board/Realtek/rtl838x/librtl838x.o
                0x0000000083f3c72c                dal_phy_portAutoNegoAbility_get
 .text.dal_phy_portAutoNegoAbilityLocal_get
                0x0000000083f3c92c      0x160 board/Realtek/rtl838x/librtl838x.o
                0x0000000083f3c92c                dal_phy_portAutoNegoAbilityLocal_get
 .text.dal_phy_portFiberRxEnable_get
                0x0000000083f3ca8c      0x144 board/Realtek/rtl838x/librtl838x.o
                0x0000000083f3ca8c                dal_phy_portFiberRxEnable_get
 .text.dal_phy_portFiberRxEnable_set
                0x0000000083f3cbd0      0x144 board/Realtek/rtl838x/librtl838x.o
                0x0000000083f3cbd0                dal_phy_portFiberRxEnable_set
 .text.dal_phy_port10gMedia_get
                0x0000000083f3cd14      0x144 board/Realtek/rtl838x/librtl838x.o
                0x0000000083f3cd14                dal_phy_port10gMedia_get
 .text.dal_phy_port10gMedia_set
                0x0000000083f3ce58      0x144 board/Realtek/rtl838x/librtl838x.o
                0x0000000083f3ce58                dal_phy_port10gMedia_set
 .text.dal_phy_portIeeeTestMode_set
                0x0000000083f3cf9c      0x120 board/Realtek/rtl838x/librtl838x.o
                0x0000000083f3cf9c                dal_phy_portIeeeTestMode_set
 .text.dal_phy_polar_get
                0x0000000083f3d0bc      0x148 board/Realtek/rtl838x/librtl838x.o
                0x0000000083f3d0bc                dal_phy_polar_get
 .text.dal_phy_polar_set
                0x0000000083f3d204      0x168 board/Realtek/rtl838x/librtl838x.o
                0x0000000083f3d204                dal_phy_polar_set
 .text.dal_phy_portEyeMonitor_start
                0x0000000083f3d36c      0x130 board/Realtek/rtl838x/librtl838x.o
                0x0000000083f3d36c                dal_phy_portEyeMonitor_start
 .text.dal_phy_portEyeMonitorInfo_get
                0x0000000083f3d49c      0x138 board/Realtek/rtl838x/librtl838x.o
                0x0000000083f3d49c                dal_phy_portEyeMonitorInfo_get
 .text.dal_phy_portFlashImage_load
                0x0000000083f3d5d4      0x130 board/Realtek/rtl838x/librtl838x.o
                0x0000000083f3d5d4                dal_phy_portFlashImage_load
 .text.dal_phy_portSds_get
                0x0000000083f3d704      0x144 board/Realtek/rtl838x/librtl838x.o
                0x0000000083f3d704                dal_phy_portSds_get
 .text.dal_phy_portSds_set
                0x0000000083f3d848      0x144 board/Realtek/rtl838x/librtl838x.o
                0x0000000083f3d848                dal_phy_portSds_set
 .text.dal_phy_sdsRxCaliStatus_get
                0x0000000083f3d98c      0x160 board/Realtek/rtl838x/librtl838x.o
                0x0000000083f3d98c                dal_phy_sdsRxCaliStatus_get
 .text.dal_phy_portEnable_get
                0x0000000083f3daec      0x144 board/Realtek/rtl838x/librtl838x.o
                0x0000000083f3daec                dal_phy_portEnable_get
 .text.dal_phy_portEnable_set
                0x0000000083f3dc30       0xc8 board/Realtek/rtl838x/librtl838x.o
                0x0000000083f3dc30                dal_phy_portEnable_set
 .text.dal_phy_portPtpEnable_get
                0x0000000083f3dcf8      0x164 board/Realtek/rtl838x/librtl838x.o
                0x0000000083f3dcf8                dal_phy_portPtpEnable_get
 .text.dal_phy_portPtpEnable_set
                0x0000000083f3de5c      0x138 board/Realtek/rtl838x/librtl838x.o
                0x0000000083f3de5c                dal_phy_portPtpEnable_set
 .text.dal_phy_portRefTime_get
                0x0000000083f3df94      0x164 board/Realtek/rtl838x/librtl838x.o
                0x0000000083f3df94                dal_phy_portRefTime_get
 .text.dal_phy_time_portPtpFullSec_get
                0x0000000083f3e0f8      0x230 board/Realtek/rtl838x/librtl838x.o
                0x0000000083f3e0f8                dal_phy_time_portPtpFullSec_get
 .text.dal_phy_portRefTimeEnable_get
                0x0000000083f3e328      0x164 board/Realtek/rtl838x/librtl838x.o
                0x0000000083f3e328                dal_phy_portRefTimeEnable_get
 .text.dal_phy_portRefTimeFreq_get
                0x0000000083f3e48c      0x164 board/Realtek/rtl838x/librtl838x.o
                0x0000000083f3e48c                dal_phy_portRefTimeFreq_get
 .text.dal_phy_portSwitchMacAddr_get
                0x0000000083f3e5f0      0x164 board/Realtek/rtl838x/librtl838x.o
                0x0000000083f3e5f0                dal_phy_portSwitchMacAddr_get
 .text.dal_phy_portSwitchMacAddr_set
                0x0000000083f3e754       0xf4 board/Realtek/rtl838x/librtl838x.o
                0x0000000083f3e754                dal_phy_portSwitchMacAddr_set
 .text.dal_phy_portPtpMacAddrRange_get
                0x0000000083f3e848      0x164 board/Realtek/rtl838x/librtl838x.o
                0x0000000083f3e848                dal_phy_portPtpMacAddrRange_get
 .text.dal_phy_portPtpMacAddrRange_set
                0x0000000083f3e9ac       0xf4 board/Realtek/rtl838x/librtl838x.o
                0x0000000083f3e9ac                dal_phy_portPtpMacAddrRange_set
 .text.dal_phy_portPtpVlanTpid_get
                0x0000000083f3eaa0      0x194 board/Realtek/rtl838x/librtl838x.o
                0x0000000083f3eaa0                dal_phy_portPtpVlanTpid_get
 .text.dal_phy_portPtpVlanTpid_set
                0x0000000083f3ec34      0x104 board/Realtek/rtl838x/librtl838x.o
                0x0000000083f3ec34                dal_phy_portPtpVlanTpid_set
 .text.dal_phy_portPtpOper_get
                0x0000000083f3ed38      0x164 board/Realtek/rtl838x/librtl838x.o
                0x0000000083f3ed38                dal_phy_portPtpOper_get
 .text.dal_phy_portPtpOper_set
                0x0000000083f3ee9c       0xf4 board/Realtek/rtl838x/librtl838x.o
                0x0000000083f3ee9c                dal_phy_portPtpOper_set
 .text.dal_phy_portPtpLatchTime_get
                0x0000000083f3ef90      0x164 board/Realtek/rtl838x/librtl838x.o
                0x0000000083f3ef90                dal_phy_portPtpLatchTime_get
 .text.dal_phy_portPtpRefTimeFreqCfg_get
                0x0000000083f3f0f4      0x150 board/Realtek/rtl838x/librtl838x.o
                0x0000000083f3f0f4                dal_phy_portPtpRefTimeFreqCfg_get
 .text.dal_phy_portPtpRefTimeFreqCfg_set
                0x0000000083f3f244      0x144 board/Realtek/rtl838x/librtl838x.o
                0x0000000083f3f244                dal_phy_portPtpRefTimeFreqCfg_set
 .text.dal_phy_portPtpTxInterruptStatus_get
                0x0000000083f3f388      0x144 board/Realtek/rtl838x/librtl838x.o
                0x0000000083f3f388                dal_phy_portPtpTxInterruptStatus_get
 .text.dal_phy_portPtpInterruptEnable_get
                0x0000000083f3f4cc      0x144 board/Realtek/rtl838x/librtl838x.o
                0x0000000083f3f4cc                dal_phy_portPtpInterruptEnable_get
 .text.dal_phy_portPtpInterruptEnable_set
                0x0000000083f3f610      0x148 board/Realtek/rtl838x/librtl838x.o
                0x0000000083f3f610                dal_phy_portPtpInterruptEnable_set
 .text.dal_phy_portPtpTxTimestampFifo_get
                0x0000000083f3f758      0x17c board/Realtek/rtl838x/librtl838x.o
                0x0000000083f3f758                dal_phy_portPtpTxTimestampFifo_get
 .text.dal_phy_portPtp1PPSOutput_get
                0x0000000083f3f8d4      0x150 board/Realtek/rtl838x/librtl838x.o
                0x0000000083f3f8d4                dal_phy_portPtp1PPSOutput_get
 .text.dal_phy_portPtp1PPSOutput_set
                0x0000000083f3fa24      0x150 board/Realtek/rtl838x/librtl838x.o
                0x0000000083f3fa24                dal_phy_portPtp1PPSOutput_set
 .text.dal_phy_portPtpClockOutput_get
                0x0000000083f3fb74      0x144 board/Realtek/rtl838x/librtl838x.o
                0x0000000083f3fb74                dal_phy_portPtpClockOutput_get
 .text.dal_phy_portPtpClockOutput_set
                0x0000000083f3fcb8      0x144 board/Realtek/rtl838x/librtl838x.o
                0x0000000083f3fcb8                dal_phy_portPtpClockOutput_set
 .text.dal_phy_portPtpOutputSigSel_get
                0x0000000083f3fdfc      0x144 board/Realtek/rtl838x/librtl838x.o
                0x0000000083f3fdfc                dal_phy_portPtpOutputSigSel_get
 .text.dal_phy_portPtpOutputSigSel_set
                0x0000000083f3ff40      0x148 board/Realtek/rtl838x/librtl838x.o
                0x0000000083f3ff40                dal_phy_portPtpOutputSigSel_set
 .text.dal_phy_portPtpTransEnable_get
                0x0000000083f40088      0x144 board/Realtek/rtl838x/librtl838x.o
                0x0000000083f40088                dal_phy_portPtpTransEnable_get
 .text.dal_phy_portPtpTransEnable_set
                0x0000000083f401cc      0x148 board/Realtek/rtl838x/librtl838x.o
                0x0000000083f401cc                dal_phy_portPtpTransEnable_set
 .text.dal_phy_portPtpLinkDelay_get
                0x0000000083f40314      0x144 board/Realtek/rtl838x/librtl838x.o
                0x0000000083f40314                dal_phy_portPtpLinkDelay_get
 .text.dal_phy_portPtpLinkDelay_set
                0x0000000083f40458      0x13c board/Realtek/rtl838x/librtl838x.o
                0x0000000083f40458                dal_phy_portPtpLinkDelay_set
 .text.dal_phy_portReset_set
                0x0000000083f40594      0x130 board/Realtek/rtl838x/librtl838x.o
                0x0000000083f40594                dal_phy_portReset_set
 .text.dal_phy_portLinkStatus_get
                0x0000000083f406c4      0x144 board/Realtek/rtl838x/librtl838x.o
                0x0000000083f406c4                dal_phy_portLinkStatus_get
 .text.dal_phy_portLinkMedia_get
                0x0000000083f40808      0x1ac board/Realtek/rtl838x/librtl838x.o
                0x0000000083f40808                dal_phy_portLinkMedia_get
 .text.dal_phy_portPeerAutoNegoAbility_get
                0x0000000083f409b4      0x144 board/Realtek/rtl838x/librtl838x.o
                0x0000000083f409b4                dal_phy_portPeerAutoNegoAbility_get
 .text.dal_phy_portMacIntfSerdesMode_get
                0x0000000083f40af8       0xc8 board/Realtek/rtl838x/librtl838x.o
                0x0000000083f40af8                dal_phy_portMacIntfSerdesMode_get
 .text.dal_phy_portLedMode_set
                0x0000000083f40bc0       0xc8 board/Realtek/rtl838x/librtl838x.o
                0x0000000083f40bc0                dal_phy_portLedMode_set
 .text.dal_phy_portLedCtrl_get
                0x0000000083f40c88      0x10c board/Realtek/rtl838x/librtl838x.o
                0x0000000083f40c88                dal_phy_portLedCtrl_get
 .text.dal_phy_portLedCtrl_set
                0x0000000083f40d94      0x10c board/Realtek/rtl838x/librtl838x.o
                0x0000000083f40d94                dal_phy_portLedCtrl_set
 .text.dal_phy_portMacIntfSerdesLinkStatus_get
                0x0000000083f40ea0      0x118 board/Realtek/rtl838x/librtl838x.o
                0x0000000083f40ea0                dal_phy_portMacIntfSerdesLinkStatus_get
 .text.dal_phy_portSdsEyeParam_get
                0x0000000083f40fb8      0x114 board/Realtek/rtl838x/librtl838x.o
                0x0000000083f40fb8                dal_phy_portSdsEyeParam_get
 .text.dal_phy_portSdsEyeParam_set
                0x0000000083f410cc      0x114 board/Realtek/rtl838x/librtl838x.o
                0x0000000083f410cc                dal_phy_portSdsEyeParam_set
 .text.dal_phy_portMdiLoopbackEnable_get
                0x0000000083f411e0      0x144 board/Realtek/rtl838x/librtl838x.o
                0x0000000083f411e0                dal_phy_portMdiLoopbackEnable_get
 .text.dal_phy_portMdiLoopbackEnable_set
                0x0000000083f41324      0x148 board/Realtek/rtl838x/librtl838x.o
                0x0000000083f41324                dal_phy_portMdiLoopbackEnable_set
 .text.dal_phy_portIntr_init
                0x0000000083f4146c      0x158 board/Realtek/rtl838x/librtl838x.o
                0x0000000083f4146c                dal_phy_portIntr_init
 .text.dal_phy_portIntrEnable_get
                0x0000000083f415c4      0x16c board/Realtek/rtl838x/librtl838x.o
                0x0000000083f415c4                dal_phy_portIntrEnable_get
 .text.dal_phy_portIntrEnable_set
                0x0000000083f41730      0x160 board/Realtek/rtl838x/librtl838x.o
                0x0000000083f41730                dal_phy_portIntrEnable_set
 .text.dal_phy_portIntrStatus_get
                0x0000000083f41890      0x16c board/Realtek/rtl838x/librtl838x.o
                0x0000000083f41890                dal_phy_portIntrStatus_get
 .text.dal_phy_portIntrMask_get
                0x0000000083f419fc      0x16c board/Realtek/rtl838x/librtl838x.o
                0x0000000083f419fc                dal_phy_portIntrMask_get
 .text.dal_phy_portIntrMask_set
                0x0000000083f41b68      0x160 board/Realtek/rtl838x/librtl838x.o
                0x0000000083f41b68                dal_phy_portIntrMask_set
 .text.dal_phy_portPhySdsTestMode_set
                0x0000000083f41cc8      0x154 board/Realtek/rtl838x/librtl838x.o
                0x0000000083f41cc8                dal_phy_portPhySdsTestMode_set
 .text.dal_phy_portPhySdsTestModeCnt_get
                0x0000000083f41e1c      0x160 board/Realtek/rtl838x/librtl838x.o
                0x0000000083f41e1c                dal_phy_portPhySdsTestModeCnt_get
 .text.dal_phy_portSdsLeq_get
                0x0000000083f41f7c      0x160 board/Realtek/rtl838x/librtl838x.o
                0x0000000083f41f7c                dal_phy_portSdsLeq_get
 .text.dal_phy_portSdsLeq_set
                0x0000000083f420dc      0x158 board/Realtek/rtl838x/librtl838x.o
                0x0000000083f420dc                dal_phy_portSdsLeq_set
 .text.dal_phy_portCtrl_get
                0x0000000083f42234      0x14c board/Realtek/rtl838x/librtl838x.o
                0x0000000083f42234                dal_phy_portCtrl_get
 .text.dal_phy_portCtrl_set
                0x0000000083f42380      0x144 board/Realtek/rtl838x/librtl838x.o
                0x0000000083f42380                dal_phy_portCtrl_set
 .text.dal_phy_debug_get
                0x0000000083f424c4      0x440 board/Realtek/rtl838x/librtl838x.o
                0x0000000083f424c4                dal_phy_debug_get
 .text.dal_phy_portLiteEnable_get
                0x0000000083f42904      0x14c board/Realtek/rtl838x/librtl838x.o
                0x0000000083f42904                dal_phy_portLiteEnable_get
 .text.dal_phy_portLiteEnable_set
                0x0000000083f42a50      0x150 board/Realtek/rtl838x/librtl838x.o
                0x0000000083f42a50                dal_phy_portLiteEnable_set
 .text.dal_phy_portSpeedDuplex_get
                0x0000000083f42ba0      0x150 board/Realtek/rtl838x/librtl838x.o
                0x0000000083f42ba0                dal_phy_portSpeedDuplex_get
 .text.dal_phy_portDbgCounter_get
                0x0000000083f42cf0      0x14c board/Realtek/rtl838x/librtl838x.o
                0x0000000083f42cf0                dal_phy_portDbgCounter_get
 .text.dal_phy_debug_batch_port_set
                0x0000000083f42e3c       0x6c board/Realtek/rtl838x/librtl838x.o
                0x0000000083f42e3c                dal_phy_debug_batch_port_set
 .text.dal_phy_port_macsecReg_get
                0x0000000083f42ea8      0x14c board/Realtek/rtl838x/librtl838x.o
                0x0000000083f42ea8                dal_phy_port_macsecReg_get
 .text.dal_phy_port_macsecReg_set
                0x0000000083f42ff4      0x138 board/Realtek/rtl838x/librtl838x.o
                0x0000000083f42ff4                dal_phy_port_macsecReg_set
 .text.dal_phy_macsec_port_cfg_set
                0x0000000083f4312c      0x134 board/Realtek/rtl838x/librtl838x.o
                0x0000000083f4312c                dal_phy_macsec_port_cfg_set
 .text.dal_phy_macsec_port_cfg_get
                0x0000000083f43260      0x134 board/Realtek/rtl838x/librtl838x.o
                0x0000000083f43260                dal_phy_macsec_port_cfg_get
 .text.dal_phy_macsec_sc_create
                0x0000000083f43394      0x158 board/Realtek/rtl838x/librtl838x.o
                0x0000000083f43394                dal_phy_macsec_sc_create
 .text.dal_phy_macsec_sc_get
                0x0000000083f434ec      0x160 board/Realtek/rtl838x/librtl838x.o
                0x0000000083f434ec                dal_phy_macsec_sc_get
 .text.dal_phy_macsec_sc_del
                0x0000000083f4364c      0x148 board/Realtek/rtl838x/librtl838x.o
                0x0000000083f4364c                dal_phy_macsec_sc_del
 .text.dal_phy_macsec_sc_status_get
                0x0000000083f43794      0x160 board/Realtek/rtl838x/librtl838x.o
                0x0000000083f43794                dal_phy_macsec_sc_status_get
 .text.dal_phy_macsec_sa_create
                0x0000000083f438f4      0x188 board/Realtek/rtl838x/librtl838x.o
                0x0000000083f438f4                dal_phy_macsec_sa_create
 .text.dal_phy_macsec_sa_get
                0x0000000083f43a7c      0x188 board/Realtek/rtl838x/librtl838x.o
                0x0000000083f43a7c                dal_phy_macsec_sa_get
 .text.dal_phy_macsec_sa_del
                0x0000000083f43c04      0x164 board/Realtek/rtl838x/librtl838x.o
                0x0000000083f43c04                dal_phy_macsec_sa_del
 .text.dal_phy_macsec_sa_activate
                0x0000000083f43d68      0x164 board/Realtek/rtl838x/librtl838x.o
                0x0000000083f43d68                dal_phy_macsec_sa_activate
 .text.dal_phy_macsec_rxsa_disable
                0x0000000083f43ecc      0x148 board/Realtek/rtl838x/librtl838x.o
                0x0000000083f43ecc                dal_phy_macsec_rxsa_disable
 .text.dal_phy_macsec_txsa_disable
                0x0000000083f44014      0x134 board/Realtek/rtl838x/librtl838x.o
                0x0000000083f44014                dal_phy_macsec_txsa_disable
 .text.dal_phy_macsec_stat_clear
                0x0000000083f44148      0x120 board/Realtek/rtl838x/librtl838x.o
                0x0000000083f44148                dal_phy_macsec_stat_clear
 .text.dal_phy_macsec_stat_port_get
                0x0000000083f44268      0x144 board/Realtek/rtl838x/librtl838x.o
                0x0000000083f44268                dal_phy_macsec_stat_port_get
 .text.dal_phy_macsec_stat_txsa_get
                0x0000000083f443ac      0x188 board/Realtek/rtl838x/librtl838x.o
                0x0000000083f443ac                dal_phy_macsec_stat_txsa_get
 .text.dal_phy_macsec_stat_rxsa_get
                0x0000000083f44534      0x188 board/Realtek/rtl838x/librtl838x.o
                0x0000000083f44534                dal_phy_macsec_stat_rxsa_get
 .text.dal_phy_macsec_intr_status_get
                0x0000000083f446bc      0x134 board/Realtek/rtl838x/librtl838x.o
                0x0000000083f446bc                dal_phy_macsec_intr_status_get
 .text.dal_phy_portSdsReg_set
                0x0000000083f447f0       0xf4 board/Realtek/rtl838x/librtl838x.o
                0x0000000083f447f0                dal_phy_portSdsReg_set
 .text.dal_phy_portSdsReg_get
                0x0000000083f448e4      0x104 board/Realtek/rtl838x/librtl838x.o
                0x0000000083f448e4                dal_phy_portSdsReg_get
 .text._dal_phy_portForceModePause_get
                0x0000000083f449e8       0x68 board/Realtek/rtl838x/librtl838x.o
                0x0000000083f449e8                _dal_phy_portForceModePause_get
 .text.dal_phy_portForceModeAbility_set
                0x0000000083f44a50      0x3b4 board/Realtek/rtl838x/librtl838x.o
                0x0000000083f44a50                dal_phy_portForceModeAbility_set
 .text.dal_phy_portAutoNegoAbility_set
                0x0000000083f44e04      0x298 board/Realtek/rtl838x/librtl838x.o
                0x0000000083f44e04                dal_phy_portAutoNegoAbility_set
 .text.dal_phyMapper_init
                0x0000000083f4509c      0x74c board/Realtek/rtl838x/librtl838x.o
                0x0000000083f4509c                dal_phyMapper_init
 .text.dal_phy_portAutoNegoEnablePortmask_set
                0x0000000083f457e8      0x578 board/Realtek/rtl838x/librtl838x.o
                0x0000000083f457e8                dal_phy_portAutoNegoEnablePortmask_set
 .text.dal_phy_portAutoNegoEnable_set
                0x0000000083f45d60       0xf8 board/Realtek/rtl838x/librtl838x.o
                0x0000000083f45d60                dal_phy_portAutoNegoEnable_set
 .text._dal_phy_debug_batch_init
                0x0000000083f45e58       0xd0 board/Realtek/rtl838x/librtl838x.o
                0x0000000083f45e58                _dal_phy_debug_batch_init
 .text._dal_phy_debug_batch_entry_print
                0x0000000083f45f28      0x18c board/Realtek/rtl838x/librtl838x.o
                0x0000000083f45f28                _dal_phy_debug_batch_entry_print
 .text._dal_phy_debug_batch_set
                0x0000000083f460b4       0xbc board/Realtek/rtl838x/librtl838x.o
                0x0000000083f460b4                _dal_phy_debug_batch_set
 .text._dal_phy_debug_batch_run_op
                0x0000000083f46170      0x654 board/Realtek/rtl838x/librtl838x.o
                0x0000000083f46170                _dal_phy_debug_batch_run_op
 .text._dal_phy_debug_batch_loop
                0x0000000083f467c4      0x154 board/Realtek/rtl838x/librtl838x.o
                0x0000000083f467c4                _dal_phy_debug_batch_loop
 .text._dal_phy_debug_batch_run
                0x0000000083f46918      0x21c board/Realtek/rtl838x/librtl838x.o
                0x0000000083f46918                _dal_phy_debug_batch_run
 .text.dal_phy_debug_batch_op_set
                0x0000000083f46b34      0x230 board/Realtek/rtl838x/librtl838x.o
                0x0000000083f46b34                dal_phy_debug_batch_op_set
 .text.dal_common_unavail
                0x0000000083f46d64        0x8 board/Realtek/rtl838x/librtl838x.o
                0x0000000083f46d64                dal_common_unavail
 .text.rtk_init
                0x0000000083f46d6c      0x118 board/Realtek/rtl838x/librtl838x.o
                0x0000000083f46d6c                rtk_init
 .text.rtk_port_isolation_set
                0x0000000083f46e84       0x48 board/Realtek/rtl838x/librtl838x.o
                0x0000000083f46e84                rtk_port_isolation_set
 .text.rtk_port_adminEnable_set
                0x0000000083f46ecc       0x48 board/Realtek/rtl838x/librtl838x.o
                0x0000000083f46ecc                rtk_port_adminEnable_set
 .text.rtk_port_10gMedia_set
                0x0000000083f46f14       0x48 board/Realtek/rtl838x/librtl838x.o
                0x0000000083f46f14                rtk_port_10gMedia_set
 .text.rtk_port_phyIeeeTestMode_set
                0x0000000083f46f5c       0x48 board/Realtek/rtl838x/librtl838x.o
                0x0000000083f46f5c                rtk_port_phyIeeeTestMode_set
 .text.rtk_l2_portNewMacOp_set
                0x0000000083f46fa4       0x48 board/Realtek/rtl838x/librtl838x.o
                0x0000000083f46fa4                rtk_l2_portNewMacOp_set
 .text.phy_common_unavail
                0x0000000083f46fec        0x8 board/Realtek/rtl838x/librtl838x.o
                0x0000000083f46fec                phy_common_unavail
 .text.phy_common_enable_set
                0x0000000083f46ff4       0x90 board/Realtek/rtl838x/librtl838x.o
                0x0000000083f46ff4                phy_common_enable_set
 .text.phy_common_enable_get
                0x0000000083f47084       0x54 board/Realtek/rtl838x/librtl838x.o
                0x0000000083f47084                phy_common_enable_get
 .text.phy_8218b_enable_set
                0x0000000083f470d8      0x124 board/Realtek/rtl838x/librtl838x.o
                0x0000000083f470d8                phy_8218b_enable_set
 .text.phy_8380_int_enable_set
                0x0000000083f471fc      0x184 board/Realtek/rtl838x/librtl838x.o
                0x0000000083f471fc                phy_8380_int_enable_set
 .text.phy_8214fc_ledCtrl_get
                0x0000000083f47380      0x190 board/Realtek/rtl838x/librtl838x.o
                0x0000000083f47380                phy_8214fc_ledCtrl_get
 .text.phy_8214fc_ledCtrl_set
                0x0000000083f47510      0x25c board/Realtek/rtl838x/librtl838x.o
                0x0000000083f47510                phy_8214fc_ledCtrl_set
 .text.phy_patchBit_set
                0x0000000083f4776c      0x104 board/Realtek/rtl838x/librtl838x.o
                0x0000000083f4776c                phy_patchBit_set
 .text._phy_8218b_autoCrossOver_EEEwakeupTxTimer_set
                0x0000000083f47870     0x2c94 board/Realtek/rtl838x/librtl838x.o
                0x0000000083f47870                _phy_8218b_autoCrossOver_EEEwakeupTxTimer_set
 .text.phy_8218Bdrv_ge_mapperInit
                0x0000000083f4a504       0x30 board/Realtek/rtl838x/librtl838x.o
                0x0000000083f4a504                phy_8218Bdrv_ge_mapperInit
 .text.phy_8214FCdrv_ge_mapperInit
                0x0000000083f4a534       0x54 board/Realtek/rtl838x/librtl838x.o
                0x0000000083f4a534                phy_8214FCdrv_ge_mapperInit
 .text.phy_8214FCdrv_MP_ge_mapperInit
                0x0000000083f4a588       0x30 board/Realtek/rtl838x/librtl838x.o
                0x0000000083f4a588                phy_8214FCdrv_MP_ge_mapperInit
 .text.phy_8380drv_int_ge_mapperInit
                0x0000000083f4a5b8       0x30 board/Realtek/rtl838x/librtl838x.o
                0x0000000083f4a5b8                phy_8380drv_int_ge_mapperInit
 .text._phy_8214fc_combo_media_get
                0x0000000083f4a5e8       0xd0 board/Realtek/rtl838x/librtl838x.o
                0x0000000083f4a5e8                _phy_8214fc_combo_media_get
 .text._phy_8214fc_combo_media_set
                0x0000000083f4a6b8      0x424 board/Realtek/rtl838x/librtl838x.o
                0x0000000083f4a6b8                _phy_8214fc_combo_media_set
 .text.phy_8218b_auto_1000f_get
                0x0000000083f4aadc       0x40 board/Realtek/rtl838x/librtl838x.o
                0x0000000083f4aadc                phy_8218b_auto_1000f_get
 .text.phy_8218b_auto_1000f_set
                0x0000000083f4ab1c       0x40 board/Realtek/rtl838x/librtl838x.o
                0x0000000083f4ab1c                phy_8218b_auto_1000f_set
 .text.phy_8214fc_media_get
                0x0000000083f4ab5c       0x4c board/Realtek/rtl838x/librtl838x.o
                0x0000000083f4ab5c                phy_8214fc_media_get
 .text.phy_8214fc_enable_set
                0x0000000083f4aba8      0x258 board/Realtek/rtl838x/librtl838x.o
                0x0000000083f4aba8                phy_8214fc_enable_set
 .text.phy_8214fc_media_set
                0x0000000083f4ae00       0x94 board/Realtek/rtl838x/librtl838x.o
                0x0000000083f4ae00                phy_8214fc_media_set
 .text.phy_8214fc_dumpTop
                0x0000000083f4ae94      0x368 board/Realtek/rtl838x/librtl838x.o
                0x0000000083f4ae94                phy_8214fc_dumpTop
 .text.phy_8214fc_fiberDownSpeedEnable_set
                0x0000000083f4b1fc      0x100 board/Realtek/rtl838x/librtl838x.o
                0x0000000083f4b1fc                phy_8214fc_fiberDownSpeedEnable_set
 .text.phy_8214fc_fiber_media_set
                0x0000000083f4b2fc      0x128 board/Realtek/rtl838x/librtl838x.o
                0x0000000083f4b2fc                phy_8214fc_fiber_media_set
 .text._phy_8218b_14fc_intMedia_get
                0x0000000083f4b424      0x15c board/Realtek/rtl838x/librtl838x.o
                0x0000000083f4b424                _phy_8218b_14fc_intMedia_get
 .text.phy_8218b_greenEnable_set
                0x0000000083f4b580      0x1f8 board/Realtek/rtl838x/librtl838x.o
                0x0000000083f4b580                phy_8218b_greenEnable_set
 .text.phy_8218b_init
                0x0000000083f4b778      0x358 board/Realtek/rtl838x/librtl838x.o
                0x0000000083f4b778                phy_8218b_init
 .text.phy_8214fc_init
                0x0000000083f4bad0      0x3d8 board/Realtek/rtl838x/librtl838x.o
                0x0000000083f4bad0                phy_8214fc_init
 .text._phy_8218b_ieeeTestModeAllPhyPort_disable
                0x0000000083f4bea8       0x68 board/Realtek/rtl838x/librtl838x.o
                0x0000000083f4bea8                _phy_8218b_ieeeTestModeAllPhyPort_disable
 .text.phy_8218b_ieeeTestMode_set
                0x0000000083f4bf10      0x4f8 board/Realtek/rtl838x/librtl838x.o
                0x0000000083f4bf10                phy_8218b_ieeeTestMode_set
 .text._phy_8214fc_serialLedModePageReg_get
                0x0000000083f4c408       0xfc board/Realtek/rtl838x/librtl838x.o
                0x0000000083f4c408                _phy_8214fc_serialLedModePageReg_get
 .text._phy_8214fc_ledModeData_set
                0x0000000083f4c504      0x15c board/Realtek/rtl838x/librtl838x.o
                0x0000000083f4c504                _phy_8214fc_ledModeData_set
 .text.phy_8214fc_ledMode_set
                0x0000000083f4c660      0x13c board/Realtek/rtl838x/librtl838x.o
                0x0000000083f4c660                phy_8214fc_ledMode_set
 .text.phy_8218d_chipRevId_get
                0x0000000083f4c79c       0xdc board/Realtek/rtl838x/librtl838x.o
                0x0000000083f4c79c                phy_8218d_chipRevId_get
 .text._phy_8218d_interrupt_init
                0x0000000083f4c878      0x1cc board/Realtek/rtl838x/librtl838x.o
                0x0000000083f4c878                _phy_8218d_interrupt_init
 .text.phy_8218d_greenEnable_set
                0x0000000083f4ca44      0x590 board/Realtek/rtl838x/librtl838x.o
                0x0000000083f4ca44                phy_8218d_greenEnable_set
 .text._phy_8218d_powerSavingMode_leave
                0x0000000083f4cfd4       0xd8 board/Realtek/rtl838x/librtl838x.o
                0x0000000083f4cfd4                _phy_8218d_powerSavingMode_leave
 .text.phy_8218d_enable_set
                0x0000000083f4d0ac       0x60 board/Realtek/rtl838x/librtl838x.o
                0x0000000083f4d0ac                phy_8218d_enable_set
 .text._phy_8218d_ieeeTestModeAllPhyPort_disable
                0x0000000083f4d10c       0x68 board/Realtek/rtl838x/librtl838x.o
                0x0000000083f4d10c                _phy_8218d_ieeeTestModeAllPhyPort_disable
 .text.phy_8218d_ieeeTestMode_set
                0x0000000083f4d174      0x258 board/Realtek/rtl838x/librtl838x.o
                0x0000000083f4d174                phy_8218d_ieeeTestMode_set
 .text._phy_8218d_leqCali_start
                0x0000000083f4d3cc      0x4b0 board/Realtek/rtl838x/librtl838x.o
                0x0000000083f4d3cc                _phy_8218d_leqCali_start
 .text.phy_8218d_macIntfSerdesMode_get
                0x0000000083f4d87c      0x124 board/Realtek/rtl838x/librtl838x.o
                0x0000000083f4d87c                phy_8218d_macIntfSerdesMode_get
 .text.phy_8218d_macIntfSdsRxCali_start
                0x0000000083f4d9a0       0xa0 board/Realtek/rtl838x/librtl838x.o
                0x0000000083f4d9a0                phy_8218d_macIntfSdsRxCali_start
 .text.phy_8218d_init
                0x0000000083f4da40      0x450 board/Realtek/rtl838x/librtl838x.o
                0x0000000083f4da40                phy_8218d_init
 .text.phy_8218d_sdsEyeParam_set
                0x0000000083f4de90      0x38c board/Realtek/rtl838x/librtl838x.o
                0x0000000083f4de90                phy_8218d_sdsEyeParam_set
 .text.phy_8218Ddrv_ge_mapperInit
                0x0000000083f4e21c       0x3c board/Realtek/rtl838x/librtl838x.o
                0x0000000083f4e21c                phy_8218Ddrv_ge_mapperInit
 .text._phy_8218d_efuseSw_load_phy
                0x0000000083f4e258       0x28 board/Realtek/rtl838x/librtl838x.o
                0x0000000083f4e258                _phy_8218d_efuseSw_load_phy
 .text._phy_8218d_efuse_read
                0x0000000083f4e280      0x218 board/Realtek/rtl838x/librtl838x.o
                0x0000000083f4e280                _phy_8218d_efuse_read
 .text._phy_8218d_efuseSw_load_le49
                0x0000000083f4e498      0x1a0 board/Realtek/rtl838x/librtl838x.o
                0x0000000083f4e498                _phy_8218d_efuseSw_load_le49
 .text._phy_8218d_efuseSw_load_a
                0x0000000083f4e638       0x6c board/Realtek/rtl838x/librtl838x.o
                0x0000000083f4e638                _phy_8218d_efuseSw_load_a
 .text._phy_8218d_efuseSw_load_reg30
                0x0000000083f4e6a4       0x8c board/Realtek/rtl838x/librtl838x.o
                0x0000000083f4e6a4                _phy_8218d_efuseSw_load_reg30
 .text._phy_8218d_efuseSw_load_ge50
                0x0000000083f4e730       0xdc board/Realtek/rtl838x/librtl838x.o
                0x0000000083f4e730                _phy_8218d_efuseSw_load_ge50
 .text._phy_8218d_efuseSw_load
                0x0000000083f4e80c      0x140 board/Realtek/rtl838x/librtl838x.o
                0x0000000083f4e80c                _phy_8218d_efuseSw_load
 .text.phy_8218d_efuseSwLoadEnable_get
                0x0000000083f4e94c       0xa0 board/Realtek/rtl838x/librtl838x.o
                0x0000000083f4e94c                phy_8218d_efuseSwLoadEnable_get
 .text.phy_8218d_efuseSw_load
                0x0000000083f4e9ec       0x20 board/Realtek/rtl838x/librtl838x.o
                0x0000000083f4e9ec                phy_8218d_efuseSw_load
 .text.phy_8218d_sram_patch_cs
                0x0000000083f4ea0c      0x51c board/Realtek/rtl838x/librtl838x.o
                0x0000000083f4ea0c                phy_8218d_sram_patch_cs
 .text.phy_8218d_b_nc_init_cs
                0x0000000083f4ef28      0xc40 board/Realtek/rtl838x/librtl838x.o
                0x0000000083f4ef28                phy_8218d_b_nc_init_cs
 .text.phy_8218d_b_uc_init_cs
                0x0000000083f4fb68     0x2800 board/Realtek/rtl838x/librtl838x.o
                0x0000000083f4fb68                phy_8218d_b_uc_init_cs
 .text._phy_8218d_bConf_init_cs
                0x0000000083f52368      0xfa4 board/Realtek/rtl838x/librtl838x.o
                0x0000000083f52368                _phy_8218d_bConf_init_cs
 .text.phy_8218d_bConf_init
                0x0000000083f5330c        0x8 board/Realtek/rtl838x/librtl838x.o
                0x0000000083f5330c                phy_8218d_bConf_init
 .text.phy_8218e_chipRevId_get
                0x0000000083f53314       0xf8 board/Realtek/rtl838x/librtl838x.o
                0x0000000083f53314                phy_8218e_chipRevId_get
 .text.phy_8218e_greenEnable_get
                0x0000000083f5340c       0xf4 board/Realtek/rtl838x/librtl838x.o
                0x0000000083f5340c                phy_8218e_greenEnable_get
 .text.phy_8218e_greenEnable_set
                0x0000000083f53500      0x4b4 board/Realtek/rtl838x/librtl838x.o
                0x0000000083f53500                phy_8218e_greenEnable_set
 .text.phy_8218e_macIntfSerdesMode_get
                0x0000000083f539b4      0x168 board/Realtek/rtl838x/librtl838x.o
                0x0000000083f539b4                phy_8218e_macIntfSerdesMode_get
 .text._phy_8218e_serdes_autoNego_get
                0x0000000083f53b1c      0x118 board/Realtek/rtl838x/librtl838x.o
                0x0000000083f53b1c                _phy_8218e_serdes_autoNego_get
 .text.phy_8218e_ctrl_get
                0x0000000083f53c34       0x58 board/Realtek/rtl838x/librtl838x.o
                0x0000000083f53c34                phy_8218e_ctrl_get
 .text._phy_8218e_serdes_autoNego_set
                0x0000000083f53c8c      0x114 board/Realtek/rtl838x/librtl838x.o
                0x0000000083f53c8c                _phy_8218e_serdes_autoNego_set
 .text._phy_8218e_rtct_cable_commonParam_set
                0x0000000083f53da0     0x1dc8 board/Realtek/rtl838x/librtl838x.o
                0x0000000083f53da0                _phy_8218e_rtct_cable_commonParam_set
 .text._phy_8218e_rtct_cable_set
                0x0000000083f55b68       0x80 board/Realtek/rtl838x/librtl838x.o
                0x0000000083f55b68                _phy_8218e_rtct_cable_set
 .text.phy_8218e_ctrl_set
                0x0000000083f55be8       0x64 board/Realtek/rtl838x/librtl838x.o
                0x0000000083f55be8                phy_8218e_ctrl_set
 .text._phy_8218e_powerSavingMode_leave
                0x0000000083f55c4c       0xe0 board/Realtek/rtl838x/librtl838x.o
                0x0000000083f55c4c                _phy_8218e_powerSavingMode_leave
 .text.phy_8218e_enable_set
                0x0000000083f55d2c       0x84 board/Realtek/rtl838x/librtl838x.o
                0x0000000083f55d2c                phy_8218e_enable_set
 .text._phy_8218e_ieeeTestModeAllPhyPort_disable
                0x0000000083f55db0       0x68 board/Realtek/rtl838x/librtl838x.o
                0x0000000083f55db0                _phy_8218e_ieeeTestModeAllPhyPort_disable
 .text.phy_8218e_ieeeTestMode_set
                0x0000000083f55e18      0x250 board/Realtek/rtl838x/librtl838x.o
                0x0000000083f55e18                phy_8218e_ieeeTestMode_set
 .text._phy_8218e_green_init
                0x0000000083f56068      0x20c board/Realtek/rtl838x/librtl838x.o
                0x0000000083f56068                _phy_8218e_green_init
 .text._phy_8218e_interrupt_init
                0x0000000083f56274      0x1cc board/Realtek/rtl838x/librtl838x.o
                0x0000000083f56274                _phy_8218e_interrupt_init
 .text.phy_8218e_init
                0x0000000083f56440      0x144 board/Realtek/rtl838x/librtl838x.o
                0x0000000083f56440                phy_8218e_init
 .text.phy_8218Edrv_ge_mapperInit
                0x0000000083f56584       0x84 board/Realtek/rtl838x/librtl838x.o
                0x0000000083f56584                phy_8218Edrv_ge_mapperInit
 .text._phy_8218e_dummyReg_init
                0x0000000083f56608       0x9c board/Realtek/rtl838x/librtl838x.o
                0x0000000083f56608                _phy_8218e_dummyReg_init
 .text._phy_rtl8218e_patch_phyState_wait
                0x0000000083f566a4      0x100 board/Realtek/rtl838x/librtl838x.o
                0x0000000083f566a4                _phy_rtl8218e_patch_phyState_wait
 .text._phy_rtl8218e_patch_patchReady_wait
                0x0000000083f567a4       0xec board/Realtek/rtl838x/librtl838x.o
                0x0000000083f567a4                _phy_rtl8218e_patch_patchReady_wait
 .text._phy_8218e_efuse_read
                0x0000000083f56890      0x244 board/Realtek/rtl838x/librtl838x.o
                0x0000000083f56890                _phy_8218e_efuse_read
 .text._phy_8218e_c_uc_nctl_perPort_init
                0x0000000083f56ad4     0x1050 board/Realtek/rtl838x/librtl838x.o
                0x0000000083f56ad4                _phy_8218e_c_uc_nctl_perPort_init
 .text._phy_8218e_gphy_perPort_init
                0x0000000083f57b24      0x8c4 board/Realtek/rtl838x/librtl838x.o
                0x0000000083f57b24                _phy_8218e_gphy_perPort_init
 .text._phy_8218e_uc_nctl_perPort_init
                0x0000000083f583e8     0x2660 board/Realtek/rtl838x/librtl838x.o
                0x0000000083f583e8                _phy_8218e_uc_nctl_perPort_init
 .text._phy_8218e_sram_perPort_init
                0x0000000083f5aa48      0xca4 board/Realtek/rtl838x/librtl838x.o
                0x0000000083f5aa48                _phy_8218e_sram_perPort_init
 .text.phy_8218e_conf_perPort_init
                0x0000000083f5b6ec       0xb8 board/Realtek/rtl838x/librtl838x.o
                0x0000000083f5b6ec                phy_8218e_conf_perPort_init
 .text.phy_experimental_8211FS_init
                0x0000000083f5b7a4        0x8 board/Realtek/rtl838x/librtl838x.o
                0x0000000083f5b7a4                phy_experimental_8211FS_init
 .text.phy_experimental_8211FS_mapperInit
                0x0000000083f5b7ac       0x30 board/Realtek/rtl838x/librtl838x.o
                0x0000000083f5b7ac                phy_experimental_8211FS_mapperInit
 .text._nic_rx_reason_translate
                0x0000000083f5b7dc      0x120 board/Realtek/rtl838x/librtl838x.o
 .text.r8380_init
                0x0000000083f5b8fc       0x50 board/Realtek/rtl838x/librtl838x.o
                0x0000000083f5b8fc                r8380_init
 .text.r8380_pkt_tx
                0x0000000083f5b94c        0x8 board/Realtek/rtl838x/librtl838x.o
                0x0000000083f5b94c                r8380_pkt_tx
 .text.r8380_rx_start
                0x0000000083f5b954        0x8 board/Realtek/rtl838x/librtl838x.o
                0x0000000083f5b954                r8380_rx_start
 .text.r8380_rx_stop
                0x0000000083f5b95c        0x8 board/Realtek/rtl838x/librtl838x.o
                0x0000000083f5b95c                r8380_rx_stop
 .text.r8380_rx_register
                0x0000000083f5b964        0x8 board/Realtek/rtl838x/librtl838x.o
                0x0000000083f5b964                r8380_rx_register
 .text.r8380_rx_unregister
                0x0000000083f5b96c        0x8 board/Realtek/rtl838x/librtl838x.o
                0x0000000083f5b96c                r8380_rx_unregister
 .text.r8380_pkt_alloc
                0x0000000083f5b974        0x8 board/Realtek/rtl838x/librtl838x.o
                0x0000000083f5b974                r8380_pkt_alloc
 .text.r8380_pkt_free
                0x0000000083f5b97c        0x8 board/Realtek/rtl838x/librtl838x.o
                0x0000000083f5b97c                r8380_pkt_free
 .text.r8380_debug_set
                0x0000000083f5b984        0x8 board/Realtek/rtl838x/librtl838x.o
                0x0000000083f5b984                r8380_debug_set
 .text.r8380_debug_get
                0x0000000083f5b98c        0x8 board/Realtek/rtl838x/librtl838x.o
                0x0000000083f5b98c                r8380_debug_get
 .text.r8380_counter_dump
                0x0000000083f5b994        0x8 board/Realtek/rtl838x/librtl838x.o
                0x0000000083f5b994                r8380_counter_dump
 .text.r8380_counter_clear
                0x0000000083f5b99c        0x8 board/Realtek/rtl838x/librtl838x.o
                0x0000000083f5b99c                r8380_counter_clear
 .text.r8380_bufStatus_dump
                0x0000000083f5b9a4        0x8 board/Realtek/rtl838x/librtl838x.o
                0x0000000083f5b9a4                r8380_bufStatus_dump
 .text.r8380_pkthdrMbuf_dump
                0x0000000083f5b9ac        0x8 board/Realtek/rtl838x/librtl838x.o
                0x0000000083f5b9ac                r8380_pkthdrMbuf_dump
 .text.r8380_rxStatus_get
                0x0000000083f5b9b4        0x8 board/Realtek/rtl838x/librtl838x.o
                0x0000000083f5b9b4                r8380_rxStatus_get
 .text.r8380_ringInfo_get
                0x0000000083f5b9bc       0x38 board/Realtek/rtl838x/librtl838x.o
                0x0000000083f5b9bc                r8380_ringInfo_get
 .text.r8380_cpuPortTxRxEnable_set
                0x0000000083f5b9f4       0x74 board/Realtek/rtl838x/librtl838x.o
                0x0000000083f5b9f4                r8380_cpuPortTxRxEnable_set
 .text.r8380_intrMask_get
                0x0000000083f5ba68       0x8c board/Realtek/rtl838x/librtl838x.o
                0x0000000083f5ba68                r8380_intrMask_get
 .text.r8380_intrMask_set
                0x0000000083f5baf4       0x90 board/Realtek/rtl838x/librtl838x.o
                0x0000000083f5baf4                r8380_intrMask_set
 .text.r8380_intrSts_get
                0x0000000083f5bb84       0x8c board/Realtek/rtl838x/librtl838x.o
                0x0000000083f5bb84                r8380_intrSts_get
 .text.r8380_intrSts_set
                0x0000000083f5bc10       0x7c board/Realtek/rtl838x/librtl838x.o
                0x0000000083f5bc10                r8380_intrSts_set
 .text.r8380_swNicRst_get
                0x0000000083f5bc8c       0x2c board/Realtek/rtl838x/librtl838x.o
                0x0000000083f5bc8c                r8380_swNicRst_get
 .text.r8380_swNicRst_set
                0x0000000083f5bcb8       0x38 board/Realtek/rtl838x/librtl838x.o
                0x0000000083f5bcb8                r8380_swNicRst_set
 .text.r8380_swQueRst_get
                0x0000000083f5bcf0       0x2c board/Realtek/rtl838x/librtl838x.o
                0x0000000083f5bcf0                r8380_swQueRst_get
 .text.r8380_swQueRst_set
                0x0000000083f5bd1c       0x38 board/Realtek/rtl838x/librtl838x.o
                0x0000000083f5bd1c                r8380_swQueRst_set
 .text.r8380_cpuL2FloodMask_add
                0x0000000083f5bd54       0x74 board/Realtek/rtl838x/librtl838x.o
                0x0000000083f5bd54                r8380_cpuL2FloodMask_add
 .text.r8380_cpuL2FloodMask_remove
                0x0000000083f5bdc8       0x70 board/Realtek/rtl838x/librtl838x.o
                0x0000000083f5bdc8                r8380_cpuL2FloodMask_remove
 .text.r8380_cpuForceLinkupEnable_set
                0x0000000083f5be38       0x3c board/Realtek/rtl838x/librtl838x.o
                0x0000000083f5be38                r8380_cpuForceLinkupEnable_set
 .text.r8380_holRingSize_set
                0x0000000083f5be74       0x44 board/Realtek/rtl838x/librtl838x.o
                0x0000000083f5be74                r8380_holRingSize_set
 .text.r8380_holRingCnt_get
                0x0000000083f5beb8       0x68 board/Realtek/rtl838x/librtl838x.o
                0x0000000083f5beb8                r8380_holRingCnt_get
 .text.r8380_holRingCnt_set
                0x0000000083f5bf20       0x38 board/Realtek/rtl838x/librtl838x.o
                0x0000000083f5bf20                r8380_holRingCnt_set
 .text.r8380_ntfyBaseAddr_get
                0x0000000083f5bf58        0x8 board/Realtek/rtl838x/librtl838x.o
                0x0000000083f5bf58                r8380_ntfyBaseAddr_get
 .text.r8380_ntfyBaseAddr_set
                0x0000000083f5bf60        0x8 board/Realtek/rtl838x/librtl838x.o
                0x0000000083f5bf60                r8380_ntfyBaseAddr_set
 .text.r8380_ringBaseAddr_get
                0x0000000083f5bf68       0x3c board/Realtek/rtl838x/librtl838x.o
                0x0000000083f5bf68                r8380_ringBaseAddr_get
 .text.r8380_ringBaseAddr_set
                0x0000000083f5bfa4       0x3c board/Realtek/rtl838x/librtl838x.o
                0x0000000083f5bfa4                r8380_ringBaseAddr_set
 .text.r8380_ringCurAddr_get
                0x0000000083f5bfe0       0x3c board/Realtek/rtl838x/librtl838x.o
                0x0000000083f5bfe0                r8380_ringCurAddr_get
 .text.r8380_rxTruncateLength_get
                0x0000000083f5c01c       0x2c board/Realtek/rtl838x/librtl838x.o
                0x0000000083f5c01c                r8380_rxTruncateLength_get
 .text.r8380_rxTruncateLength_set
                0x0000000083f5c048       0x2c board/Realtek/rtl838x/librtl838x.o
                0x0000000083f5c048                r8380_rxTruncateLength_set
 .text.r8380_nicEnable_get
                0x0000000083f5c074       0x48 board/Realtek/rtl838x/librtl838x.o
                0x0000000083f5c074                r8380_nicEnable_get
 .text.r8380_nicEnable_set
                0x0000000083f5c0bc       0x48 board/Realtek/rtl838x/librtl838x.o
                0x0000000083f5c0bc                r8380_nicEnable_set
 .text.r8380_nicTxFetch_set
                0x0000000083f5c104       0x88 board/Realtek/rtl838x/librtl838x.o
                0x0000000083f5c104                r8380_nicTxFetch_set
 .text.r8380_nicTxBusySts_get
                0x0000000083f5c18c       0x2c board/Realtek/rtl838x/librtl838x.o
                0x0000000083f5c18c                r8380_nicTxBusySts_get
 .text.r8380_cpuTagId_get
                0x0000000083f5c1b8       0x2c board/Realtek/rtl838x/librtl838x.o
                0x0000000083f5c1b8                r8380_cpuTagId_get
 .text.r8380_cpuTagId_set
                0x0000000083f5c1e4       0x2c board/Realtek/rtl838x/librtl838x.o
                0x0000000083f5c1e4                r8380_cpuTagId_set
 .text.r8380_supportJumboSize_get
                0x0000000083f5c210       0x10 board/Realtek/rtl838x/librtl838x.o
                0x0000000083f5c210                r8380_supportJumboSize_get
 .text.r8380_cpuTagFromRaw_cnvt
                0x0000000083f5c220      0x264 board/Realtek/rtl838x/librtl838x.o
                0x0000000083f5c220                r8380_cpuTagFromRaw_cnvt
 .text.r8380_cpuTagToRaw_cnvt
                0x0000000083f5c484      0x16c board/Realtek/rtl838x/librtl838x.o
                0x0000000083f5c484                r8380_cpuTagToRaw_cnvt
 .text.r8380_cpuTag_dump
                0x0000000083f5c5f0      0x160 board/Realtek/rtl838x/librtl838x.o
                0x0000000083f5c5f0                r8380_cpuTag_dump
 .text.r8380_rawTag_dump
                0x0000000083f5c750      0x130 board/Realtek/rtl838x/librtl838x.o
                0x0000000083f5c750                r8380_rawTag_dump
 .text._setGpioDir
                0x0000000083f5c880       0x78 board/Realtek/rtl838x/librtl838x.o
 .text._setGpioData
                0x0000000083f5c8f8       0x78 board/Realtek/rtl838x/librtl838x.o
 .text.smi_write_bits
                0x0000000083f5c970       0x9c board/Realtek/rtl838x/librtl838x.o
 .text._smi_start
                0x0000000083f5ca0c       0x50 board/Realtek/rtl838x/librtl838x.o
 .text._smiZbit
                0x0000000083f5ca5c       0x58 board/Realtek/rtl838x/librtl838x.o
 .text.smiWrite
                0x0000000083f5cab4       0x9c board/Realtek/rtl838x/librtl838x.o
 .text.smiRead  0x0000000083f5cb50      0x118 board/Realtek/rtl838x/librtl838x.o
 .text.r8380_rtl8231_init
                0x0000000083f5cc68      0x214 board/Realtek/rtl838x/librtl838x.o
                0x0000000083f5cc68                r8380_rtl8231_init
 .text.r8380_rtl8231_mdcSem_register
                0x0000000083f5ce7c       0x54 board/Realtek/rtl838x/librtl838x.o
                0x0000000083f5ce7c                r8380_rtl8231_mdcSem_register
 .text.r8380_rtl8231_mdcSem_unregister
                0x0000000083f5ced0       0x54 board/Realtek/rtl838x/librtl838x.o
                0x0000000083f5ced0                r8380_rtl8231_mdcSem_unregister
 .text.r8380_rtl8231_mdc_read
                0x0000000083f5cf24      0x158 board/Realtek/rtl838x/librtl838x.o
                0x0000000083f5cf24                r8380_rtl8231_mdc_read
 .text.r8380_rtl8231_mdc_write
                0x0000000083f5d07c      0x134 board/Realtek/rtl838x/librtl838x.o
                0x0000000083f5d07c                r8380_rtl8231_mdc_write
 .text.r8380_rtl8231_extra_devReady_get
                0x0000000083f5d1b0       0xac board/Realtek/rtl838x/librtl838x.o
                0x0000000083f5d1b0                r8380_rtl8231_extra_devReady_get
 .text.r8380_rtl8231_extra_devEnable_get
                0x0000000083f5d25c       0x98 board/Realtek/rtl838x/librtl838x.o
                0x0000000083f5d25c                r8380_rtl8231_extra_devEnable_get
 .text.r8380_rtl8231_extra_devEnable_set
                0x0000000083f5d2f4       0xb4 board/Realtek/rtl838x/librtl838x.o
                0x0000000083f5d2f4                r8380_rtl8231_extra_devEnable_set
 .text.r8380_rtl8231_extra_dataBit_get
                0x0000000083f5d3a8       0xc0 board/Realtek/rtl838x/librtl838x.o
                0x0000000083f5d3a8                r8380_rtl8231_extra_dataBit_get
 .text.r8380_rtl8231_extra_dataBit_set
                0x0000000083f5d468       0xe0 board/Realtek/rtl838x/librtl838x.o
                0x0000000083f5d468                r8380_rtl8231_extra_dataBit_set
 .text.r8380_rtl8231_extra_direction_get
                0x0000000083f5d548       0xec board/Realtek/rtl838x/librtl838x.o
                0x0000000083f5d548                r8380_rtl8231_extra_direction_get
 .text.r8380_rtl8231_extra_direction_set
                0x0000000083f5d634      0x138 board/Realtek/rtl838x/librtl838x.o
                0x0000000083f5d634                r8380_rtl8231_extra_direction_set
 .text.r8380_rtl8231_extra_read
                0x0000000083f5d76c       0xac board/Realtek/rtl838x/librtl838x.o
                0x0000000083f5d76c                r8380_rtl8231_extra_read
 .text.r8380_rtl8231_extra_write
                0x0000000083f5d818       0x9c board/Realtek/rtl838x/librtl838x.o
                0x0000000083f5d818                r8380_rtl8231_extra_write
 .text.r8380_i2c_init
                0x0000000083f5d8b4       0x58 board/Realtek/rtl838x/librtl838x.o
                0x0000000083f5d8b4                r8380_i2c_init
 .text.r8380_i2c_dev_init
                0x0000000083f5d90c       0x80 board/Realtek/rtl838x/librtl838x.o
                0x0000000083f5d90c                r8380_i2c_dev_init
 .text.r8380_i2c_read
                0x0000000083f5d98c       0x54 board/Realtek/rtl838x/librtl838x.o
                0x0000000083f5d98c                r8380_i2c_read
 .text.r8380_i2c_write
                0x0000000083f5d9e0       0x30 board/Realtek/rtl838x/librtl838x.o
                0x0000000083f5d9e0                r8380_i2c_write
 .text.rtl8380_gpio_init
                0x0000000083f5da10       0x58 board/Realtek/rtl838x/librtl838x.o
                0x0000000083f5da10                rtl8380_gpio_init
 .text._rtl8380_gpio_imPinOffsetPortA_get
                0x0000000083f5da68       0xa8 board/Realtek/rtl838x/librtl838x.o
                0x0000000083f5da68                _rtl8380_gpio_imPinOffsetPortA_get
 .text._rtl8380_gpio_imPinOffsetPortB_get
                0x0000000083f5db10       0xa0 board/Realtek/rtl838x/librtl838x.o
                0x0000000083f5db10                _rtl8380_gpio_imPinOffsetPortB_get
 .text.rtl8380_gpio_direction_set
                0x0000000083f5dbb0      0x12c board/Realtek/rtl838x/librtl838x.o
                0x0000000083f5dbb0                rtl8380_gpio_direction_set
 .text.rtl8380_gpio_control_set
                0x0000000083f5dcdc       0xc8 board/Realtek/rtl838x/librtl838x.o
                0x0000000083f5dcdc                rtl8380_gpio_control_set
 .text.rtl8380_gpio_intrMode_set
                0x0000000083f5dda4       0xe8 board/Realtek/rtl838x/librtl838x.o
                0x0000000083f5dda4                rtl8380_gpio_intrMode_set
 .text.rtl8380_gpio_dataBit_init
                0x0000000083f5de8c       0x6c board/Realtek/rtl838x/librtl838x.o
                0x0000000083f5de8c                rtl8380_gpio_dataBit_init
 .text.rtl8380_gpio_dataBit_get
                0x0000000083f5def8       0x9c board/Realtek/rtl838x/librtl838x.o
                0x0000000083f5def8                rtl8380_gpio_dataBit_get
 .text.rtl8380_gpio_dataBit_set
                0x0000000083f5df94       0xe8 board/Realtek/rtl838x/librtl838x.o
                0x0000000083f5df94                rtl8380_gpio_dataBit_set
 .text.rtl8380_gpio_intrStatus_get
                0x0000000083f5e07c       0x7c board/Realtek/rtl838x/librtl838x.o
                0x0000000083f5e07c                rtl8380_gpio_intrStatus_get
 .text.rtl8380_gpio_intrStatus_clear
                0x0000000083f5e0f8       0x38 board/Realtek/rtl838x/librtl838x.o
                0x0000000083f5e0f8                rtl8380_gpio_intrStatus_clear
 .text.rtl8380_gpio_portRange_get
                0x0000000083f5e130       0x14 board/Realtek/rtl838x/librtl838x.o
                0x0000000083f5e130                rtl8380_gpio_portRange_get
 .text._phy_construct_turnoff_power_ctrl_common
                0x0000000083f5e144      0x16c board/Realtek/rtl838x/librtl838x.o
 .text._phy_construct_restore_power_ctrl_common
                0x0000000083f5e2b0      0x138 board/Realtek/rtl838x/librtl838x.o
 .text.dal_maple_construct_default_init
                0x0000000083f5e3e8        0x8 board/Realtek/rtl838x/librtl838x.o
                0x0000000083f5e3e8                dal_maple_construct_default_init
 .text.dal_maple_construct_pollingPhy_disable
                0x0000000083f5e3f0       0x10 board/Realtek/rtl838x/librtl838x.o
                0x0000000083f5e3f0                dal_maple_construct_pollingPhy_disable
 .text.dal_maple_construct_pollingPhy_enable
                0x0000000083f5e400      0x1a8 board/Realtek/rtl838x/librtl838x.o
                0x0000000083f5e400                dal_maple_construct_pollingPhy_enable
 .text.dal_maple_construct_phy_reset
                0x0000000083f5e5a8      0x228 board/Realtek/rtl838x/librtl838x.o
                0x0000000083f5e5a8                dal_maple_construct_phy_reset
 .text.dal_maple_construct_phyExceptSerdesFiber_powerOn
                0x0000000083f5e7d0      0x140 board/Realtek/rtl838x/librtl838x.o
                0x0000000083f5e7d0                dal_maple_construct_phyExceptSerdesFiber_powerOn
 .text.dal_maple_construct_phy_powerOff
                0x0000000083f5e910      0x38c board/Realtek/rtl838x/librtl838x.o
                0x0000000083f5e910                dal_maple_construct_phy_powerOff
 .text.dal_maple_construct_phyConfig_init
                0x0000000083f5ec9c      0x350 board/Realtek/rtl838x/librtl838x.o
                0x0000000083f5ec9c                dal_maple_construct_phyConfig_init
 .text.dal_maple_construct_macConfig_init
                0x0000000083f5efec      0x174 board/Realtek/rtl838x/librtl838x.o
                0x0000000083f5efec                dal_maple_construct_macConfig_init
 .text.dal_maple_construct_serdesConfig_init
                0x0000000083f5f160     0x1110 board/Realtek/rtl838x/librtl838x.o
                0x0000000083f5f160                dal_maple_construct_serdesConfig_init
 .text.dal_maple_init
                0x0000000083f60270       0x38 board/Realtek/rtl838x/librtl838x.o
                0x0000000083f60270                dal_maple_init
 .text.dal_mapleMapper_init
                0x0000000083f602a8       0x14 board/Realtek/rtl838x/librtl838x.o
                0x0000000083f602a8                dal_mapleMapper_init
 .text.phy_8380_init
                0x0000000083f602bc      0x118 board/Realtek/rtl838x/librtl838x.o
                0x0000000083f602bc                phy_8380_init
 .text.phy_8380_enable_set
                0x0000000083f603d4      0x1ac board/Realtek/rtl838x/librtl838x.o
                0x0000000083f603d4                phy_8380_enable_set
 .text.phy_8380_serdes_ge_mapperInit
                0x0000000083f60580       0x24 board/Realtek/rtl838x/librtl838x.o
                0x0000000083f60580                phy_8380_serdes_ge_mapperInit
 .text.rtl8380_led_config
                0x0000000083f605a4      0x430 board/Realtek/rtl838x/librtl838x.o
                0x0000000083f605a4                rtl8380_led_config
 .text.rtl8380_port_probe
                0x0000000083f609d4        0x8 board/Realtek/rtl838x/librtl838x.o
                0x0000000083f609d4                rtl8380_port_probe
 .text.rtl8380_miim_park_write
                0x0000000083f609dc      0x320 board/Realtek/rtl838x/librtl838x.o
                0x0000000083f609dc                rtl8380_miim_park_write
 .text.rtl8380_miim_portmask_write
                0x0000000083f60cfc      0x298 board/Realtek/rtl838x/librtl838x.o
                0x0000000083f60cfc                rtl8380_miim_portmask_write
 .text.rtl8380_miim_mmd_write
                0x0000000083f60f94      0x2a0 board/Realtek/rtl838x/librtl838x.o
                0x0000000083f60f94                rtl8380_miim_mmd_write
 .text.rtl8380_miim_mmd_portmask_write
                0x0000000083f61234      0x258 board/Realtek/rtl838x/librtl838x.o
                0x0000000083f61234                rtl8380_miim_mmd_portmask_write
 .text.rtl8380_miim_park_read
                0x0000000083f6148c      0x39c board/Realtek/rtl838x/librtl838x.o
                0x0000000083f6148c                rtl8380_miim_park_read
 .text.rtl8380_miim_mmd_read
                0x0000000083f61828      0x34c board/Realtek/rtl838x/librtl838x.o
                0x0000000083f61828                rtl8380_miim_mmd_read
 .text.rtl8380_table_read
                0x0000000083f61b74      0x37c board/Realtek/rtl838x/librtl838x.o
                0x0000000083f61b74                rtl8380_table_read
 .text.rtl8380_table_write
                0x0000000083f61ef0      0x3d4 board/Realtek/rtl838x/librtl838x.o
                0x0000000083f61ef0                rtl8380_table_write
 .text.rtl8380_serdes_rst
                0x0000000083f622c4      0x168 board/Realtek/rtl838x/librtl838x.o
                0x0000000083f622c4                rtl8380_serdes_rst
 .text.rtl8380_miim_pollingEnable_get
                0x0000000083f6242c       0xc0 board/Realtek/rtl838x/librtl838x.o
                0x0000000083f6242c                rtl8380_miim_pollingEnable_get
 .text.rtl8380_miim_pollingEnable_set
                0x0000000083f624ec      0x108 board/Realtek/rtl838x/librtl838x.o
                0x0000000083f624ec                rtl8380_miim_pollingEnable_set
 .text.rtl8380_smiAddr_init
                0x0000000083f625f4      0x214 board/Realtek/rtl838x/librtl838x.o
                0x0000000083f625f4                rtl8380_smiAddr_init
 .text.rtl8380_reg_led_blinking_pre_init
                0x0000000083f62808       0x80 board/Realtek/rtl838x/librtl838x.o
                0x0000000083f62808                rtl8380_reg_led_blinking_pre_init
 .text.rtl8380_regDefault_init
                0x0000000083f62888       0x90 board/Realtek/rtl838x/librtl838x.o
                0x0000000083f62888                rtl8380_regDefault_init
 .text.rtl8380_init
                0x0000000083f62918       0x38 board/Realtek/rtl838x/librtl838x.o
                0x0000000083f62918                rtl8380_init
 .text._rtl8380_miim_write
                0x0000000083f62950      0x200 board/Realtek/rtl838x/librtl838x.o
                0x0000000083f62950                _rtl8380_miim_write
 .text.rtl8380_miim_read
                0x0000000083f62b50      0x374 board/Realtek/rtl838x/librtl838x.o
                0x0000000083f62b50                rtl8380_miim_read
 .text.rtl8380_miim_write
                0x0000000083f62ec4      0x138 board/Realtek/rtl838x/librtl838x.o
                0x0000000083f62ec4                rtl8380_miim_write
 .text.dal_maple_port_isolation_set
                0x0000000083f62ffc      0x16c board/Realtek/rtl838x/librtl838x.o
                0x0000000083f62ffc                dal_maple_port_isolation_set
 .text.dal_maple_portMapper_init
                0x0000000083f63168       0x14 board/Realtek/rtl838x/librtl838x.o
                0x0000000083f63168                dal_maple_portMapper_init
 .text.dal_maple_port_cpuPortId_set
                0x0000000083f6317c      0x124 board/Realtek/rtl838x/librtl838x.o
                0x0000000083f6317c                dal_maple_port_cpuPortId_set
 .text.dal_maple_port_init
                0x0000000083f632a0      0x340 board/Realtek/rtl838x/librtl838x.o
                0x0000000083f632a0                dal_maple_port_init
                0x0000000083f635e0                . = ALIGN (0x4)
 *(EXCLUDE_FILE(arch/mips/cpu/mips4kec/rtl838x/librtl838x.o) .data*)
 .data.init_sequence
                0x0000000083f635e0       0x1c arch/mips/lib/libmips.o
                0x0000000083f635e0                init_sequence
 .data.cmd_bootm_sub
                0x0000000083f635fc       0xa8 common/libcommon.o
 .data.do_echo  0x0000000083f636a4        0x4 common/libcommon.o
 .data.dp_last_length
                0x0000000083f636a8        0x4 common/libcommon.o
 .data.cmd_env_sub
                0x0000000083f636ac       0xe0 common/libcommon.o
 .data.env_id   0x0000000083f6378c        0x4 common/libcommon.o
 .data.load_addr
                0x0000000083f63790        0x4 common/libcommon.o
                0x0000000083f63790                load_addr
 .data.sbrk_base
                0x0000000083f63794        0x4 common/libcommon.o
 .data.trim_threshold
                0x0000000083f63798        0x4 common/libcommon.o
 .data.av_      0x0000000083f6379c      0x408 common/libcommon.o
 .data.env_name_spec
                0x0000000083f63ba4        0x4 common/libcommon.o
                0x0000000083f63ba4                env_name_spec
 .data.hist_cur
                0x0000000083f63ba8        0x4 common/libcommon.o
 .data.stdio_names
                0x0000000083f63bac        0xc common/libcommon.o
                0x0000000083f63bac                stdio_names
 .data.month_days
                0x0000000083f63bb8       0x30 drivers/rtc/librtc.o
 .data.NetOurNativeVLAN
                0x0000000083f63be8        0x2 net/libnet.o
                0x0000000083f63be8                NetOurNativeVLAN
 .data.NetOurVLAN
                0x0000000083f63bea        0x2 net/libnet.o
                0x0000000083f63bea                NetOurVLAN
 .data.NetBcastAddr
                0x0000000083f63bec        0x8 net/libnet.o
                0x0000000083f63bec                NetBcastAddr
 .data.TftpBlkSizeOption
                0x0000000083f63bf4        0x2 net/libnet.o
 .data.TftpBlkSize
                0x0000000083f63bf6        0x2 net/libnet.o
 .data.TftpRRQTimeoutCountMax
                0x0000000083f63bf8        0x4 net/libnet.o
                0x0000000083f63bf8                TftpRRQTimeoutCountMax
 .data.TftpTimeoutCountMax
                0x0000000083f63bfc        0x4 net/libnet.o
 .data.TftpTimeoutMSecs
                0x0000000083f63c00        0x4 net/libnet.o
 .data.rtk_flash_partition_size
                0x0000000083f63c04      0x154 board/Realtek/rtl838x/librtl838x.o
                0x0000000083f63c04                rtk_flash_partition_size
 .data.uboot_cmd_sdsMode_str
                0x0000000083f63d58      0x420 board/Realtek/rtl838x/librtl838x.o
                0x0000000083f63d58                uboot_cmd_sdsMode_str
 .data.pkt_content
                0x0000000083f64178       0x4c board/Realtek/rtl838x/librtl838x.o
                0x0000000083f64178                pkt_content
 .data.hwp_defaultHwp
                0x0000000083f641c4       0x34 board/Realtek/rtl838x/librtl838x.o
 .data.hwp_forcedHwp
                0x0000000083f641f8       0x34 board/Realtek/rtl838x/librtl838x.o
 .data.rtl9303_defaultHwp
                0x0000000083f6422c       0x58 board/Realtek/rtl838x/librtl838x.o
 .data.rtl9303_default_swDescp
                0x0000000083f64284      0x668 board/Realtek/rtl838x/librtl838x.o
 .data.rtl9301_defaultHwp
                0x0000000083f648ec       0x58 board/Realtek/rtl838x/librtl838x.o
 .data.rtl9301_default_swDescp
                0x0000000083f64944      0x668 board/Realtek/rtl838x/librtl838x.o
 .data.rtl839x_defaultHwp
                0x0000000083f64fac       0x58 board/Realtek/rtl838x/librtl838x.o
 .data.rtl839x_default_swDescp
                0x0000000083f65004      0x668 board/Realtek/rtl838x/librtl838x.o
 .data.rtl835x_defaultHwp
                0x0000000083f6566c       0x58 board/Realtek/rtl838x/librtl838x.o
 .data.rtl835x_default_swDescp
                0x0000000083f656c4      0x668 board/Realtek/rtl838x/librtl838x.o
 .data.rtl838x_defaultHwp
                0x0000000083f65d2c       0x58 board/Realtek/rtl838x/librtl838x.o
 .data.rtl838x_default_swDescp
                0x0000000083f65d84      0x668 board/Realtek/rtl838x/librtl838x.o
 .data.rtl833x_defaultHwp
                0x0000000083f663ec       0x58 board/Realtek/rtl838x/librtl838x.o
 .data.rtl833x_default_swDescp
                0x0000000083f66444      0x668 board/Realtek/rtl838x/librtl838x.o
 .data.hwp_hwProfile_list
                0x0000000083f66aac       0x38 board/Realtek/rtl838x/librtl838x.o
                0x0000000083f66aac                hwp_hwProfile_list
 .data.rtl8382m_intphy_8218b_8214fc_poe_bt
                0x0000000083f66ae4       0x58 board/Realtek/rtl838x/librtl838x.o
 .data.rtl8382m_intphy_8218b_8214fc_poe_bt_swDescp
                0x0000000083f66b3c      0x668 board/Realtek/rtl838x/librtl838x.o
 .data.rtl8382m_intphy_8218b_8214fc_poe
                0x0000000083f671a4       0x58 board/Realtek/rtl838x/librtl838x.o
 .data.rtl8382m_intphy_8218b_8214fc_poe_swDescp
                0x0000000083f671fc      0x668 board/Realtek/rtl838x/librtl838x.o
 .data.rtl8382m_intphy_8218b_8214fc_yfd
                0x0000000083f67864       0x58 board/Realtek/rtl838x/librtl838x.o
 .data.rtl8382m_intphy_8218b_8214fc_yfd_swDescp
                0x0000000083f678bc      0x668 board/Realtek/rtl838x/librtl838x.o
 .data.rtl8380m_intphy_4port_2fib_1g_poe_bt
                0x0000000083f67f24       0x58 board/Realtek/rtl838x/librtl838x.o
 .data.rtl8380m_intphy_4port_2fib_1g_poe_bt_swDescp
                0x0000000083f67f7c      0x668 board/Realtek/rtl838x/librtl838x.o
 .data.rtl8380m_intphy_4port_2fib_1g_poe
                0x0000000083f685e4       0x58 board/Realtek/rtl838x/librtl838x.o
 .data.rtl8380m_intphy_4port_2fib_1g_poe_swDescp
                0x0000000083f6863c      0x668 board/Realtek/rtl838x/librtl838x.o
 .data.rtl8380m_intphy_4port_2fib_1g_yfd
                0x0000000083f68ca4       0x58 board/Realtek/rtl838x/librtl838x.o
 .data.rtl8380m_intphy_4port_2fib_1g_yfd_swDescp
                0x0000000083f68cfc      0x668 board/Realtek/rtl838x/librtl838x.o
 .data.rtl8380m_intphy_2fib_1g_poe_bt
                0x0000000083f69364       0x58 board/Realtek/rtl838x/librtl838x.o
 .data.rtl8380m_intphy_2fib_1g_poe_bt_swDescp
                0x0000000083f693bc      0x668 board/Realtek/rtl838x/librtl838x.o
 .data.rtl8380m_intphy_2fib_1g_poe
                0x0000000083f69a24       0x58 board/Realtek/rtl838x/librtl838x.o
 .data.rtl8380m_intphy_2fib_1g_poe_swDescp
                0x0000000083f69a7c      0x668 board/Realtek/rtl838x/librtl838x.o
 .data.rtl8380m_intphy_2fib_1g_demo
                0x0000000083f6a0e4       0x58 board/Realtek/rtl838x/librtl838x.o
 .data.rtl8380m_intphy_2fib_1g_demo_swDescp
                0x0000000083f6a13c      0x668 board/Realtek/rtl838x/librtl838x.o
 .data.rtl8382m_8218b_intphy_8214fc_poe
                0x0000000083f6a7a4       0x58 board/Realtek/rtl838x/librtl838x.o
 .data.rtl8382m_8218b_intphy_8214fc_poe_swDescp
                0x0000000083f6a7fc      0x668 board/Realtek/rtl838x/librtl838x.o
 .data.rtl8382m_8218b_intphy_8214fc_yfd
                0x0000000083f6ae64       0x58 board/Realtek/rtl838x/librtl838x.o
 .data.rtl8382m_8218b_intphy_8214fc_yfd_swDescp
                0x0000000083f6aebc      0x668 board/Realtek/rtl838x/librtl838x.o
 .data.rtl8382m_8218b_intphy_8218b_8214fc_poe
                0x0000000083f6b524       0x58 board/Realtek/rtl838x/librtl838x.o
 .data.rtl8382m_8218b_intphy_8218b_8214fc_poe_swDescp
                0x0000000083f6b57c      0x668 board/Realtek/rtl838x/librtl838x.o
 .data.rtl8382m_8218b_intphy_8218b_8214fc_demo
                0x0000000083f6bbe4       0x58 board/Realtek/rtl838x/librtl838x.o
 .data.rtl8382m_8218b_intphy_8218b_8214fc_demo_swDescp
                0x0000000083f6bc3c      0x668 board/Realtek/rtl838x/librtl838x.o
 .data.nic_if   0x0000000083f6c2a4       0x40 board/Realtek/rtl838x/librtl838x.o
                0x0000000083f6c2a4                nic_if
 .data.nic_ops  0x0000000083f6c2e4       0xc8 board/Realtek/rtl838x/librtl838x.o
                0x0000000083f6c2e4                nic_ops
 .data.rtl8231_if
                0x0000000083f6c3ac       0x40 board/Realtek/rtl838x/librtl838x.o
                0x0000000083f6c3ac                rtl8231_if
 .data.rtl8231_ops
                0x0000000083f6c3ec       0x60 board/Realtek/rtl838x/librtl838x.o
                0x0000000083f6c3ec                rtl8231_ops
 .data.gpio_if  0x0000000083f6c44c       0x40 board/Realtek/rtl838x/librtl838x.o
                0x0000000083f6c44c                gpio_if
 .data.gpio_ops
                0x0000000083f6c48c       0x28 board/Realtek/rtl838x/librtl838x.o
                0x0000000083f6c48c                gpio_ops
 .data.i2c_if   0x0000000083f6c4b4       0x40 board/Realtek/rtl838x/librtl838x.o
                0x0000000083f6c4b4                i2c_if
 .data.i2c_ops  0x0000000083f6c4f4       0x18 board/Realtek/rtl838x/librtl838x.o
                0x0000000083f6c4f4                i2c_ops
 .data.supported_devices
                0x0000000083f6c50c       0xc8 board/Realtek/rtl838x/librtl838x.o
 .data.rtl8380_macPpInfo
                0x0000000083f6c5d4       0x18 board/Realtek/rtl838x/librtl838x.o
 *fill*         0x0000000083f6c5ec        0x4 
 .data.rtl8380m_capacityInfo
                0x0000000083f6c5f0      0x2a0 board/Realtek/rtl838x/librtl838x.o
 .data.rtl8380_port_info_16FE_4G
                0x0000000083f6c890      0x100 board/Realtek/rtl838x/librtl838x.o
 .data.rtl8380_port_info_24FE_4G
                0x0000000083f6c990      0x100 board/Realtek/rtl838x/librtl838x.o
 .data.rtl8380_port_info_16G_4BX
                0x0000000083f6ca90      0x100 board/Realtek/rtl838x/librtl838x.o
 .data.rtl8380_port_info_24G_4BX
                0x0000000083f6cb90      0x100 board/Realtek/rtl838x/librtl838x.o
 .data.rt_major_driver_table
                0x0000000083f6cc90        0x4 board/Realtek/rtl838x/librtl838x.o
                0x0000000083f6cc90                rt_major_driver_table
 .data.rtl8218e_ousgmii_basic_perchip
                0x0000000083f6cc94       0x98 board/Realtek/rtl838x/librtl838x.o
                0x0000000083f6cc94                rtl8218e_ousgmii_basic_perchip
 .data.rtl8218e_qsgmii_basic_perchip
                0x0000000083f6cd2c       0x8c board/Realtek/rtl838x/librtl838x.o
                0x0000000083f6cd2c                rtl8218e_qsgmii_basic_perchip
 .data.rtl8218e_xsgmii_basic_perchip
                0x0000000083f6cdb8       0xec board/Realtek/rtl838x/librtl838x.o
                0x0000000083f6cdb8                rtl8218e_xsgmii_basic_perchip
 .data.rtl8218e_c_ousgmii_basic_perchip
                0x0000000083f6cea4       0x78 board/Realtek/rtl838x/librtl838x.o
                0x0000000083f6cea4                rtl8218e_c_ousgmii_basic_perchip
 .data.rtl8218e_c_qsgmii_basic_perchip
                0x0000000083f6cf1c       0x8c board/Realtek/rtl838x/librtl838x.o
                0x0000000083f6cf1c                rtl8218e_c_qsgmii_basic_perchip
 .data.rtl8218e_c_xsgmii_basic_perchip
                0x0000000083f6cfa8       0x98 board/Realtek/rtl838x/librtl838x.o
                0x0000000083f6cfa8                rtl8218e_c_xsgmii_basic_perchip
 .data.rtl8218d_a_xsgmii_basic_perchip
                0x0000000083f6d040       0x7c board/Realtek/rtl838x/librtl838x.o
                0x0000000083f6d040                rtl8218d_a_xsgmii_basic_perchip
 .data.rtl8218d_a_qsgmii_basic_perchip
                0x0000000083f6d0bc       0xe0 board/Realtek/rtl838x/librtl838x.o
                0x0000000083f6d0bc                rtl8218d_a_qsgmii_basic_perchip
 .data.rtl8218d_b_gphy_gdac_ib_dn_10_perchip
                0x0000000083f6d19c       0x48 board/Realtek/rtl838x/librtl838x.o
                0x0000000083f6d19c                rtl8218d_b_gphy_gdac_ib_dn_10_perchip
 .data.rtl8218d_b_gphy_1000FM_INRX_perport
                0x0000000083f6d1e4        0xc board/Realtek/rtl838x/librtl838x.o
                0x0000000083f6d1e4                rtl8218d_b_gphy_1000FM_INRX_perport
 .data.rtl8218d_a_gphy_rtct_y_normal_cablen_perport
                0x0000000083f6d1f0       0x10 board/Realtek/rtl838x/librtl838x.o
                0x0000000083f6d1f0                rtl8218d_a_gphy_rtct_y_normal_cablen_perport
 .data.rtl8218d_a_gphy_rtct_y_lndrv_ini_perport
                0x0000000083f6d200       0x10 board/Realtek/rtl838x/librtl838x.o
                0x0000000083f6d200                rtl8218d_a_gphy_rtct_y_lndrv_ini_perport
 .data.rtl8218d_a_gphy_rtct_y_mismatch_ini_perport
                0x0000000083f6d210       0x40 board/Realtek/rtl838x/librtl838x.o
                0x0000000083f6d210                rtl8218d_a_gphy_rtct_y_mismatch_ini_perport
 .data.rtl8218d_a_gphy_rtct_y_open_ini_perport
                0x0000000083f6d250       0x20 board/Realtek/rtl838x/librtl838x.o
                0x0000000083f6d250                rtl8218d_a_gphy_rtct_y_open_ini_perport
 .data.rtl8218d_a_gphy_green_perport
                0x0000000083f6d270       0x18 board/Realtek/rtl838x/librtl838x.o
                0x0000000083f6d270                rtl8218d_a_gphy_green_perport
 .data.rtl8218d_a_gphy_100F_INRX_perport
                0x0000000083f6d288       0x1c board/Realtek/rtl838x/librtl838x.o
                0x0000000083f6d288                rtl8218d_a_gphy_100F_INRX_perport
 .data.rtl8218d_a_gphy_1000FM_INRX_perport
                0x0000000083f6d2a4       0x1c board/Realtek/rtl838x/librtl838x.o
                0x0000000083f6d2a4                rtl8218d_a_gphy_1000FM_INRX_perport
 .data.rtl8218d_bT_green_perport
                0x0000000083f6d2c0       0x10 board/Realtek/rtl838x/librtl838x.o
                0x0000000083f6d2c0                rtl8218d_bT_green_perport
 .data.rtl8218d_bT_100_INRX_perport
                0x0000000083f6d2d0       0x38 board/Realtek/rtl838x/librtl838x.o
                0x0000000083f6d2d0                rtl8218d_bT_100_INRX_perport
 .data.rtl8218d_bT_1000FS_INRX_perport
                0x0000000083f6d308       0x30 board/Realtek/rtl838x/librtl838x.o
                0x0000000083f6d308                rtl8218d_bT_1000FS_INRX_perport
 .data.rtl8218d_bT_1000FM_INRX_perport
                0x0000000083f6d338       0x38 board/Realtek/rtl838x/librtl838x.o
                0x0000000083f6d338                rtl8218d_bT_1000FM_INRX_perport
 .data.rtl8218d_a_qsgmii_rtl8380_perchip
                0x0000000083f6d370       0xe0 board/Realtek/rtl838x/librtl838x.o
                0x0000000083f6d370                rtl8218d_a_qsgmii_rtl8380_perchip
 .data.rtl8218d_bT_qsgmii_rtl8380_perchip
                0x0000000083f6d450      0x150 board/Realtek/rtl838x/librtl838x.o
                0x0000000083f6d450                rtl8218d_bT_qsgmii_rtl8380_perchip
 .data.rtl838x_6275B_intPhy_perport
                0x0000000083f6d5a0       0x4c board/Realtek/rtl838x/librtl838x.o
                0x0000000083f6d5a0                rtl838x_6275B_intPhy_perport
 .data.rtl838x_6275A_intPhy_perport
                0x0000000083f6d5ec       0x4c board/Realtek/rtl838x/librtl838x.o
                0x0000000083f6d5ec                rtl838x_6275A_intPhy_perport
 .data.rtl838x_intPhy_0477B_perport
                0x0000000083f6d638      0x2b8 board/Realtek/rtl838x/librtl838x.o
                0x0000000083f6d638                rtl838x_intPhy_0477B_perport
 .data.rtl8218B_6276B_rtl8380_perport
                0x0000000083f6d8f0       0x4c board/Realtek/rtl838x/librtl838x.o
                0x0000000083f6d8f0                rtl8218B_6276B_rtl8380_perport
 .data.rtl8218B_6276B_rtl8380_perchip
                0x0000000083f6d93c       0xac board/Realtek/rtl838x/librtl838x.o
                0x0000000083f6d93c                rtl8218B_6276B_rtl8380_perchip
 .data.rtl8218B_6276A_rtl8380_perport
                0x0000000083f6d9e8       0x4c board/Realtek/rtl838x/librtl838x.o
                0x0000000083f6d9e8                rtl8218B_6276A_rtl8380_perport
 .data.rtl8218B_6276A_rtl8380_perchip
                0x0000000083f6da34       0xa4 board/Realtek/rtl838x/librtl838x.o
                0x0000000083f6da34                rtl8218B_6276A_rtl8380_perchip
 .data.rtl8218B_0455B_rtl8380_perport
                0x0000000083f6dad8      0x30c board/Realtek/rtl838x/librtl838x.o
                0x0000000083f6dad8                rtl8218B_0455B_rtl8380_perport
 .data.rtl8218B_0455B_rtl8380_perchip
                0x0000000083f6dde4      0x104 board/Realtek/rtl838x/librtl838x.o
                0x0000000083f6dde4                rtl8218B_0455B_rtl8380_perchip
 .data.construct_rtl8214fc_basic_uc_perport
                0x0000000083f6dee8      0x430 board/Realtek/rtl838x/librtl838x.o
                0x0000000083f6dee8                construct_rtl8214fc_basic_uc_perport
 .data.construct_rtl8214fc_basic_gphy_perport
                0x0000000083f6e318       0x50 board/Realtek/rtl838x/librtl838x.o
                0x0000000083f6e318                construct_rtl8214fc_basic_gphy_perport
 .data.construct_rtl8214fc_basic_fiber_perport
                0x0000000083f6e368       0x24 board/Realtek/rtl838x/librtl838x.o
                0x0000000083f6e368                construct_rtl8214fc_basic_fiber_perport
 .data.construct_rtl8214fc_basic_sds_perchip
                0x0000000083f6e38c      0x108 board/Realtek/rtl838x/librtl838x.o
                0x0000000083f6e38c                construct_rtl8214fc_basic_sds_perchip
 .data.construct_rtl8214fc_6276B_rtl8380_perchip_savpow_3
                0x0000000083f6e494       0x28 board/Realtek/rtl838x/librtl838x.o
                0x0000000083f6e494                construct_rtl8214fc_6276B_rtl8380_perchip_savpow_3
 .data.construct_rtl8214fc_6276B_rtl8380_perchip_savpow_2
                0x0000000083f6e4bc        0x8 board/Realtek/rtl838x/librtl838x.o
                0x0000000083f6e4bc                construct_rtl8214fc_6276B_rtl8380_perchip_savpow_2
 .data.construct_rtl8214fc_6276B_rtl8380_perchip_savpow
                0x0000000083f6e4c4       0x3c board/Realtek/rtl838x/librtl838x.o
                0x0000000083f6e4c4                construct_rtl8214fc_6276B_rtl8380_perchip_savpow
 .data.construct_rtl8214fc_6276B_rtl8380_perport
                0x0000000083f6e500       0x74 board/Realtek/rtl838x/librtl838x.o
                0x0000000083f6e500                construct_rtl8214fc_6276B_rtl8380_perport
 .data.construct_rtl8214fc_6276B_rtl8380_perchip
                0x0000000083f6e574      0x178 board/Realtek/rtl838x/librtl838x.o
                0x0000000083f6e574                construct_rtl8214fc_6276B_rtl8380_perchip
 .data.construct_rtl8214fc_6276A_rtl8380_perchip
                0x0000000083f6e6ec       0xf8 board/Realtek/rtl838x/librtl838x.o
                0x0000000083f6e6ec                construct_rtl8214fc_6276A_rtl8380_perchip
 .data.supported_int_phys
                0x0000000083f6e7e4       0x60 board/Realtek/rtl838x/librtl838x.o
 .data.supported_phys
                0x0000000083f6e844       0xe0 board/Realtek/rtl838x/librtl838x.o
 .data.constructEntry_838x
                0x0000000083f6e924      0x264 board/Realtek/rtl838x/librtl838x.o
                0x0000000083f6e924                constructEntry_838x
 .data.batch_size
                0x0000000083f6eb88        0x4 board/Realtek/rtl838x/librtl838x.o
 .data.phy_8214FC_info
                0x0000000083f6eb8c       0x48 board/Realtek/rtl838x/librtl838x.o
                0x0000000083f6eb8c                phy_8214FC_info
 .data.phy_8218B_info
                0x0000000083f6ebd4       0x48 board/Realtek/rtl838x/librtl838x.o
                0x0000000083f6ebd4                phy_8218B_info
 .data.phy_8218D_info
                0x0000000083f6ec1c       0x48 board/Realtek/rtl838x/librtl838x.o
                0x0000000083f6ec1c                phy_8218D_info
 .data.rtl8218d_0819_efuseOcpAddr
                0x0000000083f6ec64       0x18 board/Realtek/rtl838x/librtl838x.o
                0x0000000083f6ec64                rtl8218d_0819_efuseOcpAddr
 .data.phy_8218E_info
                0x0000000083f6ec7c       0x48 board/Realtek/rtl838x/librtl838x.o
                0x0000000083f6ec7c                phy_8218E_info
 .data.phy_8211FS_info
                0x0000000083f6ecc4       0x48 board/Realtek/rtl838x/librtl838x.o
                0x0000000083f6ecc4                phy_8211FS_info
 .data.txRingIdSize_8380
                0x0000000083f6ed0c        0x8 board/Realtek/rtl838x/librtl838x.o
 .data.rxRingIdSize_8380
                0x0000000083f6ed14       0x20 board/Realtek/rtl838x/librtl838x.o
 .data.rtl8380_serdes01_xsmii_6275b
                0x0000000083f6ed34      0x110 board/Realtek/rtl838x/librtl838x.o
 .data.rtl8380_serdes01_qsgmii_6275b_8218d_e
                0x0000000083f6ee44       0xb0 board/Realtek/rtl838x/librtl838x.o
 .data.rtl8380_serdes01_qsgmii_6275b
                0x0000000083f6eef4       0xb0 board/Realtek/rtl838x/librtl838x.o
 .data.rtl8380_serdes01_rsgmiip_6275b
                0x0000000083f6efa4       0xb0 board/Realtek/rtl838x/librtl838x.o
 .data.rtl8380_serdes01_xsmii_6275a
                0x0000000083f6f054      0x158 board/Realtek/rtl838x/librtl838x.o
 .data.rtl8380_serdes01_qsgmii_6275a
                0x0000000083f6f1ac       0x90 board/Realtek/rtl838x/librtl838x.o
 .data.rtl8380_serdes01_rsgmiip_6275a
                0x0000000083f6f23c       0x90 board/Realtek/rtl838x/librtl838x.o
 .data.rtl8380_a_driver
                0x0000000083f6f2cc       0x2c board/Realtek/rtl838x/librtl838x.o
                0x0000000083f6f2cc                rtl8380_a_driver
 .data.rtl8380_table_list
                0x0000000083f6f2f8       0x48 board/Realtek/rtl838x/librtl838x.o
 .data.rtl8380_reg_list
                0x0000000083f6f340     0x1578 board/Realtek/rtl838x/librtl838x.o
 .data.TBL_ACCESS_MULTEX_CTRL_1_RTL8380_FIELDS
                0x0000000083f708b8       0x10 board/Realtek/rtl838x/librtl838x.o
                0x0000000083f708b8                TBL_ACCESS_MULTEX_CTRL_1_RTL8380_FIELDS
 .data.TBL_ACCESS_MULTEX_CTRL_0_RTL8380_FIELDS
                0x0000000083f708c8       0x10 board/Realtek/rtl838x/librtl838x.o
                0x0000000083f708c8                TBL_ACCESS_MULTEX_CTRL_0_RTL8380_FIELDS
 .data.TBL_ACCESS_DATA_1_RTL8380_FIELDS
                0x0000000083f708d8        0x8 board/Realtek/rtl838x/librtl838x.o
                0x0000000083f708d8                TBL_ACCESS_DATA_1_RTL8380_FIELDS
 .data.TBL_ACCESS_CTRL_1_RTL8380_FIELDS
                0x0000000083f708e0       0x28 board/Realtek/rtl838x/librtl838x.o
                0x0000000083f708e0                TBL_ACCESS_CTRL_1_RTL8380_FIELDS
 .data.TBL_ACCESS_DATA_0_RTL8380_FIELDS
                0x0000000083f70908        0x8 board/Realtek/rtl838x/librtl838x.o
                0x0000000083f70908                TBL_ACCESS_DATA_0_RTL8380_FIELDS
 .data.TBL_ACCESS_CTRL_0_RTL8380_FIELDS
                0x0000000083f70910       0x28 board/Realtek/rtl838x/librtl838x.o
                0x0000000083f70910                TBL_ACCESS_CTRL_0_RTL8380_FIELDS
 .data.TBL_ACCESS_L2_DATA_RTL8380_FIELDS
                0x0000000083f70938        0x8 board/Realtek/rtl838x/librtl838x.o
                0x0000000083f70938                TBL_ACCESS_L2_DATA_RTL8380_FIELDS
 .data.TBL_ACCESS_L2_METHOD_CTRL_RTL8380_FIELDS
                0x0000000083f70940       0x20 board/Realtek/rtl838x/librtl838x.o
                0x0000000083f70940                TBL_ACCESS_L2_METHOD_CTRL_RTL8380_FIELDS
 .data.TBL_ACCESS_L2_CTRL_RTL8380_FIELDS
                0x0000000083f70960       0x28 board/Realtek/rtl838x/librtl838x.o
                0x0000000083f70960                TBL_ACCESS_L2_CTRL_RTL8380_FIELDS
 .data.DMY_REG19_RTL8380_FIELDS
                0x0000000083f70988        0x8 board/Realtek/rtl838x/librtl838x.o
                0x0000000083f70988                DMY_REG19_RTL8380_FIELDS
 .data.DMY_REG16_RTL8380_FIELDS
                0x0000000083f70990        0x8 board/Realtek/rtl838x/librtl838x.o
                0x0000000083f70990                DMY_REG16_RTL8380_FIELDS
 .data.DMY_REG4_RTL8380_FIELDS
                0x0000000083f70998        0x8 board/Realtek/rtl838x/librtl838x.o
                0x0000000083f70998                DMY_REG4_RTL8380_FIELDS
 .data.SRED_PQ_THR_CTRL_RTL8380_FIELDS
                0x0000000083f709a0       0x50 board/Realtek/rtl838x/librtl838x.o
                0x0000000083f709a0                SRED_PQ_THR_CTRL_RTL8380_FIELDS
 .data.SRED_Q_THR_RTL8380_FIELDS
                0x0000000083f709f0       0x30 board/Realtek/rtl838x/librtl838x.o
                0x0000000083f709f0                SRED_Q_THR_RTL8380_FIELDS
 .data.SRED_P_THR_RTL8380_FIELDS
                0x0000000083f70a20       0x30 board/Realtek/rtl838x/librtl838x.o
                0x0000000083f70a20                SRED_P_THR_RTL8380_FIELDS
 .data.AUTO_SWQRST_CTRL_RTL8380_FIELDS
                0x0000000083f70a50       0x40 board/Realtek/rtl838x/librtl838x.o
                0x0000000083f70a50                AUTO_SWQRST_CTRL_RTL8380_FIELDS
 .data.DROP_ALGO_GLB_CTRL_RTL8380_FIELDS
                0x0000000083f70a90       0x10 board/Realtek/rtl838x/librtl838x.o
                0x0000000083f70a90                DROP_ALGO_GLB_CTRL_RTL8380_FIELDS
 .data.SC_P_EN_RTL8380_FIELDS
                0x0000000083f70aa0       0x18 board/Realtek/rtl838x/librtl838x.o
                0x0000000083f70aa0                SC_P_EN_RTL8380_FIELDS
 .data.SC_P_CTRL_RTL8380_FIELDS
                0x0000000083f70ab8       0x10 board/Realtek/rtl838x/librtl838x.o
                0x0000000083f70ab8                SC_P_CTRL_RTL8380_FIELDS
 .data.DMY_REG36_RTL8380_FIELDS
                0x0000000083f70ac8        0x8 board/Realtek/rtl838x/librtl838x.o
                0x0000000083f70ac8                DMY_REG36_RTL8380_FIELDS
 .data.DMY_REG8_RTL8380_FIELDS
                0x0000000083f70ad0        0x8 board/Realtek/rtl838x/librtl838x.o
                0x0000000083f70ad0                DMY_REG8_RTL8380_FIELDS
 .data.IGR_BWCTRL_EXCEED_FLG_RTL8380_FIELDS
                0x0000000083f70ad8       0x28 board/Realtek/rtl838x/librtl838x.o
                0x0000000083f70ad8                IGR_BWCTRL_EXCEED_FLG_RTL8380_FIELDS
 .data.IGR_BWCTRL_WT_CTRL_RTL8380_FIELDS
                0x0000000083f70b00       0x10 board/Realtek/rtl838x/librtl838x.o
                0x0000000083f70b00                IGR_BWCTRL_WT_CTRL_RTL8380_FIELDS
 .data.IGR_BWCTRL_QUEUE_RATE_CTRL_RTL8380_FIELDS
                0x0000000083f70b10       0x10 board/Realtek/rtl838x/librtl838x.o
                0x0000000083f70b10                IGR_BWCTRL_QUEUE_RATE_CTRL_RTL8380_FIELDS
 .data.IGR_BWCTRL_PORT_RATE_CTRL_RTL8380_FIELDS
                0x0000000083f70b20       0x10 board/Realtek/rtl838x/librtl838x.o
                0x0000000083f70b20                IGR_BWCTRL_PORT_RATE_CTRL_RTL8380_FIELDS
 .data.IGR_BWCTRL_LB_TH_RTL8380_FIELDS
                0x0000000083f70b30       0x10 board/Realtek/rtl838x/librtl838x.o
                0x0000000083f70b30                IGR_BWCTRL_LB_TH_RTL8380_FIELDS
 .data.IGR_BWCTRL_LB_CTRL_RTL8380_FIELDS
                0x0000000083f70b40       0x28 board/Realtek/rtl838x/librtl838x.o
                0x0000000083f70b40                IGR_BWCTRL_LB_CTRL_RTL8380_FIELDS
 .data.IGR_BWCTRL_CTRL_RTL8380_FIELDS
                0x0000000083f70b68       0x30 board/Realtek/rtl838x/librtl838x.o
                0x0000000083f70b68                IGR_BWCTRL_CTRL_RTL8380_FIELDS
 .data.DMY_REG32_RTL8380_FIELDS
                0x0000000083f70b98        0x8 board/Realtek/rtl838x/librtl838x.o
                0x0000000083f70b98                DMY_REG32_RTL8380_FIELDS
 .data.PORT_ISO_VB_ISO_PM_CTRL_RTL8380_FIELDS
                0x0000000083f70ba0       0x28 board/Realtek/rtl838x/librtl838x.o
                0x0000000083f70ba0                PORT_ISO_VB_ISO_PM_CTRL_RTL8380_FIELDS
 .data.PORT_ISO_VB_CTRL_RTL8380_FIELDS
                0x0000000083f70bc8       0x10 board/Realtek/rtl838x/librtl838x.o
                0x0000000083f70bc8                PORT_ISO_VB_CTRL_RTL8380_FIELDS
 .data.PORT_ISO_CTRL_RTL8380_FIELDS
                0x0000000083f70bd8       0x10 board/Realtek/rtl838x/librtl838x.o
                0x0000000083f70bd8                PORT_ISO_CTRL_RTL8380_FIELDS
 .data.DMY_REG41_RTL8380_FIELDS
                0x0000000083f70be8        0x8 board/Realtek/rtl838x/librtl838x.o
                0x0000000083f70be8                DMY_REG41_RTL8380_FIELDS
 .data.DMY_REG6_REGACC_PROTECT_RTL8380_FIELDS
                0x0000000083f70bf0        0x8 board/Realtek/rtl838x/librtl838x.o
                0x0000000083f70bf0                DMY_REG6_REGACC_PROTECT_RTL8380_FIELDS
 .data.POWER_SAVING_CTRL_4_RTL8380_FIELDS
                0x0000000083f70bf8       0x10 board/Realtek/rtl838x/librtl838x.o
                0x0000000083f70bf8                POWER_SAVING_CTRL_4_RTL8380_FIELDS
 .data.POWER_SAVING_CTRL_3_RTL8380_FIELDS
                0x0000000083f70c08       0x20 board/Realtek/rtl838x/librtl838x.o
                0x0000000083f70c08                POWER_SAVING_CTRL_3_RTL8380_FIELDS
 .data.POWER_SAVING_CTRL_2_RTL8380_FIELDS
                0x0000000083f70c28       0x18 board/Realtek/rtl838x/librtl838x.o
                0x0000000083f70c28                POWER_SAVING_CTRL_2_RTL8380_FIELDS
 .data.POWER_SAVING_CTRL_1_RTL8380_FIELDS
                0x0000000083f70c40       0x18 board/Realtek/rtl838x/librtl838x.o
                0x0000000083f70c40                POWER_SAVING_CTRL_1_RTL8380_FIELDS
 .data.POWER_SAVING_CTRL_0_RTL8380_FIELDS
                0x0000000083f70c58       0x10 board/Realtek/rtl838x/librtl838x.o
                0x0000000083f70c58                POWER_SAVING_CTRL_0_RTL8380_FIELDS
 .data.EEEP_PORT_CTRL_RTL8380_FIELDS
                0x0000000083f70c68       0x20 board/Realtek/rtl838x/librtl838x.o
                0x0000000083f70c68                EEEP_PORT_CTRL_RTL8380_FIELDS
 .data.EEEP_GBL_CTRL_RTL8380_FIELDS
                0x0000000083f70c88       0x10 board/Realtek/rtl838x/librtl838x.o
                0x0000000083f70c88                EEEP_GBL_CTRL_RTL8380_FIELDS
 .data.EEEP_TX_IDLE_TIMER_CTRL_RTL8380_FIELDS
                0x0000000083f70c98       0x20 board/Realtek/rtl838x/librtl838x.o
                0x0000000083f70c98                EEEP_TX_IDLE_TIMER_CTRL_RTL8380_FIELDS
 .data.EEEP_RX_IDLE_TIMER_CTRL_RTL8380_FIELDS
                0x0000000083f70cb8       0x20 board/Realtek/rtl838x/librtl838x.o
                0x0000000083f70cb8                EEEP_RX_IDLE_TIMER_CTRL_RTL8380_FIELDS
 .data.EEEP_RX_TIMER_GIGA_CTRL1_RTL8380_FIELDS
                0x0000000083f70cd8       0x10 board/Realtek/rtl838x/librtl838x.o
                0x0000000083f70cd8                EEEP_RX_TIMER_GIGA_CTRL1_RTL8380_FIELDS
 .data.EEEP_RX_TIMER_GIGA_CTRL0_RTL8380_FIELDS
                0x0000000083f70ce8       0x20 board/Realtek/rtl838x/librtl838x.o
                0x0000000083f70ce8                EEEP_RX_TIMER_GIGA_CTRL0_RTL8380_FIELDS
 .data.EEEP_RX_TIMER_500M_CTRL1_RTL8380_FIELDS
                0x0000000083f70d08       0x10 board/Realtek/rtl838x/librtl838x.o
                0x0000000083f70d08                EEEP_RX_TIMER_500M_CTRL1_RTL8380_FIELDS
 .data.EEEP_RX_TIMER_500M_CTRL0_RTL8380_FIELDS
                0x0000000083f70d18       0x20 board/Realtek/rtl838x/librtl838x.o
                0x0000000083f70d18                EEEP_RX_TIMER_500M_CTRL0_RTL8380_FIELDS
 .data.EEEP_RX_TIMER_100M_CTRL_RTL8380_FIELDS
                0x0000000083f70d38       0x20 board/Realtek/rtl838x/librtl838x.o
                0x0000000083f70d38                EEEP_RX_TIMER_100M_CTRL_RTL8380_FIELDS
 .data.EEEP_RX_SLEEP_STEP_CTRL_RTL8380_FIELDS
                0x0000000083f70d58       0x10 board/Realtek/rtl838x/librtl838x.o
                0x0000000083f70d58                EEEP_RX_SLEEP_STEP_CTRL_RTL8380_FIELDS
 .data.EEEP_RX_RATE_GIGA_CTRL_RTL8380_FIELDS
                0x0000000083f70d68       0x18 board/Realtek/rtl838x/librtl838x.o
                0x0000000083f70d68                EEEP_RX_RATE_GIGA_CTRL_RTL8380_FIELDS
 .data.EEEP_RX_RATE_500M_CTRL_RTL8380_FIELDS
                0x0000000083f70d80       0x18 board/Realtek/rtl838x/librtl838x.o
                0x0000000083f70d80                EEEP_RX_RATE_500M_CTRL_RTL8380_FIELDS
 .data.EEEP_RX_RATE_100M_CTRL_RTL8380_FIELDS
                0x0000000083f70d98       0x18 board/Realtek/rtl838x/librtl838x.o
                0x0000000083f70d98                EEEP_RX_RATE_100M_CTRL_RTL8380_FIELDS
 .data.EEEP_TX_WAKE_TIMER_CTRL_RTL8380_FIELDS
                0x0000000083f70db0       0x20 board/Realtek/rtl838x/librtl838x.o
                0x0000000083f70db0                EEEP_TX_WAKE_TIMER_CTRL_RTL8380_FIELDS
 .data.EEEP_TX_GIGA_CTRL_RTL8380_FIELDS
                0x0000000083f70dd0       0x20 board/Realtek/rtl838x/librtl838x.o
                0x0000000083f70dd0                EEEP_TX_GIGA_CTRL_RTL8380_FIELDS
 .data.EEEP_TX_500M_CTRL_RTL8380_FIELDS
                0x0000000083f70df0       0x20 board/Realtek/rtl838x/librtl838x.o
                0x0000000083f70df0                EEEP_TX_500M_CTRL_RTL8380_FIELDS
 .data.EEEP_TX_100M_CTRL_RTL8380_FIELDS
                0x0000000083f70e10       0x20 board/Realtek/rtl838x/librtl838x.o
                0x0000000083f70e10                EEEP_TX_100M_CTRL_RTL8380_FIELDS
 .data.EEEP_TIMER_UNIT_CTRL_RTL8380_FIELDS
                0x0000000083f70e30       0x20 board/Realtek/rtl838x/librtl838x.o
                0x0000000083f70e30                EEEP_TIMER_UNIT_CTRL_RTL8380_FIELDS
 .data.EEEP_PORT_RX_EN_CTRL_RTL8380_FIELDS
                0x0000000083f70e50        0x8 board/Realtek/rtl838x/librtl838x.o
                0x0000000083f70e50                EEEP_PORT_RX_EN_CTRL_RTL8380_FIELDS
 .data.EEEP_PORT_TX_EN_CTRL_RTL8380_FIELDS
                0x0000000083f70e58        0x8 board/Realtek/rtl838x/librtl838x.o
                0x0000000083f70e58                EEEP_PORT_TX_EN_CTRL_RTL8380_FIELDS
 .data.EEE_EEEP_PORT_RX_STS_RTL8380_FIELDS
                0x0000000083f70e60        0x8 board/Realtek/rtl838x/librtl838x.o
                0x0000000083f70e60                EEE_EEEP_PORT_RX_STS_RTL8380_FIELDS
 .data.EEE_EEEP_PORT_TX_STS_RTL8380_FIELDS
                0x0000000083f70e68        0x8 board/Realtek/rtl838x/librtl838x.o
                0x0000000083f70e68                EEE_EEEP_PORT_TX_STS_RTL8380_FIELDS
 .data.EEE_PORT_RX_EN_RTL8380_FIELDS
                0x0000000083f70e70        0x8 board/Realtek/rtl838x/librtl838x.o
                0x0000000083f70e70                EEE_PORT_RX_EN_RTL8380_FIELDS
 .data.EEE_PORT_TX_EN_RTL8380_FIELDS
                0x0000000083f70e78        0x8 board/Realtek/rtl838x/librtl838x.o
                0x0000000083f70e78                EEE_PORT_TX_EN_RTL8380_FIELDS
 .data.EEE_CLK_STOP_CTRL_RTL8380_FIELDS
                0x0000000083f70e80       0x18 board/Realtek/rtl838x/librtl838x.o
                0x0000000083f70e80                EEE_CLK_STOP_CTRL_RTL8380_FIELDS
 .data.EEE_TX_TIMER_GELITE_CTRL_RTL8380_FIELDS
                0x0000000083f70e98       0x20 board/Realtek/rtl838x/librtl838x.o
                0x0000000083f70e98                EEE_TX_TIMER_GELITE_CTRL_RTL8380_FIELDS
 .data.EEE_TX_TIMER_GIGA_CTRL_RTL8380_FIELDS
                0x0000000083f70eb8       0x20 board/Realtek/rtl838x/librtl838x.o
                0x0000000083f70eb8                EEE_TX_TIMER_GIGA_CTRL_RTL8380_FIELDS
 .data.EEE_TX_TIMER_100M_CTRL_RTL8380_FIELDS
                0x0000000083f70ed8       0x28 board/Realtek/rtl838x/librtl838x.o
                0x0000000083f70ed8                EEE_TX_TIMER_100M_CTRL_RTL8380_FIELDS
 .data.EEE_TX_SEL_CTRL1_RTL8380_FIELDS
                0x0000000083f70f00       0x10 board/Realtek/rtl838x/librtl838x.o
                0x0000000083f70f00                EEE_TX_SEL_CTRL1_RTL8380_FIELDS
 .data.EEE_TX_SEL_CTRL0_RTL8380_FIELDS
                0x0000000083f70f10       0x40 board/Realtek/rtl838x/librtl838x.o
                0x0000000083f70f10                EEE_TX_SEL_CTRL0_RTL8380_FIELDS
 .data.EEE_TX_CTRL_RTL8380_FIELDS
                0x0000000083f70f50       0x20 board/Realtek/rtl838x/librtl838x.o
                0x0000000083f70f50                EEE_TX_CTRL_RTL8380_FIELDS
 .data.SDS_DUMMY173_RTL8380_FIELDS
                0x0000000083f70f70        0x8 board/Realtek/rtl838x/librtl838x.o
                0x0000000083f70f70                SDS_DUMMY173_RTL8380_FIELDS
 .data.SDS5_FIB_REG30_RTL8380_FIELDS
                0x0000000083f70f78       0x40 board/Realtek/rtl838x/librtl838x.o
                0x0000000083f70f78                SDS5_FIB_REG30_RTL8380_FIELDS
 .data.SDS5_FIB_REG29_RTL8380_FIELDS
                0x0000000083f70fb8       0x28 board/Realtek/rtl838x/librtl838x.o
                0x0000000083f70fb8                SDS5_FIB_REG29_RTL8380_FIELDS
 .data.SDS5_FIB_REG28_RTL8380_FIELDS
                0x0000000083f70fe0       0x20 board/Realtek/rtl838x/librtl838x.o
                0x0000000083f70fe0                SDS5_FIB_REG28_RTL8380_FIELDS
 .data.SDS5_FIB_REG27_RTL8380_FIELDS
                0x0000000083f71000       0x48 board/Realtek/rtl838x/librtl838x.o
                0x0000000083f71000                SDS5_FIB_REG27_RTL8380_FIELDS
 .data.SDS5_FIB_REG26_RTL8380_FIELDS
                0x0000000083f71048       0x10 board/Realtek/rtl838x/librtl838x.o
                0x0000000083f71048                SDS5_FIB_REG26_RTL8380_FIELDS
 .data.SDS5_FIB_REG25_RTL8380_FIELDS
                0x0000000083f71058       0x38 board/Realtek/rtl838x/librtl838x.o
                0x0000000083f71058                SDS5_FIB_REG25_RTL8380_FIELDS
 .data.SDS5_FIB_REG24_RTL8380_FIELDS
                0x0000000083f71090       0x18 board/Realtek/rtl838x/librtl838x.o
                0x0000000083f71090                SDS5_FIB_REG24_RTL8380_FIELDS
 .data.SDS5_FIB_REG23_RTL8380_FIELDS
                0x0000000083f710a8       0x10 board/Realtek/rtl838x/librtl838x.o
                0x0000000083f710a8                SDS5_FIB_REG23_RTL8380_FIELDS
 .data.SDS5_FIB_REG22_RTL8380_FIELDS
                0x0000000083f710b8       0x10 board/Realtek/rtl838x/librtl838x.o
                0x0000000083f710b8                SDS5_FIB_REG22_RTL8380_FIELDS
 .data.SDS5_FIB_REG21_RTL8380_FIELDS
                0x0000000083f710c8       0x10 board/Realtek/rtl838x/librtl838x.o
                0x0000000083f710c8                SDS5_FIB_REG21_RTL8380_FIELDS
 .data.SDS5_FIB_REG20_RTL8380_FIELDS
                0x0000000083f710d8       0x10 board/Realtek/rtl838x/librtl838x.o
                0x0000000083f710d8                SDS5_FIB_REG20_RTL8380_FIELDS
 .data.SDS5_FIB_REG19_RTL8380_FIELDS
                0x0000000083f710e8       0x10 board/Realtek/rtl838x/librtl838x.o
                0x0000000083f710e8                SDS5_FIB_REG19_RTL8380_FIELDS
 .data.SDS5_FIB_REG18_RTL8380_FIELDS
                0x0000000083f710f8       0x10 board/Realtek/rtl838x/librtl838x.o
                0x0000000083f710f8                SDS5_FIB_REG18_RTL8380_FIELDS
 .data.SDS5_FIB_REG17_RTL8380_FIELDS
                0x0000000083f71108       0x10 board/Realtek/rtl838x/librtl838x.o
                0x0000000083f71108                SDS5_FIB_REG17_RTL8380_FIELDS
 .data.SDS5_FIB_REG16_RTL8380_FIELDS
                0x0000000083f71118       0x10 board/Realtek/rtl838x/librtl838x.o
                0x0000000083f71118                SDS5_FIB_REG16_RTL8380_FIELDS
 .data.SDS5_FIB_REG15_RTL8380_FIELDS
                0x0000000083f71128       0x10 board/Realtek/rtl838x/librtl838x.o
                0x0000000083f71128                SDS5_FIB_REG15_RTL8380_FIELDS
 .data.SDS5_FIB_REG14_RTL8380_FIELDS
                0x0000000083f71138       0x10 board/Realtek/rtl838x/librtl838x.o
                0x0000000083f71138                SDS5_FIB_REG14_RTL8380_FIELDS
 .data.SDS5_FIB_REG13_RTL8380_FIELDS
                0x0000000083f71148       0x20 board/Realtek/rtl838x/librtl838x.o
                0x0000000083f71148                SDS5_FIB_REG13_RTL8380_FIELDS
 .data.SDS5_FIB_REG12_RTL8380_FIELDS
                0x0000000083f71168       0x10 board/Realtek/rtl838x/librtl838x.o
                0x0000000083f71168                SDS5_FIB_REG12_RTL8380_FIELDS
 .data.SDS5_FIB_REG11_RTL8380_FIELDS
                0x0000000083f71178       0x10 board/Realtek/rtl838x/librtl838x.o
                0x0000000083f71178                SDS5_FIB_REG11_RTL8380_FIELDS
 .data.SDS5_FIB_REG10_RTL8380_FIELDS
                0x0000000083f71188       0x10 board/Realtek/rtl838x/librtl838x.o
                0x0000000083f71188                SDS5_FIB_REG10_RTL8380_FIELDS
 .data.SDS5_FIB_REG9_RTL8380_FIELDS
                0x0000000083f71198       0x10 board/Realtek/rtl838x/librtl838x.o
                0x0000000083f71198                SDS5_FIB_REG9_RTL8380_FIELDS
 .data.SDS5_FIB_REG8_RTL8380_FIELDS
                0x0000000083f711a8       0x10 board/Realtek/rtl838x/librtl838x.o
                0x0000000083f711a8                SDS5_FIB_REG8_RTL8380_FIELDS
 .data.SDS5_FIB_REG7_RTL8380_FIELDS
                0x0000000083f711b8       0x10 board/Realtek/rtl838x/librtl838x.o
                0x0000000083f711b8                SDS5_FIB_REG7_RTL8380_FIELDS
 .data.SDS5_FIB_REG6_RTL8380_FIELDS
                0x0000000083f711c8       0x28 board/Realtek/rtl838x/librtl838x.o
                0x0000000083f711c8                SDS5_FIB_REG6_RTL8380_FIELDS
 .data.SDS5_FIB_REG5_RTL8380_FIELDS
                0x0000000083f711f0       0x10 board/Realtek/rtl838x/librtl838x.o
                0x0000000083f711f0                SDS5_FIB_REG5_RTL8380_FIELDS
 .data.SDS5_FIB_REG4_RTL8380_FIELDS
                0x0000000083f71200       0x10 board/Realtek/rtl838x/librtl838x.o
                0x0000000083f71200                SDS5_FIB_REG4_RTL8380_FIELDS
 .data.SDS5_FIB_REG3_RTL8380_FIELDS
                0x0000000083f71210       0x20 board/Realtek/rtl838x/librtl838x.o
                0x0000000083f71210                SDS5_FIB_REG3_RTL8380_FIELDS
 .data.SDS5_FIB_REG2_RTL8380_FIELDS
                0x0000000083f71230       0x10 board/Realtek/rtl838x/librtl838x.o
                0x0000000083f71230                SDS5_FIB_REG2_RTL8380_FIELDS
 .data.SDS5_FIB_REG1_RTL8380_FIELDS
                0x0000000083f71240       0x40 board/Realtek/rtl838x/librtl838x.o
                0x0000000083f71240                SDS5_FIB_REG1_RTL8380_FIELDS
 .data.SDS5_FIB_REG0_RTL8380_FIELDS
                0x0000000083f71280       0x68 board/Realtek/rtl838x/librtl838x.o
                0x0000000083f71280                SDS5_FIB_REG0_RTL8380_FIELDS
 .data.SDS_DUMMY162_RTL8380_FIELDS
                0x0000000083f712e8        0x8 board/Realtek/rtl838x/librtl838x.o
                0x0000000083f712e8                SDS_DUMMY162_RTL8380_FIELDS
 .data.SDS5_EXT_REG30_RTL8380_FIELDS
                0x0000000083f712f0       0x28 board/Realtek/rtl838x/librtl838x.o
                0x0000000083f712f0                SDS5_EXT_REG30_RTL8380_FIELDS
 .data.SDS5_EXT_REG29_RTL8380_FIELDS
                0x0000000083f71318       0x28 board/Realtek/rtl838x/librtl838x.o
                0x0000000083f71318                SDS5_EXT_REG29_RTL8380_FIELDS
 .data.SDS5_EXT_REG28_RTL8380_FIELDS
                0x0000000083f71340       0x10 board/Realtek/rtl838x/librtl838x.o
                0x0000000083f71340                SDS5_EXT_REG28_RTL8380_FIELDS
 .data.SDS5_EXT_REG27_RTL8380_FIELDS
                0x0000000083f71350       0x10 board/Realtek/rtl838x/librtl838x.o
                0x0000000083f71350                SDS5_EXT_REG27_RTL8380_FIELDS
 .data.SDS5_EXT_REG26_RTL8380_FIELDS
                0x0000000083f71360       0x28 board/Realtek/rtl838x/librtl838x.o
                0x0000000083f71360                SDS5_EXT_REG26_RTL8380_FIELDS
 .data.SDS5_EXT_REG25_RTL8380_FIELDS
                0x0000000083f71388       0x18 board/Realtek/rtl838x/librtl838x.o
                0x0000000083f71388                SDS5_EXT_REG25_RTL8380_FIELDS
 .data.SDS5_EXT_REG24_RTL8380_FIELDS
                0x0000000083f713a0       0x50 board/Realtek/rtl838x/librtl838x.o
                0x0000000083f713a0                SDS5_EXT_REG24_RTL8380_FIELDS
 .data.SDS5_EXT_REG23_RTL8380_FIELDS
                0x0000000083f713f0       0x10 board/Realtek/rtl838x/librtl838x.o
                0x0000000083f713f0                SDS5_EXT_REG23_RTL8380_FIELDS
 .data.SDS5_EXT_REG22_RTL8380_FIELDS
                0x0000000083f71400       0x10 board/Realtek/rtl838x/librtl838x.o
                0x0000000083f71400                SDS5_EXT_REG22_RTL8380_FIELDS
 .data.SDS5_EXT_REG21_RTL8380_FIELDS
                0x0000000083f71410       0x10 board/Realtek/rtl838x/librtl838x.o
                0x0000000083f71410                SDS5_EXT_REG21_RTL8380_FIELDS
 .data.SDS5_EXT_REG20_RTL8380_FIELDS
                0x0000000083f71420       0x10 board/Realtek/rtl838x/librtl838x.o
                0x0000000083f71420                SDS5_EXT_REG20_RTL8380_FIELDS
 .data.SDS5_EXT_REG19_RTL8380_FIELDS
                0x0000000083f71430       0x10 board/Realtek/rtl838x/librtl838x.o
                0x0000000083f71430                SDS5_EXT_REG19_RTL8380_FIELDS
 .data.SDS5_EXT_REG18_RTL8380_FIELDS
                0x0000000083f71440       0x10 board/Realtek/rtl838x/librtl838x.o
                0x0000000083f71440                SDS5_EXT_REG18_RTL8380_FIELDS
 .data.SDS5_EXT_REG17_RTL8380_FIELDS
                0x0000000083f71450       0x10 board/Realtek/rtl838x/librtl838x.o
                0x0000000083f71450                SDS5_EXT_REG17_RTL8380_FIELDS
 .data.SDS5_EXT_REG16_RTL8380_FIELDS
                0x0000000083f71460       0x18 board/Realtek/rtl838x/librtl838x.o
                0x0000000083f71460                SDS5_EXT_REG16_RTL8380_FIELDS
 .data.SDS5_EXT_REG15_RTL8380_FIELDS
                0x0000000083f71478       0x28 board/Realtek/rtl838x/librtl838x.o
                0x0000000083f71478                SDS5_EXT_REG15_RTL8380_FIELDS
 .data.SDS5_EXT_REG14_RTL8380_FIELDS
                0x0000000083f714a0       0x30 board/Realtek/rtl838x/librtl838x.o
                0x0000000083f714a0                SDS5_EXT_REG14_RTL8380_FIELDS
 .data.SDS5_EXT_REG13_RTL8380_FIELDS
                0x0000000083f714d0       0x28 board/Realtek/rtl838x/librtl838x.o
                0x0000000083f714d0                SDS5_EXT_REG13_RTL8380_FIELDS
 .data.SDS5_EXT_REG12_RTL8380_FIELDS
                0x0000000083f714f8       0x18 board/Realtek/rtl838x/librtl838x.o
                0x0000000083f714f8                SDS5_EXT_REG12_RTL8380_FIELDS
 .data.SDS5_EXT_REG11_RTL8380_FIELDS
                0x0000000083f71510       0x48 board/Realtek/rtl838x/librtl838x.o
                0x0000000083f71510                SDS5_EXT_REG11_RTL8380_FIELDS
 .data.SDS5_EXT_REG10_RTL8380_FIELDS
                0x0000000083f71558       0x38 board/Realtek/rtl838x/librtl838x.o
                0x0000000083f71558                SDS5_EXT_REG10_RTL8380_FIELDS
 .data.SDS5_EXT_REG9_RTL8380_FIELDS
                0x0000000083f71590       0x70 board/Realtek/rtl838x/librtl838x.o
                0x0000000083f71590                SDS5_EXT_REG9_RTL8380_FIELDS
 .data.SDS5_EXT_REG8_RTL8380_FIELDS
                0x0000000083f71600       0x30 board/Realtek/rtl838x/librtl838x.o
                0x0000000083f71600                SDS5_EXT_REG8_RTL8380_FIELDS
 .data.SDS5_EXT_REG7_RTL8380_FIELDS
                0x0000000083f71630       0x28 board/Realtek/rtl838x/librtl838x.o
                0x0000000083f71630                SDS5_EXT_REG7_RTL8380_FIELDS
 .data.SDS5_EXT_REG6_RTL8380_FIELDS
                0x0000000083f71658       0x48 board/Realtek/rtl838x/librtl838x.o
                0x0000000083f71658                SDS5_EXT_REG6_RTL8380_FIELDS
 .data.SDS5_EXT_REG5_RTL8380_FIELDS
                0x0000000083f716a0       0x20 board/Realtek/rtl838x/librtl838x.o
                0x0000000083f716a0                SDS5_EXT_REG5_RTL8380_FIELDS
 .data.SDS5_EXT_REG4_RTL8380_FIELDS
                0x0000000083f716c0       0x58 board/Realtek/rtl838x/librtl838x.o
                0x0000000083f716c0                SDS5_EXT_REG4_RTL8380_FIELDS
 .data.SDS5_EXT_REG3_RTL8380_FIELDS
                0x0000000083f71718       0x10 board/Realtek/rtl838x/librtl838x.o
                0x0000000083f71718                SDS5_EXT_REG3_RTL8380_FIELDS
 .data.SDS5_EXT_REG2_RTL8380_FIELDS
                0x0000000083f71728       0x38 board/Realtek/rtl838x/librtl838x.o
                0x0000000083f71728                SDS5_EXT_REG2_RTL8380_FIELDS
 .data.SDS5_EXT_REG1_RTL8380_FIELDS
                0x0000000083f71760       0x28 board/Realtek/rtl838x/librtl838x.o
                0x0000000083f71760                SDS5_EXT_REG1_RTL8380_FIELDS
 .data.SDS5_EXT_REG0_RTL8380_FIELDS
                0x0000000083f71788       0x88 board/Realtek/rtl838x/librtl838x.o
                0x0000000083f71788                SDS5_EXT_REG0_RTL8380_FIELDS
 .data.SDS_DUMMY161_RTL8380_FIELDS
                0x0000000083f71810        0x8 board/Realtek/rtl838x/librtl838x.o
                0x0000000083f71810                SDS_DUMMY161_RTL8380_FIELDS
 .data.SDS4_FIB_REG30_RTL8380_FIELDS
                0x0000000083f71818       0x40 board/Realtek/rtl838x/librtl838x.o
                0x0000000083f71818                SDS4_FIB_REG30_RTL8380_FIELDS
 .data.SDS4_FIB_REG29_RTL8380_FIELDS
                0x0000000083f71858       0x28 board/Realtek/rtl838x/librtl838x.o
                0x0000000083f71858                SDS4_FIB_REG29_RTL8380_FIELDS
 .data.SDS4_FIB_REG28_RTL8380_FIELDS
                0x0000000083f71880       0x20 board/Realtek/rtl838x/librtl838x.o
                0x0000000083f71880                SDS4_FIB_REG28_RTL8380_FIELDS
 .data.SDS4_FIB_REG27_RTL8380_FIELDS
                0x0000000083f718a0       0x60 board/Realtek/rtl838x/librtl838x.o
                0x0000000083f718a0                SDS4_FIB_REG27_RTL8380_FIELDS
 .data.SDS4_FIB_REG26_RTL8380_FIELDS
                0x0000000083f71900       0x10 board/Realtek/rtl838x/librtl838x.o
                0x0000000083f71900                SDS4_FIB_REG26_RTL8380_FIELDS
 .data.SDS4_FIB_REG25_RTL8380_FIELDS
                0x0000000083f71910       0x38 board/Realtek/rtl838x/librtl838x.o
                0x0000000083f71910                SDS4_FIB_REG25_RTL8380_FIELDS
 .data.SDS4_FIB_REG24_RTL8380_FIELDS
                0x0000000083f71948       0x20 board/Realtek/rtl838x/librtl838x.o
                0x0000000083f71948                SDS4_FIB_REG24_RTL8380_FIELDS
 .data.SDS4_FIB_REG23_RTL8380_FIELDS
                0x0000000083f71968       0x10 board/Realtek/rtl838x/librtl838x.o
                0x0000000083f71968                SDS4_FIB_REG23_RTL8380_FIELDS
 .data.SDS4_FIB_REG22_RTL8380_FIELDS
                0x0000000083f71978       0x10 board/Realtek/rtl838x/librtl838x.o
                0x0000000083f71978                SDS4_FIB_REG22_RTL8380_FIELDS
 .data.SDS4_FIB_REG21_RTL8380_FIELDS
                0x0000000083f71988       0x10 board/Realtek/rtl838x/librtl838x.o
                0x0000000083f71988                SDS4_FIB_REG21_RTL8380_FIELDS
 .data.SDS4_FIB_REG20_RTL8380_FIELDS
                0x0000000083f71998       0x10 board/Realtek/rtl838x/librtl838x.o
                0x0000000083f71998                SDS4_FIB_REG20_RTL8380_FIELDS
 .data.SDS4_FIB_REG19_RTL8380_FIELDS
                0x0000000083f719a8       0x10 board/Realtek/rtl838x/librtl838x.o
                0x0000000083f719a8                SDS4_FIB_REG19_RTL8380_FIELDS
 .data.SDS4_FIB_REG18_RTL8380_FIELDS
                0x0000000083f719b8       0x10 board/Realtek/rtl838x/librtl838x.o
                0x0000000083f719b8                SDS4_FIB_REG18_RTL8380_FIELDS
 .data.SDS4_FIB_REG17_RTL8380_FIELDS
                0x0000000083f719c8       0x10 board/Realtek/rtl838x/librtl838x.o
                0x0000000083f719c8                SDS4_FIB_REG17_RTL8380_FIELDS
 .data.SDS4_FIB_REG16_RTL8380_FIELDS
                0x0000000083f719d8       0x10 board/Realtek/rtl838x/librtl838x.o
                0x0000000083f719d8                SDS4_FIB_REG16_RTL8380_FIELDS
 .data.SDS4_FIB_REG15_RTL8380_FIELDS
                0x0000000083f719e8       0x10 board/Realtek/rtl838x/librtl838x.o
                0x0000000083f719e8                SDS4_FIB_REG15_RTL8380_FIELDS
 .data.SDS4_FIB_REG14_RTL8380_FIELDS
                0x0000000083f719f8       0x10 board/Realtek/rtl838x/librtl838x.o
                0x0000000083f719f8                SDS4_FIB_REG14_RTL8380_FIELDS
 .data.SDS4_FIB_REG13_RTL8380_FIELDS
                0x0000000083f71a08       0x20 board/Realtek/rtl838x/librtl838x.o
                0x0000000083f71a08                SDS4_FIB_REG13_RTL8380_FIELDS
 .data.SDS4_FIB_REG12_RTL8380_FIELDS
                0x0000000083f71a28       0x10 board/Realtek/rtl838x/librtl838x.o
                0x0000000083f71a28                SDS4_FIB_REG12_RTL8380_FIELDS
 .data.SDS4_FIB_REG11_RTL8380_FIELDS
                0x0000000083f71a38       0x10 board/Realtek/rtl838x/librtl838x.o
                0x0000000083f71a38                SDS4_FIB_REG11_RTL8380_FIELDS
 .data.SDS4_FIB_REG10_RTL8380_FIELDS
                0x0000000083f71a48       0x10 board/Realtek/rtl838x/librtl838x.o
                0x0000000083f71a48                SDS4_FIB_REG10_RTL8380_FIELDS
 .data.SDS4_FIB_REG9_RTL8380_FIELDS
                0x0000000083f71a58       0x10 board/Realtek/rtl838x/librtl838x.o
                0x0000000083f71a58                SDS4_FIB_REG9_RTL8380_FIELDS
 .data.SDS4_FIB_REG8_RTL8380_FIELDS
                0x0000000083f71a68       0x10 board/Realtek/rtl838x/librtl838x.o
                0x0000000083f71a68                SDS4_FIB_REG8_RTL8380_FIELDS
 .data.SDS4_FIB_REG7_RTL8380_FIELDS
                0x0000000083f71a78       0x10 board/Realtek/rtl838x/librtl838x.o
                0x0000000083f71a78                SDS4_FIB_REG7_RTL8380_FIELDS
 .data.SDS4_FIB_REG6_RTL8380_FIELDS
                0x0000000083f71a88       0x28 board/Realtek/rtl838x/librtl838x.o
                0x0000000083f71a88                SDS4_FIB_REG6_RTL8380_FIELDS
 .data.SDS4_FIB_REG5_RTL8380_FIELDS
                0x0000000083f71ab0       0x10 board/Realtek/rtl838x/librtl838x.o
                0x0000000083f71ab0                SDS4_FIB_REG5_RTL8380_FIELDS
 .data.SDS4_FIB_REG4_RTL8380_FIELDS
                0x0000000083f71ac0       0x10 board/Realtek/rtl838x/librtl838x.o
                0x0000000083f71ac0                SDS4_FIB_REG4_RTL8380_FIELDS
 .data.SDS4_FIB_REG3_RTL8380_FIELDS
                0x0000000083f71ad0       0x20 board/Realtek/rtl838x/librtl838x.o
                0x0000000083f71ad0                SDS4_FIB_REG3_RTL8380_FIELDS
 .data.SDS4_FIB_REG2_RTL8380_FIELDS
                0x0000000083f71af0       0x10 board/Realtek/rtl838x/librtl838x.o
                0x0000000083f71af0                SDS4_FIB_REG2_RTL8380_FIELDS
 .data.SDS4_FIB_REG1_RTL8380_FIELDS
                0x0000000083f71b00       0x40 board/Realtek/rtl838x/librtl838x.o
                0x0000000083f71b00                SDS4_FIB_REG1_RTL8380_FIELDS
 .data.SDS4_FIB_REG0_RTL8380_FIELDS
                0x0000000083f71b40       0x68 board/Realtek/rtl838x/librtl838x.o
                0x0000000083f71b40                SDS4_FIB_REG0_RTL8380_FIELDS
 .data.SDS_DUMMY150_RTL8380_FIELDS
                0x0000000083f71ba8        0x8 board/Realtek/rtl838x/librtl838x.o
                0x0000000083f71ba8                SDS_DUMMY150_RTL8380_FIELDS
 .data.SDS4_EXT_REG30_RTL8380_FIELDS
                0x0000000083f71bb0       0x28 board/Realtek/rtl838x/librtl838x.o
                0x0000000083f71bb0                SDS4_EXT_REG30_RTL8380_FIELDS
 .data.SDS4_EXT_REG29_RTL8380_FIELDS
                0x0000000083f71bd8       0x28 board/Realtek/rtl838x/librtl838x.o
                0x0000000083f71bd8                SDS4_EXT_REG29_RTL8380_FIELDS
 .data.SDS4_EXT_REG28_RTL8380_FIELDS
                0x0000000083f71c00       0x10 board/Realtek/rtl838x/librtl838x.o
                0x0000000083f71c00                SDS4_EXT_REG28_RTL8380_FIELDS
 .data.SDS4_EXT_REG27_RTL8380_FIELDS
                0x0000000083f71c10       0x10 board/Realtek/rtl838x/librtl838x.o
                0x0000000083f71c10                SDS4_EXT_REG27_RTL8380_FIELDS
 .data.SDS4_EXT_REG26_RTL8380_FIELDS
                0x0000000083f71c20       0x28 board/Realtek/rtl838x/librtl838x.o
                0x0000000083f71c20                SDS4_EXT_REG26_RTL8380_FIELDS
 .data.SDS4_EXT_REG25_RTL8380_FIELDS
                0x0000000083f71c48       0x18 board/Realtek/rtl838x/librtl838x.o
                0x0000000083f71c48                SDS4_EXT_REG25_RTL8380_FIELDS
 .data.SDS4_EXT_REG24_RTL8380_FIELDS
                0x0000000083f71c60       0x50 board/Realtek/rtl838x/librtl838x.o
                0x0000000083f71c60                SDS4_EXT_REG24_RTL8380_FIELDS
 .data.SDS4_EXT_REG23_RTL8380_FIELDS
                0x0000000083f71cb0       0x10 board/Realtek/rtl838x/librtl838x.o
                0x0000000083f71cb0                SDS4_EXT_REG23_RTL8380_FIELDS
 .data.SDS4_EXT_REG22_RTL8380_FIELDS
                0x0000000083f71cc0       0x10 board/Realtek/rtl838x/librtl838x.o
                0x0000000083f71cc0                SDS4_EXT_REG22_RTL8380_FIELDS
 .data.SDS4_EXT_REG21_RTL8380_FIELDS
                0x0000000083f71cd0       0x10 board/Realtek/rtl838x/librtl838x.o
                0x0000000083f71cd0                SDS4_EXT_REG21_RTL8380_FIELDS
 .data.SDS4_EXT_REG20_RTL8380_FIELDS
                0x0000000083f71ce0       0x28 board/Realtek/rtl838x/librtl838x.o
                0x0000000083f71ce0                SDS4_EXT_REG20_RTL8380_FIELDS
 .data.SDS4_EXT_REG19_RTL8380_FIELDS
                0x0000000083f71d08       0x30 board/Realtek/rtl838x/librtl838x.o
                0x0000000083f71d08                SDS4_EXT_REG19_RTL8380_FIELDS
 .data.SDS4_EXT_REG18_RTL8380_FIELDS
                0x0000000083f71d38       0x38 board/Realtek/rtl838x/librtl838x.o
                0x0000000083f71d38                SDS4_EXT_REG18_RTL8380_FIELDS
 .data.SDS4_EXT_REG17_RTL8380_FIELDS
                0x0000000083f71d70       0x48 board/Realtek/rtl838x/librtl838x.o
                0x0000000083f71d70                SDS4_EXT_REG17_RTL8380_FIELDS
 .data.SDS4_EXT_REG16_RTL8380_FIELDS
                0x0000000083f71db8       0x18 board/Realtek/rtl838x/librtl838x.o
                0x0000000083f71db8                SDS4_EXT_REG16_RTL8380_FIELDS
 .data.SDS4_EXT_REG15_RTL8380_FIELDS
                0x0000000083f71dd0       0x28 board/Realtek/rtl838x/librtl838x.o
                0x0000000083f71dd0                SDS4_EXT_REG15_RTL8380_FIELDS
 .data.SDS4_EXT_REG14_RTL8380_FIELDS
                0x0000000083f71df8       0x30 board/Realtek/rtl838x/librtl838x.o
                0x0000000083f71df8                SDS4_EXT_REG14_RTL8380_FIELDS
 .data.SDS4_EXT_REG13_RTL8380_FIELDS
                0x0000000083f71e28       0x28 board/Realtek/rtl838x/librtl838x.o
                0x0000000083f71e28                SDS4_EXT_REG13_RTL8380_FIELDS
 .data.SDS4_EXT_REG12_RTL8380_FIELDS
                0x0000000083f71e50       0x18 board/Realtek/rtl838x/librtl838x.o
                0x0000000083f71e50                SDS4_EXT_REG12_RTL8380_FIELDS
 .data.SDS4_EXT_REG11_RTL8380_FIELDS
                0x0000000083f71e68       0x48 board/Realtek/rtl838x/librtl838x.o
                0x0000000083f71e68                SDS4_EXT_REG11_RTL8380_FIELDS
 .data.SDS4_EXT_REG10_RTL8380_FIELDS
                0x0000000083f71eb0       0x38 board/Realtek/rtl838x/librtl838x.o
                0x0000000083f71eb0                SDS4_EXT_REG10_RTL8380_FIELDS
 .data.SDS4_EXT_REG9_RTL8380_FIELDS
                0x0000000083f71ee8       0x70 board/Realtek/rtl838x/librtl838x.o
                0x0000000083f71ee8                SDS4_EXT_REG9_RTL8380_FIELDS
 .data.SDS4_EXT_REG8_RTL8380_FIELDS
                0x0000000083f71f58       0x30 board/Realtek/rtl838x/librtl838x.o
                0x0000000083f71f58                SDS4_EXT_REG8_RTL8380_FIELDS
 .data.SDS4_EXT_REG7_RTL8380_FIELDS
                0x0000000083f71f88       0x28 board/Realtek/rtl838x/librtl838x.o
                0x0000000083f71f88                SDS4_EXT_REG7_RTL8380_FIELDS
 .data.SDS4_EXT_REG6_RTL8380_FIELDS
                0x0000000083f71fb0       0x48 board/Realtek/rtl838x/librtl838x.o
                0x0000000083f71fb0                SDS4_EXT_REG6_RTL8380_FIELDS
 .data.SDS4_EXT_REG5_RTL8380_FIELDS
                0x0000000083f71ff8       0x20 board/Realtek/rtl838x/librtl838x.o
                0x0000000083f71ff8                SDS4_EXT_REG5_RTL8380_FIELDS
 .data.SDS4_EXT_REG4_RTL8380_FIELDS
                0x0000000083f72018       0x58 board/Realtek/rtl838x/librtl838x.o
                0x0000000083f72018                SDS4_EXT_REG4_RTL8380_FIELDS
 .data.SDS4_EXT_REG3_RTL8380_FIELDS
                0x0000000083f72070       0x58 board/Realtek/rtl838x/librtl838x.o
                0x0000000083f72070                SDS4_EXT_REG3_RTL8380_FIELDS
 .data.SDS4_EXT_REG2_RTL8380_FIELDS
                0x0000000083f720c8       0x58 board/Realtek/rtl838x/librtl838x.o
                0x0000000083f720c8                SDS4_EXT_REG2_RTL8380_FIELDS
 .data.SDS4_EXT_REG1_RTL8380_FIELDS
                0x0000000083f72120       0x48 board/Realtek/rtl838x/librtl838x.o
                0x0000000083f72120                SDS4_EXT_REG1_RTL8380_FIELDS
 .data.SDS4_EXT_REG0_RTL8380_FIELDS
                0x0000000083f72168       0x88 board/Realtek/rtl838x/librtl838x.o
                0x0000000083f72168                SDS4_EXT_REG0_RTL8380_FIELDS
 .data.SDS_DUMMY149_RTL8380_FIELDS
                0x0000000083f721f0        0x8 board/Realtek/rtl838x/librtl838x.o
                0x0000000083f721f0                SDS_DUMMY149_RTL8380_FIELDS
 .data.SDS3_FIB_REG30_RTL8380_FIELDS
                0x0000000083f721f8       0x40 board/Realtek/rtl838x/librtl838x.o
                0x0000000083f721f8                SDS3_FIB_REG30_RTL8380_FIELDS
 .data.SDS3_FIB_REG29_RTL8380_FIELDS
                0x0000000083f72238       0x28 board/Realtek/rtl838x/librtl838x.o
                0x0000000083f72238                SDS3_FIB_REG29_RTL8380_FIELDS
 .data.SDS3_FIB_REG28_RTL8380_FIELDS
                0x0000000083f72260       0x20 board/Realtek/rtl838x/librtl838x.o
                0x0000000083f72260                SDS3_FIB_REG28_RTL8380_FIELDS
 .data.SDS3_FIB_REG27_RTL8380_FIELDS
                0x0000000083f72280       0x48 board/Realtek/rtl838x/librtl838x.o
                0x0000000083f72280                SDS3_FIB_REG27_RTL8380_FIELDS
 .data.SDS3_FIB_REG26_RTL8380_FIELDS
                0x0000000083f722c8       0x10 board/Realtek/rtl838x/librtl838x.o
                0x0000000083f722c8                SDS3_FIB_REG26_RTL8380_FIELDS
 .data.SDS3_FIB_REG25_RTL8380_FIELDS
                0x0000000083f722d8       0x38 board/Realtek/rtl838x/librtl838x.o
                0x0000000083f722d8                SDS3_FIB_REG25_RTL8380_FIELDS
 .data.SDS3_FIB_REG24_RTL8380_FIELDS
                0x0000000083f72310       0x18 board/Realtek/rtl838x/librtl838x.o
                0x0000000083f72310                SDS3_FIB_REG24_RTL8380_FIELDS
 .data.SDS3_FIB_REG23_RTL8380_FIELDS
                0x0000000083f72328       0x10 board/Realtek/rtl838x/librtl838x.o
                0x0000000083f72328                SDS3_FIB_REG23_RTL8380_FIELDS
 .data.SDS3_FIB_REG22_RTL8380_FIELDS
                0x0000000083f72338       0x10 board/Realtek/rtl838x/librtl838x.o
                0x0000000083f72338                SDS3_FIB_REG22_RTL8380_FIELDS
 .data.SDS3_FIB_REG21_RTL8380_FIELDS
                0x0000000083f72348       0x10 board/Realtek/rtl838x/librtl838x.o
                0x0000000083f72348                SDS3_FIB_REG21_RTL8380_FIELDS
 .data.SDS3_FIB_REG20_RTL8380_FIELDS
                0x0000000083f72358       0x10 board/Realtek/rtl838x/librtl838x.o
                0x0000000083f72358                SDS3_FIB_REG20_RTL8380_FIELDS
 .data.SDS3_FIB_REG19_RTL8380_FIELDS
                0x0000000083f72368       0x10 board/Realtek/rtl838x/librtl838x.o
                0x0000000083f72368                SDS3_FIB_REG19_RTL8380_FIELDS
 .data.SDS3_FIB_REG18_RTL8380_FIELDS
                0x0000000083f72378       0x10 board/Realtek/rtl838x/librtl838x.o
                0x0000000083f72378                SDS3_FIB_REG18_RTL8380_FIELDS
 .data.SDS3_FIB_REG17_RTL8380_FIELDS
                0x0000000083f72388       0x10 board/Realtek/rtl838x/librtl838x.o
                0x0000000083f72388                SDS3_FIB_REG17_RTL8380_FIELDS
 .data.SDS3_FIB_REG16_RTL8380_FIELDS
                0x0000000083f72398       0x10 board/Realtek/rtl838x/librtl838x.o
                0x0000000083f72398                SDS3_FIB_REG16_RTL8380_FIELDS
 .data.SDS3_FIB_REG15_RTL8380_FIELDS
                0x0000000083f723a8       0x10 board/Realtek/rtl838x/librtl838x.o
                0x0000000083f723a8                SDS3_FIB_REG15_RTL8380_FIELDS
 .data.SDS3_FIB_REG14_RTL8380_FIELDS
                0x0000000083f723b8       0x10 board/Realtek/rtl838x/librtl838x.o
                0x0000000083f723b8                SDS3_FIB_REG14_RTL8380_FIELDS
 .data.SDS3_FIB_REG13_RTL8380_FIELDS
                0x0000000083f723c8       0x20 board/Realtek/rtl838x/librtl838x.o
                0x0000000083f723c8                SDS3_FIB_REG13_RTL8380_FIELDS
 .data.SDS3_FIB_REG12_RTL8380_FIELDS
                0x0000000083f723e8       0x10 board/Realtek/rtl838x/librtl838x.o
                0x0000000083f723e8                SDS3_FIB_REG12_RTL8380_FIELDS
 .data.SDS3_FIB_REG11_RTL8380_FIELDS
                0x0000000083f723f8       0x10 board/Realtek/rtl838x/librtl838x.o
                0x0000000083f723f8                SDS3_FIB_REG11_RTL8380_FIELDS
 .data.SDS3_FIB_REG10_RTL8380_FIELDS
                0x0000000083f72408       0x10 board/Realtek/rtl838x/librtl838x.o
                0x0000000083f72408                SDS3_FIB_REG10_RTL8380_FIELDS
 .data.SDS3_FIB_REG9_RTL8380_FIELDS
                0x0000000083f72418       0x10 board/Realtek/rtl838x/librtl838x.o
                0x0000000083f72418                SDS3_FIB_REG9_RTL8380_FIELDS
 .data.SDS3_FIB_REG8_RTL8380_FIELDS
                0x0000000083f72428       0x10 board/Realtek/rtl838x/librtl838x.o
                0x0000000083f72428                SDS3_FIB_REG8_RTL8380_FIELDS
 .data.SDS3_FIB_REG7_RTL8380_FIELDS
                0x0000000083f72438       0x10 board/Realtek/rtl838x/librtl838x.o
                0x0000000083f72438                SDS3_FIB_REG7_RTL8380_FIELDS
 .data.SDS3_FIB_REG6_RTL8380_FIELDS
                0x0000000083f72448       0x28 board/Realtek/rtl838x/librtl838x.o
                0x0000000083f72448                SDS3_FIB_REG6_RTL8380_FIELDS
 .data.SDS3_FIB_REG5_RTL8380_FIELDS
                0x0000000083f72470       0x10 board/Realtek/rtl838x/librtl838x.o
                0x0000000083f72470                SDS3_FIB_REG5_RTL8380_FIELDS
 .data.SDS3_FIB_REG4_RTL8380_FIELDS
                0x0000000083f72480       0x10 board/Realtek/rtl838x/librtl838x.o
                0x0000000083f72480                SDS3_FIB_REG4_RTL8380_FIELDS
 .data.SDS3_FIB_REG3_RTL8380_FIELDS
                0x0000000083f72490       0x20 board/Realtek/rtl838x/librtl838x.o
                0x0000000083f72490                SDS3_FIB_REG3_RTL8380_FIELDS
 .data.SDS3_FIB_REG2_RTL8380_FIELDS
                0x0000000083f724b0       0x10 board/Realtek/rtl838x/librtl838x.o
                0x0000000083f724b0                SDS3_FIB_REG2_RTL8380_FIELDS
 .data.SDS3_FIB_REG1_RTL8380_FIELDS
                0x0000000083f724c0       0x40 board/Realtek/rtl838x/librtl838x.o
                0x0000000083f724c0                SDS3_FIB_REG1_RTL8380_FIELDS
 .data.SDS3_FIB_REG0_RTL8380_FIELDS
                0x0000000083f72500       0x68 board/Realtek/rtl838x/librtl838x.o
                0x0000000083f72500                SDS3_FIB_REG0_RTL8380_FIELDS
 .data.SDS_DUMMY138_RTL8380_FIELDS
                0x0000000083f72568        0x8 board/Realtek/rtl838x/librtl838x.o
                0x0000000083f72568                SDS_DUMMY138_RTL8380_FIELDS
 .data.SDS3_EXT_REG30_RTL8380_FIELDS
                0x0000000083f72570       0x28 board/Realtek/rtl838x/librtl838x.o
                0x0000000083f72570                SDS3_EXT_REG30_RTL8380_FIELDS
 .data.SDS3_EXT_REG29_RTL8380_FIELDS
                0x0000000083f72598       0x28 board/Realtek/rtl838x/librtl838x.o
                0x0000000083f72598                SDS3_EXT_REG29_RTL8380_FIELDS
 .data.SDS3_EXT_REG28_RTL8380_FIELDS
                0x0000000083f725c0       0x10 board/Realtek/rtl838x/librtl838x.o
                0x0000000083f725c0                SDS3_EXT_REG28_RTL8380_FIELDS
 .data.SDS3_EXT_REG27_RTL8380_FIELDS
                0x0000000083f725d0       0x10 board/Realtek/rtl838x/librtl838x.o
                0x0000000083f725d0                SDS3_EXT_REG27_RTL8380_FIELDS
 .data.SDS3_EXT_REG26_RTL8380_FIELDS
                0x0000000083f725e0       0x28 board/Realtek/rtl838x/librtl838x.o
                0x0000000083f725e0                SDS3_EXT_REG26_RTL8380_FIELDS
 .data.SDS3_EXT_REG25_RTL8380_FIELDS
                0x0000000083f72608       0x18 board/Realtek/rtl838x/librtl838x.o
                0x0000000083f72608                SDS3_EXT_REG25_RTL8380_FIELDS
 .data.SDS3_EXT_REG24_RTL8380_FIELDS
                0x0000000083f72620       0x50 board/Realtek/rtl838x/librtl838x.o
                0x0000000083f72620                SDS3_EXT_REG24_RTL8380_FIELDS
 .data.SDS3_EXT_REG23_RTL8380_FIELDS
                0x0000000083f72670       0x10 board/Realtek/rtl838x/librtl838x.o
                0x0000000083f72670                SDS3_EXT_REG23_RTL8380_FIELDS
 .data.SDS3_EXT_REG22_RTL8380_FIELDS
                0x0000000083f72680       0x10 board/Realtek/rtl838x/librtl838x.o
                0x0000000083f72680                SDS3_EXT_REG22_RTL8380_FIELDS
 .data.SDS3_EXT_REG21_RTL8380_FIELDS
                0x0000000083f72690       0x10 board/Realtek/rtl838x/librtl838x.o
                0x0000000083f72690                SDS3_EXT_REG21_RTL8380_FIELDS
 .data.SDS3_EXT_REG20_RTL8380_FIELDS
                0x0000000083f726a0       0x10 board/Realtek/rtl838x/librtl838x.o
                0x0000000083f726a0                SDS3_EXT_REG20_RTL8380_FIELDS
 .data.SDS3_EXT_REG19_RTL8380_FIELDS
                0x0000000083f726b0       0x10 board/Realtek/rtl838x/librtl838x.o
                0x0000000083f726b0                SDS3_EXT_REG19_RTL8380_FIELDS
 .data.SDS3_EXT_REG18_RTL8380_FIELDS
                0x0000000083f726c0       0x20 board/Realtek/rtl838x/librtl838x.o
                0x0000000083f726c0                SDS3_EXT_REG18_RTL8380_FIELDS
 .data.SDS3_EXT_REG17_RTL8380_FIELDS
                0x0000000083f726e0       0x18 board/Realtek/rtl838x/librtl838x.o
                0x0000000083f726e0                SDS3_EXT_REG17_RTL8380_FIELDS
 .data.SDS3_EXT_REG16_RTL8380_FIELDS
                0x0000000083f726f8       0x18 board/Realtek/rtl838x/librtl838x.o
                0x0000000083f726f8                SDS3_EXT_REG16_RTL8380_FIELDS
 .data.SDS3_EXT_REG15_RTL8380_FIELDS
                0x0000000083f72710       0x28 board/Realtek/rtl838x/librtl838x.o
                0x0000000083f72710                SDS3_EXT_REG15_RTL8380_FIELDS
 .data.SDS3_EXT_REG14_RTL8380_FIELDS
                0x0000000083f72738       0x30 board/Realtek/rtl838x/librtl838x.o
                0x0000000083f72738                SDS3_EXT_REG14_RTL8380_FIELDS
 .data.SDS3_EXT_REG13_RTL8380_FIELDS
                0x0000000083f72768       0x28 board/Realtek/rtl838x/librtl838x.o
                0x0000000083f72768                SDS3_EXT_REG13_RTL8380_FIELDS
 .data.SDS3_EXT_REG12_RTL8380_FIELDS
                0x0000000083f72790       0x18 board/Realtek/rtl838x/librtl838x.o
                0x0000000083f72790                SDS3_EXT_REG12_RTL8380_FIELDS
 .data.SDS3_EXT_REG11_RTL8380_FIELDS
                0x0000000083f727a8       0x48 board/Realtek/rtl838x/librtl838x.o
                0x0000000083f727a8                SDS3_EXT_REG11_RTL8380_FIELDS
 .data.SDS3_EXT_REG10_RTL8380_FIELDS
                0x0000000083f727f0       0x38 board/Realtek/rtl838x/librtl838x.o
                0x0000000083f727f0                SDS3_EXT_REG10_RTL8380_FIELDS
 .data.SDS3_EXT_REG9_RTL8380_FIELDS
                0x0000000083f72828       0x70 board/Realtek/rtl838x/librtl838x.o
                0x0000000083f72828                SDS3_EXT_REG9_RTL8380_FIELDS
 .data.SDS3_EXT_REG8_RTL8380_FIELDS
                0x0000000083f72898       0x30 board/Realtek/rtl838x/librtl838x.o
                0x0000000083f72898                SDS3_EXT_REG8_RTL8380_FIELDS
 .data.SDS3_EXT_REG7_RTL8380_FIELDS
                0x0000000083f728c8       0x28 board/Realtek/rtl838x/librtl838x.o
                0x0000000083f728c8                SDS3_EXT_REG7_RTL8380_FIELDS
 .data.SDS3_EXT_REG6_RTL8380_FIELDS
                0x0000000083f728f0       0x48 board/Realtek/rtl838x/librtl838x.o
                0x0000000083f728f0                SDS3_EXT_REG6_RTL8380_FIELDS
 .data.SDS3_EXT_REG5_RTL8380_FIELDS
                0x0000000083f72938       0x20 board/Realtek/rtl838x/librtl838x.o
                0x0000000083f72938                SDS3_EXT_REG5_RTL8380_FIELDS
 .data.SDS3_EXT_REG4_RTL8380_FIELDS
                0x0000000083f72958       0x58 board/Realtek/rtl838x/librtl838x.o
                0x0000000083f72958                SDS3_EXT_REG4_RTL8380_FIELDS
 .data.SDS3_EXT_REG3_RTL8380_FIELDS
                0x0000000083f729b0       0x10 board/Realtek/rtl838x/librtl838x.o
                0x0000000083f729b0                SDS3_EXT_REG3_RTL8380_FIELDS
 .data.SDS3_EXT_REG2_RTL8380_FIELDS
                0x0000000083f729c0       0x38 board/Realtek/rtl838x/librtl838x.o
                0x0000000083f729c0                SDS3_EXT_REG2_RTL8380_FIELDS
 .data.SDS3_EXT_REG1_RTL8380_FIELDS
                0x0000000083f729f8       0x10 board/Realtek/rtl838x/librtl838x.o
                0x0000000083f729f8                SDS3_EXT_REG1_RTL8380_FIELDS
 .data.SDS3_EXT_REG0_RTL8380_FIELDS
                0x0000000083f72a08       0x88 board/Realtek/rtl838x/librtl838x.o
                0x0000000083f72a08                SDS3_EXT_REG0_RTL8380_FIELDS
 .data.SDS_DUMMY137_RTL8380_FIELDS
                0x0000000083f72a90        0x8 board/Realtek/rtl838x/librtl838x.o
                0x0000000083f72a90                SDS_DUMMY137_RTL8380_FIELDS
 .data.SDS2_FIB_REG30_RTL8380_FIELDS
                0x0000000083f72a98       0x40 board/Realtek/rtl838x/librtl838x.o
                0x0000000083f72a98                SDS2_FIB_REG30_RTL8380_FIELDS
 .data.SDS2_FIB_REG29_RTL8380_FIELDS
                0x0000000083f72ad8       0x28 board/Realtek/rtl838x/librtl838x.o
                0x0000000083f72ad8                SDS2_FIB_REG29_RTL8380_FIELDS
 .data.SDS2_FIB_REG28_RTL8380_FIELDS
                0x0000000083f72b00       0x20 board/Realtek/rtl838x/librtl838x.o
                0x0000000083f72b00                SDS2_FIB_REG28_RTL8380_FIELDS
 .data.SDS2_FIB_REG27_RTL8380_FIELDS
                0x0000000083f72b20       0x60 board/Realtek/rtl838x/librtl838x.o
                0x0000000083f72b20                SDS2_FIB_REG27_RTL8380_FIELDS
 .data.SDS2_FIB_REG26_RTL8380_FIELDS
                0x0000000083f72b80       0x10 board/Realtek/rtl838x/librtl838x.o
                0x0000000083f72b80                SDS2_FIB_REG26_RTL8380_FIELDS
 .data.SDS2_FIB_REG25_RTL8380_FIELDS
                0x0000000083f72b90       0x38 board/Realtek/rtl838x/librtl838x.o
                0x0000000083f72b90                SDS2_FIB_REG25_RTL8380_FIELDS
 .data.SDS2_FIB_REG24_RTL8380_FIELDS
                0x0000000083f72bc8       0x20 board/Realtek/rtl838x/librtl838x.o
                0x0000000083f72bc8                SDS2_FIB_REG24_RTL8380_FIELDS
 .data.SDS2_FIB_REG23_RTL8380_FIELDS
                0x0000000083f72be8       0x10 board/Realtek/rtl838x/librtl838x.o
                0x0000000083f72be8                SDS2_FIB_REG23_RTL8380_FIELDS
 .data.SDS2_FIB_REG22_RTL8380_FIELDS
                0x0000000083f72bf8       0x10 board/Realtek/rtl838x/librtl838x.o
                0x0000000083f72bf8                SDS2_FIB_REG22_RTL8380_FIELDS
 .data.SDS2_FIB_REG21_RTL8380_FIELDS
                0x0000000083f72c08       0x10 board/Realtek/rtl838x/librtl838x.o
                0x0000000083f72c08                SDS2_FIB_REG21_RTL8380_FIELDS
 .data.SDS2_FIB_REG20_RTL8380_FIELDS
                0x0000000083f72c18       0x10 board/Realtek/rtl838x/librtl838x.o
                0x0000000083f72c18                SDS2_FIB_REG20_RTL8380_FIELDS
 .data.SDS2_FIB_REG19_RTL8380_FIELDS
                0x0000000083f72c28       0x10 board/Realtek/rtl838x/librtl838x.o
                0x0000000083f72c28                SDS2_FIB_REG19_RTL8380_FIELDS
 .data.SDS2_FIB_REG18_RTL8380_FIELDS
                0x0000000083f72c38       0x10 board/Realtek/rtl838x/librtl838x.o
                0x0000000083f72c38                SDS2_FIB_REG18_RTL8380_FIELDS
 .data.SDS2_FIB_REG17_RTL8380_FIELDS
                0x0000000083f72c48       0x10 board/Realtek/rtl838x/librtl838x.o
                0x0000000083f72c48                SDS2_FIB_REG17_RTL8380_FIELDS
 .data.SDS2_FIB_REG16_RTL8380_FIELDS
                0x0000000083f72c58       0x10 board/Realtek/rtl838x/librtl838x.o
                0x0000000083f72c58                SDS2_FIB_REG16_RTL8380_FIELDS
 .data.SDS2_FIB_REG15_RTL8380_FIELDS
                0x0000000083f72c68       0x10 board/Realtek/rtl838x/librtl838x.o
                0x0000000083f72c68                SDS2_FIB_REG15_RTL8380_FIELDS
 .data.SDS2_FIB_REG14_RTL8380_FIELDS
                0x0000000083f72c78       0x10 board/Realtek/rtl838x/librtl838x.o
                0x0000000083f72c78                SDS2_FIB_REG14_RTL8380_FIELDS
 .data.SDS2_FIB_REG13_RTL8380_FIELDS
                0x0000000083f72c88       0x20 board/Realtek/rtl838x/librtl838x.o
                0x0000000083f72c88                SDS2_FIB_REG13_RTL8380_FIELDS
 .data.SDS2_FIB_REG12_RTL8380_FIELDS
                0x0000000083f72ca8       0x10 board/Realtek/rtl838x/librtl838x.o
                0x0000000083f72ca8                SDS2_FIB_REG12_RTL8380_FIELDS
 .data.SDS2_FIB_REG11_RTL8380_FIELDS
                0x0000000083f72cb8       0x10 board/Realtek/rtl838x/librtl838x.o
                0x0000000083f72cb8                SDS2_FIB_REG11_RTL8380_FIELDS
 .data.SDS2_FIB_REG10_RTL8380_FIELDS
                0x0000000083f72cc8       0x10 board/Realtek/rtl838x/librtl838x.o
                0x0000000083f72cc8                SDS2_FIB_REG10_RTL8380_FIELDS
 .data.SDS2_FIB_REG9_RTL8380_FIELDS
                0x0000000083f72cd8       0x10 board/Realtek/rtl838x/librtl838x.o
                0x0000000083f72cd8                SDS2_FIB_REG9_RTL8380_FIELDS
 .data.SDS2_FIB_REG8_RTL8380_FIELDS
                0x0000000083f72ce8       0x10 board/Realtek/rtl838x/librtl838x.o
                0x0000000083f72ce8                SDS2_FIB_REG8_RTL8380_FIELDS
 .data.SDS2_FIB_REG7_RTL8380_FIELDS
                0x0000000083f72cf8       0x10 board/Realtek/rtl838x/librtl838x.o
                0x0000000083f72cf8                SDS2_FIB_REG7_RTL8380_FIELDS
 .data.SDS2_FIB_REG6_RTL8380_FIELDS
                0x0000000083f72d08       0x28 board/Realtek/rtl838x/librtl838x.o
                0x0000000083f72d08                SDS2_FIB_REG6_RTL8380_FIELDS
 .data.SDS2_FIB_REG5_RTL8380_FIELDS
                0x0000000083f72d30       0x10 board/Realtek/rtl838x/librtl838x.o
                0x0000000083f72d30                SDS2_FIB_REG5_RTL8380_FIELDS
 .data.SDS2_FIB_REG4_RTL8380_FIELDS
                0x0000000083f72d40       0x10 board/Realtek/rtl838x/librtl838x.o
                0x0000000083f72d40                SDS2_FIB_REG4_RTL8380_FIELDS
 .data.SDS2_FIB_REG3_RTL8380_FIELDS
                0x0000000083f72d50       0x20 board/Realtek/rtl838x/librtl838x.o
                0x0000000083f72d50                SDS2_FIB_REG3_RTL8380_FIELDS
 .data.SDS2_FIB_REG2_RTL8380_FIELDS
                0x0000000083f72d70       0x10 board/Realtek/rtl838x/librtl838x.o
                0x0000000083f72d70                SDS2_FIB_REG2_RTL8380_FIELDS
 .data.SDS2_FIB_REG1_RTL8380_FIELDS
                0x0000000083f72d80       0x40 board/Realtek/rtl838x/librtl838x.o
                0x0000000083f72d80                SDS2_FIB_REG1_RTL8380_FIELDS
 .data.SDS2_FIB_REG0_RTL8380_FIELDS
                0x0000000083f72dc0       0x68 board/Realtek/rtl838x/librtl838x.o
                0x0000000083f72dc0                SDS2_FIB_REG0_RTL8380_FIELDS
 .data.SDS_DUMMY126_RTL8380_FIELDS
                0x0000000083f72e28        0x8 board/Realtek/rtl838x/librtl838x.o
                0x0000000083f72e28                SDS_DUMMY126_RTL8380_FIELDS
 .data.SDS2_EXT_REG30_RTL8380_FIELDS
                0x0000000083f72e30       0x28 board/Realtek/rtl838x/librtl838x.o
                0x0000000083f72e30                SDS2_EXT_REG30_RTL8380_FIELDS
 .data.SDS2_EXT_REG29_RTL8380_FIELDS
                0x0000000083f72e58       0x28 board/Realtek/rtl838x/librtl838x.o
                0x0000000083f72e58                SDS2_EXT_REG29_RTL8380_FIELDS
 .data.SDS2_EXT_REG28_RTL8380_FIELDS
                0x0000000083f72e80       0x10 board/Realtek/rtl838x/librtl838x.o
                0x0000000083f72e80                SDS2_EXT_REG28_RTL8380_FIELDS
 .data.SDS2_EXT_REG27_RTL8380_FIELDS
                0x0000000083f72e90       0x10 board/Realtek/rtl838x/librtl838x.o
                0x0000000083f72e90                SDS2_EXT_REG27_RTL8380_FIELDS
 .data.SDS2_EXT_REG26_RTL8380_FIELDS
                0x0000000083f72ea0       0x28 board/Realtek/rtl838x/librtl838x.o
                0x0000000083f72ea0                SDS2_EXT_REG26_RTL8380_FIELDS
 .data.SDS2_EXT_REG25_RTL8380_FIELDS
                0x0000000083f72ec8       0x18 board/Realtek/rtl838x/librtl838x.o
                0x0000000083f72ec8                SDS2_EXT_REG25_RTL8380_FIELDS
 .data.SDS2_EXT_REG24_RTL8380_FIELDS
                0x0000000083f72ee0       0x50 board/Realtek/rtl838x/librtl838x.o
                0x0000000083f72ee0                SDS2_EXT_REG24_RTL8380_FIELDS
 .data.SDS2_EXT_REG23_RTL8380_FIELDS
                0x0000000083f72f30       0x10 board/Realtek/rtl838x/librtl838x.o
                0x0000000083f72f30                SDS2_EXT_REG23_RTL8380_FIELDS
 .data.SDS2_EXT_REG22_RTL8380_FIELDS
                0x0000000083f72f40       0x10 board/Realtek/rtl838x/librtl838x.o
                0x0000000083f72f40                SDS2_EXT_REG22_RTL8380_FIELDS
 .data.SDS2_EXT_REG21_RTL8380_FIELDS
                0x0000000083f72f50       0x10 board/Realtek/rtl838x/librtl838x.o
                0x0000000083f72f50                SDS2_EXT_REG21_RTL8380_FIELDS
 .data.SDS2_EXT_REG20_RTL8380_FIELDS
                0x0000000083f72f60       0x50 board/Realtek/rtl838x/librtl838x.o
                0x0000000083f72f60                SDS2_EXT_REG20_RTL8380_FIELDS
 .data.SDS2_EXT_REG19_RTL8380_FIELDS
                0x0000000083f72fb0       0x50 board/Realtek/rtl838x/librtl838x.o
                0x0000000083f72fb0                SDS2_EXT_REG19_RTL8380_FIELDS
 .data.SDS2_EXT_REG18_RTL8380_FIELDS
                0x0000000083f73000       0x30 board/Realtek/rtl838x/librtl838x.o
                0x0000000083f73000                SDS2_EXT_REG18_RTL8380_FIELDS
 .data.SDS2_EXT_REG17_RTL8380_FIELDS
                0x0000000083f73030       0x48 board/Realtek/rtl838x/librtl838x.o
                0x0000000083f73030                SDS2_EXT_REG17_RTL8380_FIELDS
 .data.SDS2_EXT_REG16_RTL8380_FIELDS
                0x0000000083f73078       0x18 board/Realtek/rtl838x/librtl838x.o
                0x0000000083f73078                SDS2_EXT_REG16_RTL8380_FIELDS
 .data.SDS2_EXT_REG15_RTL8380_FIELDS
                0x0000000083f73090       0x28 board/Realtek/rtl838x/librtl838x.o
                0x0000000083f73090                SDS2_EXT_REG15_RTL8380_FIELDS
 .data.SDS2_EXT_REG14_RTL8380_FIELDS
                0x0000000083f730b8       0x30 board/Realtek/rtl838x/librtl838x.o
                0x0000000083f730b8                SDS2_EXT_REG14_RTL8380_FIELDS
 .data.SDS2_EXT_REG13_RTL8380_FIELDS
                0x0000000083f730e8       0x28 board/Realtek/rtl838x/librtl838x.o
                0x0000000083f730e8                SDS2_EXT_REG13_RTL8380_FIELDS
 .data.SDS2_EXT_REG12_RTL8380_FIELDS
                0x0000000083f73110       0x18 board/Realtek/rtl838x/librtl838x.o
                0x0000000083f73110                SDS2_EXT_REG12_RTL8380_FIELDS
 .data.SDS2_EXT_REG11_RTL8380_FIELDS
                0x0000000083f73128       0x48 board/Realtek/rtl838x/librtl838x.o
                0x0000000083f73128                SDS2_EXT_REG11_RTL8380_FIELDS
 .data.SDS2_EXT_REG10_RTL8380_FIELDS
                0x0000000083f73170       0x38 board/Realtek/rtl838x/librtl838x.o
                0x0000000083f73170                SDS2_EXT_REG10_RTL8380_FIELDS
 .data.SDS2_EXT_REG9_RTL8380_FIELDS
                0x0000000083f731a8       0x70 board/Realtek/rtl838x/librtl838x.o
                0x0000000083f731a8                SDS2_EXT_REG9_RTL8380_FIELDS
 .data.SDS2_EXT_REG8_RTL8380_FIELDS
                0x0000000083f73218       0x30 board/Realtek/rtl838x/librtl838x.o
                0x0000000083f73218                SDS2_EXT_REG8_RTL8380_FIELDS
 .data.SDS2_EXT_REG7_RTL8380_FIELDS
                0x0000000083f73248       0x28 board/Realtek/rtl838x/librtl838x.o
                0x0000000083f73248                SDS2_EXT_REG7_RTL8380_FIELDS
 .data.SDS2_EXT_REG6_RTL8380_FIELDS
                0x0000000083f73270       0x48 board/Realtek/rtl838x/librtl838x.o
                0x0000000083f73270                SDS2_EXT_REG6_RTL8380_FIELDS
 .data.SDS2_EXT_REG5_RTL8380_FIELDS
                0x0000000083f732b8       0x20 board/Realtek/rtl838x/librtl838x.o
                0x0000000083f732b8                SDS2_EXT_REG5_RTL8380_FIELDS
 .data.SDS2_EXT_REG4_RTL8380_FIELDS
                0x0000000083f732d8       0x58 board/Realtek/rtl838x/librtl838x.o
                0x0000000083f732d8                SDS2_EXT_REG4_RTL8380_FIELDS
 .data.SDS2_EXT_REG3_RTL8380_FIELDS
                0x0000000083f73330       0x58 board/Realtek/rtl838x/librtl838x.o
                0x0000000083f73330                SDS2_EXT_REG3_RTL8380_FIELDS
 .data.SDS2_EXT_REG2_RTL8380_FIELDS
                0x0000000083f73388       0x58 board/Realtek/rtl838x/librtl838x.o
                0x0000000083f73388                SDS2_EXT_REG2_RTL8380_FIELDS
 .data.SDS2_EXT_REG1_RTL8380_FIELDS
                0x0000000083f733e0       0x10 board/Realtek/rtl838x/librtl838x.o
                0x0000000083f733e0                SDS2_EXT_REG1_RTL8380_FIELDS
 .data.SDS2_EXT_REG0_RTL8380_FIELDS
                0x0000000083f733f0       0x88 board/Realtek/rtl838x/librtl838x.o
                0x0000000083f733f0                SDS2_EXT_REG0_RTL8380_FIELDS
 .data.SDS_DUMMY125_RTL8380_FIELDS
                0x0000000083f73478        0x8 board/Realtek/rtl838x/librtl838x.o
                0x0000000083f73478                SDS_DUMMY125_RTL8380_FIELDS
 .data.SDS1_FIB_REG30_RTL8380_FIELDS
                0x0000000083f73480       0x40 board/Realtek/rtl838x/librtl838x.o
                0x0000000083f73480                SDS1_FIB_REG30_RTL8380_FIELDS
 .data.SDS1_FIB_REG29_RTL8380_FIELDS
                0x0000000083f734c0       0x28 board/Realtek/rtl838x/librtl838x.o
                0x0000000083f734c0                SDS1_FIB_REG29_RTL8380_FIELDS
 .data.SDS1_FIB_REG28_RTL8380_FIELDS
                0x0000000083f734e8       0x20 board/Realtek/rtl838x/librtl838x.o
                0x0000000083f734e8                SDS1_FIB_REG28_RTL8380_FIELDS
 .data.SDS1_FIB_REG27_RTL8380_FIELDS
                0x0000000083f73508       0x48 board/Realtek/rtl838x/librtl838x.o
                0x0000000083f73508                SDS1_FIB_REG27_RTL8380_FIELDS
 .data.SDS1_FIB_REG26_RTL8380_FIELDS
                0x0000000083f73550       0x10 board/Realtek/rtl838x/librtl838x.o
                0x0000000083f73550                SDS1_FIB_REG26_RTL8380_FIELDS
 .data.SDS1_FIB_REG25_RTL8380_FIELDS
                0x0000000083f73560       0x38 board/Realtek/rtl838x/librtl838x.o
                0x0000000083f73560                SDS1_FIB_REG25_RTL8380_FIELDS
 .data.SDS1_FIB_REG24_RTL8380_FIELDS
                0x0000000083f73598       0x18 board/Realtek/rtl838x/librtl838x.o
                0x0000000083f73598                SDS1_FIB_REG24_RTL8380_FIELDS
 .data.SDS1_FIB_REG23_RTL8380_FIELDS
                0x0000000083f735b0       0x10 board/Realtek/rtl838x/librtl838x.o
                0x0000000083f735b0                SDS1_FIB_REG23_RTL8380_FIELDS
 .data.SDS1_FIB_REG22_RTL8380_FIELDS
                0x0000000083f735c0       0x10 board/Realtek/rtl838x/librtl838x.o
                0x0000000083f735c0                SDS1_FIB_REG22_RTL8380_FIELDS
 .data.SDS1_FIB_REG21_RTL8380_FIELDS
                0x0000000083f735d0       0x10 board/Realtek/rtl838x/librtl838x.o
                0x0000000083f735d0                SDS1_FIB_REG21_RTL8380_FIELDS
 .data.SDS1_FIB_REG20_RTL8380_FIELDS
                0x0000000083f735e0       0x10 board/Realtek/rtl838x/librtl838x.o
                0x0000000083f735e0                SDS1_FIB_REG20_RTL8380_FIELDS
 .data.SDS1_FIB_REG19_RTL8380_FIELDS
                0x0000000083f735f0       0x10 board/Realtek/rtl838x/librtl838x.o
                0x0000000083f735f0                SDS1_FIB_REG19_RTL8380_FIELDS
 .data.SDS1_FIB_REG18_RTL8380_FIELDS
                0x0000000083f73600       0x10 board/Realtek/rtl838x/librtl838x.o
                0x0000000083f73600                SDS1_FIB_REG18_RTL8380_FIELDS
 .data.SDS1_FIB_REG17_RTL8380_FIELDS
                0x0000000083f73610       0x10 board/Realtek/rtl838x/librtl838x.o
                0x0000000083f73610                SDS1_FIB_REG17_RTL8380_FIELDS
 .data.SDS1_FIB_REG16_RTL8380_FIELDS
                0x0000000083f73620       0x10 board/Realtek/rtl838x/librtl838x.o
                0x0000000083f73620                SDS1_FIB_REG16_RTL8380_FIELDS
 .data.SDS1_FIB_REG15_RTL8380_FIELDS
                0x0000000083f73630       0x10 board/Realtek/rtl838x/librtl838x.o
                0x0000000083f73630                SDS1_FIB_REG15_RTL8380_FIELDS
 .data.SDS1_FIB_REG14_RTL8380_FIELDS
                0x0000000083f73640       0x10 board/Realtek/rtl838x/librtl838x.o
                0x0000000083f73640                SDS1_FIB_REG14_RTL8380_FIELDS
 .data.SDS1_FIB_REG13_RTL8380_FIELDS
                0x0000000083f73650       0x20 board/Realtek/rtl838x/librtl838x.o
                0x0000000083f73650                SDS1_FIB_REG13_RTL8380_FIELDS
 .data.SDS1_FIB_REG12_RTL8380_FIELDS
                0x0000000083f73670       0x10 board/Realtek/rtl838x/librtl838x.o
                0x0000000083f73670                SDS1_FIB_REG12_RTL8380_FIELDS
 .data.SDS1_FIB_REG11_RTL8380_FIELDS
                0x0000000083f73680       0x10 board/Realtek/rtl838x/librtl838x.o
                0x0000000083f73680                SDS1_FIB_REG11_RTL8380_FIELDS
 .data.SDS1_FIB_REG10_RTL8380_FIELDS
                0x0000000083f73690       0x10 board/Realtek/rtl838x/librtl838x.o
                0x0000000083f73690                SDS1_FIB_REG10_RTL8380_FIELDS
 .data.SDS1_FIB_REG9_RTL8380_FIELDS
                0x0000000083f736a0       0x10 board/Realtek/rtl838x/librtl838x.o
                0x0000000083f736a0                SDS1_FIB_REG9_RTL8380_FIELDS
 .data.SDS1_FIB_REG8_RTL8380_FIELDS
                0x0000000083f736b0       0x10 board/Realtek/rtl838x/librtl838x.o
                0x0000000083f736b0                SDS1_FIB_REG8_RTL8380_FIELDS
 .data.SDS1_FIB_REG7_RTL8380_FIELDS
                0x0000000083f736c0       0x10 board/Realtek/rtl838x/librtl838x.o
                0x0000000083f736c0                SDS1_FIB_REG7_RTL8380_FIELDS
 .data.SDS1_FIB_REG6_RTL8380_FIELDS
                0x0000000083f736d0       0x28 board/Realtek/rtl838x/librtl838x.o
                0x0000000083f736d0                SDS1_FIB_REG6_RTL8380_FIELDS
 .data.SDS1_FIB_REG5_RTL8380_FIELDS
                0x0000000083f736f8       0x10 board/Realtek/rtl838x/librtl838x.o
                0x0000000083f736f8                SDS1_FIB_REG5_RTL8380_FIELDS
 .data.SDS1_FIB_REG4_RTL8380_FIELDS
                0x0000000083f73708       0x10 board/Realtek/rtl838x/librtl838x.o
                0x0000000083f73708                SDS1_FIB_REG4_RTL8380_FIELDS
 .data.SDS1_FIB_REG3_RTL8380_FIELDS
                0x0000000083f73718       0x20 board/Realtek/rtl838x/librtl838x.o
                0x0000000083f73718                SDS1_FIB_REG3_RTL8380_FIELDS
 .data.SDS1_FIB_REG2_RTL8380_FIELDS
                0x0000000083f73738       0x10 board/Realtek/rtl838x/librtl838x.o
                0x0000000083f73738                SDS1_FIB_REG2_RTL8380_FIELDS
 .data.SDS1_FIB_REG1_RTL8380_FIELDS
                0x0000000083f73748       0x40 board/Realtek/rtl838x/librtl838x.o
                0x0000000083f73748                SDS1_FIB_REG1_RTL8380_FIELDS
 .data.SDS1_FIB_REG0_RTL8380_FIELDS
                0x0000000083f73788       0x68 board/Realtek/rtl838x/librtl838x.o
                0x0000000083f73788                SDS1_FIB_REG0_RTL8380_FIELDS
 .data.SDS_DUMMY114_RTL8380_FIELDS
                0x0000000083f737f0        0x8 board/Realtek/rtl838x/librtl838x.o
                0x0000000083f737f0                SDS_DUMMY114_RTL8380_FIELDS
 .data.SDS1_EXT_REG30_RTL8380_FIELDS
                0x0000000083f737f8       0x28 board/Realtek/rtl838x/librtl838x.o
                0x0000000083f737f8                SDS1_EXT_REG30_RTL8380_FIELDS
 .data.SDS1_EXT_REG29_RTL8380_FIELDS
                0x0000000083f73820       0x28 board/Realtek/rtl838x/librtl838x.o
                0x0000000083f73820                SDS1_EXT_REG29_RTL8380_FIELDS
 .data.SDS1_EXT_REG28_RTL8380_FIELDS
                0x0000000083f73848       0x10 board/Realtek/rtl838x/librtl838x.o
                0x0000000083f73848                SDS1_EXT_REG28_RTL8380_FIELDS
 .data.SDS1_EXT_REG27_RTL8380_FIELDS
                0x0000000083f73858       0x10 board/Realtek/rtl838x/librtl838x.o
                0x0000000083f73858                SDS1_EXT_REG27_RTL8380_FIELDS
 .data.SDS1_EXT_REG26_RTL8380_FIELDS
                0x0000000083f73868       0x28 board/Realtek/rtl838x/librtl838x.o
                0x0000000083f73868                SDS1_EXT_REG26_RTL8380_FIELDS
 .data.SDS1_EXT_REG25_RTL8380_FIELDS
                0x0000000083f73890       0x18 board/Realtek/rtl838x/librtl838x.o
                0x0000000083f73890                SDS1_EXT_REG25_RTL8380_FIELDS
 .data.SDS1_EXT_REG24_RTL8380_FIELDS
                0x0000000083f738a8       0x50 board/Realtek/rtl838x/librtl838x.o
                0x0000000083f738a8                SDS1_EXT_REG24_RTL8380_FIELDS
 .data.SDS1_EXT_REG23_RTL8380_FIELDS
                0x0000000083f738f8       0x10 board/Realtek/rtl838x/librtl838x.o
                0x0000000083f738f8                SDS1_EXT_REG23_RTL8380_FIELDS
 .data.SDS1_EXT_REG22_RTL8380_FIELDS
                0x0000000083f73908       0x10 board/Realtek/rtl838x/librtl838x.o
                0x0000000083f73908                SDS1_EXT_REG22_RTL8380_FIELDS
 .data.SDS1_EXT_REG21_RTL8380_FIELDS
                0x0000000083f73918       0x10 board/Realtek/rtl838x/librtl838x.o
                0x0000000083f73918                SDS1_EXT_REG21_RTL8380_FIELDS
 .data.SDS1_EXT_REG20_RTL8380_FIELDS
                0x0000000083f73928       0x10 board/Realtek/rtl838x/librtl838x.o
                0x0000000083f73928                SDS1_EXT_REG20_RTL8380_FIELDS
 .data.SDS1_EXT_REG19_RTL8380_FIELDS
                0x0000000083f73938       0x10 board/Realtek/rtl838x/librtl838x.o
                0x0000000083f73938                SDS1_EXT_REG19_RTL8380_FIELDS
 .data.SDS1_EXT_REG18_RTL8380_FIELDS
                0x0000000083f73948       0x20 board/Realtek/rtl838x/librtl838x.o
                0x0000000083f73948                SDS1_EXT_REG18_RTL8380_FIELDS
 .data.SDS1_EXT_REG17_RTL8380_FIELDS
                0x0000000083f73968       0x18 board/Realtek/rtl838x/librtl838x.o
                0x0000000083f73968                SDS1_EXT_REG17_RTL8380_FIELDS
 .data.SDS1_EXT_REG16_RTL8380_FIELDS
                0x0000000083f73980       0x18 board/Realtek/rtl838x/librtl838x.o
                0x0000000083f73980                SDS1_EXT_REG16_RTL8380_FIELDS
 .data.SDS1_EXT_REG15_RTL8380_FIELDS
                0x0000000083f73998       0x28 board/Realtek/rtl838x/librtl838x.o
                0x0000000083f73998                SDS1_EXT_REG15_RTL8380_FIELDS
 .data.SDS1_EXT_REG14_RTL8380_FIELDS
                0x0000000083f739c0       0x30 board/Realtek/rtl838x/librtl838x.o
                0x0000000083f739c0                SDS1_EXT_REG14_RTL8380_FIELDS
 .data.SDS1_EXT_REG13_RTL8380_FIELDS
                0x0000000083f739f0       0x28 board/Realtek/rtl838x/librtl838x.o
                0x0000000083f739f0                SDS1_EXT_REG13_RTL8380_FIELDS
 .data.SDS1_EXT_REG12_RTL8380_FIELDS
                0x0000000083f73a18       0x18 board/Realtek/rtl838x/librtl838x.o
                0x0000000083f73a18                SDS1_EXT_REG12_RTL8380_FIELDS
 .data.SDS1_EXT_REG11_RTL8380_FIELDS
                0x0000000083f73a30       0x48 board/Realtek/rtl838x/librtl838x.o
                0x0000000083f73a30                SDS1_EXT_REG11_RTL8380_FIELDS
 .data.SDS1_EXT_REG10_RTL8380_FIELDS
                0x0000000083f73a78       0x38 board/Realtek/rtl838x/librtl838x.o
                0x0000000083f73a78                SDS1_EXT_REG10_RTL8380_FIELDS
 .data.SDS1_EXT_REG9_RTL8380_FIELDS
                0x0000000083f73ab0       0x70 board/Realtek/rtl838x/librtl838x.o
                0x0000000083f73ab0                SDS1_EXT_REG9_RTL8380_FIELDS
 .data.SDS1_EXT_REG8_RTL8380_FIELDS
                0x0000000083f73b20       0x30 board/Realtek/rtl838x/librtl838x.o
                0x0000000083f73b20                SDS1_EXT_REG8_RTL8380_FIELDS
 .data.SDS1_EXT_REG7_RTL8380_FIELDS
                0x0000000083f73b50       0x28 board/Realtek/rtl838x/librtl838x.o
                0x0000000083f73b50                SDS1_EXT_REG7_RTL8380_FIELDS
 .data.SDS1_EXT_REG6_RTL8380_FIELDS
                0x0000000083f73b78       0x48 board/Realtek/rtl838x/librtl838x.o
                0x0000000083f73b78                SDS1_EXT_REG6_RTL8380_FIELDS
 .data.SDS1_EXT_REG5_RTL8380_FIELDS
                0x0000000083f73bc0       0x20 board/Realtek/rtl838x/librtl838x.o
                0x0000000083f73bc0                SDS1_EXT_REG5_RTL8380_FIELDS
 .data.SDS1_EXT_REG4_RTL8380_FIELDS
                0x0000000083f73be0       0x58 board/Realtek/rtl838x/librtl838x.o
                0x0000000083f73be0                SDS1_EXT_REG4_RTL8380_FIELDS
 .data.SDS1_EXT_REG3_RTL8380_FIELDS
                0x0000000083f73c38       0x10 board/Realtek/rtl838x/librtl838x.o
                0x0000000083f73c38                SDS1_EXT_REG3_RTL8380_FIELDS
 .data.SDS1_EXT_REG2_RTL8380_FIELDS
                0x0000000083f73c48       0x38 board/Realtek/rtl838x/librtl838x.o
                0x0000000083f73c48                SDS1_EXT_REG2_RTL8380_FIELDS
 .data.SDS1_EXT_REG1_RTL8380_FIELDS
                0x0000000083f73c80       0x10 board/Realtek/rtl838x/librtl838x.o
                0x0000000083f73c80                SDS1_EXT_REG1_RTL8380_FIELDS
 .data.SDS1_EXT_REG0_RTL8380_FIELDS
                0x0000000083f73c90       0x88 board/Realtek/rtl838x/librtl838x.o
                0x0000000083f73c90                SDS1_EXT_REG0_RTL8380_FIELDS
 .data.SDS_DUMMY113_RTL8380_FIELDS
                0x0000000083f73d18        0x8 board/Realtek/rtl838x/librtl838x.o
                0x0000000083f73d18                SDS_DUMMY113_RTL8380_FIELDS
 .data.SDS0_FIB_REG30_RTL8380_FIELDS
                0x0000000083f73d20       0x40 board/Realtek/rtl838x/librtl838x.o
                0x0000000083f73d20                SDS0_FIB_REG30_RTL8380_FIELDS
 .data.SDS0_FIB_REG29_RTL8380_FIELDS
                0x0000000083f73d60       0x28 board/Realtek/rtl838x/librtl838x.o
                0x0000000083f73d60                SDS0_FIB_REG29_RTL8380_FIELDS
 .data.SDS0_FIB_REG28_RTL8380_FIELDS
                0x0000000083f73d88       0x20 board/Realtek/rtl838x/librtl838x.o
                0x0000000083f73d88                SDS0_FIB_REG28_RTL8380_FIELDS
 .data.SDS0_FIB_REG27_RTL8380_FIELDS
                0x0000000083f73da8       0x60 board/Realtek/rtl838x/librtl838x.o
                0x0000000083f73da8                SDS0_FIB_REG27_RTL8380_FIELDS
 .data.SDS0_FIB_REG26_RTL8380_FIELDS
                0x0000000083f73e08       0x10 board/Realtek/rtl838x/librtl838x.o
                0x0000000083f73e08                SDS0_FIB_REG26_RTL8380_FIELDS
 .data.SDS0_FIB_REG25_RTL8380_FIELDS
                0x0000000083f73e18       0x38 board/Realtek/rtl838x/librtl838x.o
                0x0000000083f73e18                SDS0_FIB_REG25_RTL8380_FIELDS
 .data.SDS0_FIB_REG24_RTL8380_FIELDS
                0x0000000083f73e50       0x20 board/Realtek/rtl838x/librtl838x.o
                0x0000000083f73e50                SDS0_FIB_REG24_RTL8380_FIELDS
 .data.SDS0_FIB_REG23_RTL8380_FIELDS
                0x0000000083f73e70       0x10 board/Realtek/rtl838x/librtl838x.o
                0x0000000083f73e70                SDS0_FIB_REG23_RTL8380_FIELDS
 .data.SDS0_FIB_REG22_RTL8380_FIELDS
                0x0000000083f73e80       0x10 board/Realtek/rtl838x/librtl838x.o
                0x0000000083f73e80                SDS0_FIB_REG22_RTL8380_FIELDS
 .data.SDS0_FIB_REG21_RTL8380_FIELDS
                0x0000000083f73e90       0x10 board/Realtek/rtl838x/librtl838x.o
                0x0000000083f73e90                SDS0_FIB_REG21_RTL8380_FIELDS
 .data.SDS0_FIB_REG20_RTL8380_FIELDS
                0x0000000083f73ea0       0x10 board/Realtek/rtl838x/librtl838x.o
                0x0000000083f73ea0                SDS0_FIB_REG20_RTL8380_FIELDS
 .data.SDS0_FIB_REG19_RTL8380_FIELDS
                0x0000000083f73eb0       0x10 board/Realtek/rtl838x/librtl838x.o
                0x0000000083f73eb0                SDS0_FIB_REG19_RTL8380_FIELDS
 .data.SDS0_FIB_REG18_RTL8380_FIELDS
                0x0000000083f73ec0       0x10 board/Realtek/rtl838x/librtl838x.o
                0x0000000083f73ec0                SDS0_FIB_REG18_RTL8380_FIELDS
 .data.SDS0_FIB_REG17_RTL8380_FIELDS
                0x0000000083f73ed0       0x10 board/Realtek/rtl838x/librtl838x.o
                0x0000000083f73ed0                SDS0_FIB_REG17_RTL8380_FIELDS
 .data.SDS0_FIB_REG16_RTL8380_FIELDS
                0x0000000083f73ee0       0x10 board/Realtek/rtl838x/librtl838x.o
                0x0000000083f73ee0                SDS0_FIB_REG16_RTL8380_FIELDS
 .data.SDS0_FIB_REG15_RTL8380_FIELDS
                0x0000000083f73ef0       0x10 board/Realtek/rtl838x/librtl838x.o
                0x0000000083f73ef0                SDS0_FIB_REG15_RTL8380_FIELDS
 .data.SDS0_FIB_REG14_RTL8380_FIELDS
                0x0000000083f73f00       0x10 board/Realtek/rtl838x/librtl838x.o
                0x0000000083f73f00                SDS0_FIB_REG14_RTL8380_FIELDS
 .data.SDS0_FIB_REG13_RTL8380_FIELDS
                0x0000000083f73f10       0x20 board/Realtek/rtl838x/librtl838x.o
                0x0000000083f73f10                SDS0_FIB_REG13_RTL8380_FIELDS
 .data.SDS0_FIB_REG12_RTL8380_FIELDS
                0x0000000083f73f30       0x10 board/Realtek/rtl838x/librtl838x.o
                0x0000000083f73f30                SDS0_FIB_REG12_RTL8380_FIELDS
 .data.SDS0_FIB_REG11_RTL8380_FIELDS
                0x0000000083f73f40       0x10 board/Realtek/rtl838x/librtl838x.o
                0x0000000083f73f40                SDS0_FIB_REG11_RTL8380_FIELDS
 .data.SDS0_FIB_REG10_RTL8380_FIELDS
                0x0000000083f73f50       0x10 board/Realtek/rtl838x/librtl838x.o
                0x0000000083f73f50                SDS0_FIB_REG10_RTL8380_FIELDS
 .data.SDS0_FIB_REG9_RTL8380_FIELDS
                0x0000000083f73f60       0x10 board/Realtek/rtl838x/librtl838x.o
                0x0000000083f73f60                SDS0_FIB_REG9_RTL8380_FIELDS
 .data.SDS0_FIB_REG8_RTL8380_FIELDS
                0x0000000083f73f70       0x10 board/Realtek/rtl838x/librtl838x.o
                0x0000000083f73f70                SDS0_FIB_REG8_RTL8380_FIELDS
 .data.SDS0_FIB_REG7_RTL8380_FIELDS
                0x0000000083f73f80       0x10 board/Realtek/rtl838x/librtl838x.o
                0x0000000083f73f80                SDS0_FIB_REG7_RTL8380_FIELDS
 .data.SDS0_FIB_REG6_RTL8380_FIELDS
                0x0000000083f73f90       0x28 board/Realtek/rtl838x/librtl838x.o
                0x0000000083f73f90                SDS0_FIB_REG6_RTL8380_FIELDS
 .data.SDS0_FIB_REG5_RTL8380_FIELDS
                0x0000000083f73fb8       0x10 board/Realtek/rtl838x/librtl838x.o
                0x0000000083f73fb8                SDS0_FIB_REG5_RTL8380_FIELDS
 .data.SDS0_FIB_REG4_RTL8380_FIELDS
                0x0000000083f73fc8       0x10 board/Realtek/rtl838x/librtl838x.o
                0x0000000083f73fc8                SDS0_FIB_REG4_RTL8380_FIELDS
 .data.SDS0_FIB_REG3_RTL8380_FIELDS
                0x0000000083f73fd8       0x20 board/Realtek/rtl838x/librtl838x.o
                0x0000000083f73fd8                SDS0_FIB_REG3_RTL8380_FIELDS
 .data.SDS0_FIB_REG2_RTL8380_FIELDS
                0x0000000083f73ff8       0x10 board/Realtek/rtl838x/librtl838x.o
                0x0000000083f73ff8                SDS0_FIB_REG2_RTL8380_FIELDS
 .data.SDS0_FIB_REG1_RTL8380_FIELDS
                0x0000000083f74008       0x40 board/Realtek/rtl838x/librtl838x.o
                0x0000000083f74008                SDS0_FIB_REG1_RTL8380_FIELDS
 .data.SDS0_FIB_REG0_RTL8380_FIELDS
                0x0000000083f74048       0x68 board/Realtek/rtl838x/librtl838x.o
                0x0000000083f74048                SDS0_FIB_REG0_RTL8380_FIELDS
 .data.SDS_DUMMY102_RTL8380_FIELDS
                0x0000000083f740b0        0x8 board/Realtek/rtl838x/librtl838x.o
                0x0000000083f740b0                SDS_DUMMY102_RTL8380_FIELDS
 .data.SDS0_EXT_REG30_RTL8380_FIELDS
                0x0000000083f740b8       0x28 board/Realtek/rtl838x/librtl838x.o
                0x0000000083f740b8                SDS0_EXT_REG30_RTL8380_FIELDS
 .data.SDS0_EXT_REG29_RTL8380_FIELDS
                0x0000000083f740e0       0x28 board/Realtek/rtl838x/librtl838x.o
                0x0000000083f740e0                SDS0_EXT_REG29_RTL8380_FIELDS
 .data.SDS0_EXT_REG28_RTL8380_FIELDS
                0x0000000083f74108       0x10 board/Realtek/rtl838x/librtl838x.o
                0x0000000083f74108                SDS0_EXT_REG28_RTL8380_FIELDS
 .data.SDS0_EXT_REG27_RTL8380_FIELDS
                0x0000000083f74118       0x10 board/Realtek/rtl838x/librtl838x.o
                0x0000000083f74118                SDS0_EXT_REG27_RTL8380_FIELDS
 .data.SDS0_EXT_REG26_RTL8380_FIELDS
                0x0000000083f74128       0x28 board/Realtek/rtl838x/librtl838x.o
                0x0000000083f74128                SDS0_EXT_REG26_RTL8380_FIELDS
 .data.SDS0_EXT_REG25_RTL8380_FIELDS
                0x0000000083f74150       0x18 board/Realtek/rtl838x/librtl838x.o
                0x0000000083f74150                SDS0_EXT_REG25_RTL8380_FIELDS
 .data.SDS0_EXT_REG24_RTL8380_FIELDS
                0x0000000083f74168       0x50 board/Realtek/rtl838x/librtl838x.o
                0x0000000083f74168                SDS0_EXT_REG24_RTL8380_FIELDS
 .data.SDS0_EXT_REG23_RTL8380_FIELDS
                0x0000000083f741b8       0x10 board/Realtek/rtl838x/librtl838x.o
                0x0000000083f741b8                SDS0_EXT_REG23_RTL8380_FIELDS
 .data.SDS0_EXT_REG22_RTL8380_FIELDS
                0x0000000083f741c8       0x10 board/Realtek/rtl838x/librtl838x.o
                0x0000000083f741c8                SDS0_EXT_REG22_RTL8380_FIELDS
 .data.SDS0_EXT_REG21_RTL8380_FIELDS
                0x0000000083f741d8       0x10 board/Realtek/rtl838x/librtl838x.o
                0x0000000083f741d8                SDS0_EXT_REG21_RTL8380_FIELDS
 .data.SDS0_EXT_REG20_RTL8380_FIELDS
                0x0000000083f741e8       0x50 board/Realtek/rtl838x/librtl838x.o
                0x0000000083f741e8                SDS0_EXT_REG20_RTL8380_FIELDS
 .data.SDS0_EXT_REG19_RTL8380_FIELDS
                0x0000000083f74238       0x50 board/Realtek/rtl838x/librtl838x.o
                0x0000000083f74238                SDS0_EXT_REG19_RTL8380_FIELDS
 .data.SDS0_EXT_REG18_RTL8380_FIELDS
                0x0000000083f74288       0x30 board/Realtek/rtl838x/librtl838x.o
                0x0000000083f74288                SDS0_EXT_REG18_RTL8380_FIELDS
 .data.SDS0_EXT_REG17_RTL8380_FIELDS
                0x0000000083f742b8       0x48 board/Realtek/rtl838x/librtl838x.o
                0x0000000083f742b8                SDS0_EXT_REG17_RTL8380_FIELDS
 .data.SDS0_EXT_REG16_RTL8380_FIELDS
                0x0000000083f74300       0x18 board/Realtek/rtl838x/librtl838x.o
                0x0000000083f74300                SDS0_EXT_REG16_RTL8380_FIELDS
 .data.SDS0_EXT_REG15_RTL8380_FIELDS
                0x0000000083f74318       0x28 board/Realtek/rtl838x/librtl838x.o
                0x0000000083f74318                SDS0_EXT_REG15_RTL8380_FIELDS
 .data.SDS0_EXT_REG14_RTL8380_FIELDS
                0x0000000083f74340       0x30 board/Realtek/rtl838x/librtl838x.o
                0x0000000083f74340                SDS0_EXT_REG14_RTL8380_FIELDS
 .data.SDS0_EXT_REG13_RTL8380_FIELDS
                0x0000000083f74370       0x28 board/Realtek/rtl838x/librtl838x.o
                0x0000000083f74370                SDS0_EXT_REG13_RTL8380_FIELDS
 .data.SDS0_EXT_REG12_RTL8380_FIELDS
                0x0000000083f74398       0x18 board/Realtek/rtl838x/librtl838x.o
                0x0000000083f74398                SDS0_EXT_REG12_RTL8380_FIELDS
 .data.SDS0_EXT_REG11_RTL8380_FIELDS
                0x0000000083f743b0       0x48 board/Realtek/rtl838x/librtl838x.o
                0x0000000083f743b0                SDS0_EXT_REG11_RTL8380_FIELDS
 .data.SDS0_EXT_REG10_RTL8380_FIELDS
                0x0000000083f743f8       0x38 board/Realtek/rtl838x/librtl838x.o
                0x0000000083f743f8                SDS0_EXT_REG10_RTL8380_FIELDS
 .data.SDS0_EXT_REG9_RTL8380_FIELDS
                0x0000000083f74430       0x70 board/Realtek/rtl838x/librtl838x.o
                0x0000000083f74430                SDS0_EXT_REG9_RTL8380_FIELDS
 .data.SDS0_EXT_REG8_RTL8380_FIELDS
                0x0000000083f744a0       0x30 board/Realtek/rtl838x/librtl838x.o
                0x0000000083f744a0                SDS0_EXT_REG8_RTL8380_FIELDS
 .data.SDS0_EXT_REG7_RTL8380_FIELDS
                0x0000000083f744d0       0x28 board/Realtek/rtl838x/librtl838x.o
                0x0000000083f744d0                SDS0_EXT_REG7_RTL8380_FIELDS
 .data.SDS0_EXT_REG6_RTL8380_FIELDS
                0x0000000083f744f8       0x48 board/Realtek/rtl838x/librtl838x.o
                0x0000000083f744f8                SDS0_EXT_REG6_RTL8380_FIELDS
 .data.SDS0_EXT_REG5_RTL8380_FIELDS
                0x0000000083f74540       0x20 board/Realtek/rtl838x/librtl838x.o
                0x0000000083f74540                SDS0_EXT_REG5_RTL8380_FIELDS
 .data.SDS0_EXT_REG4_RTL8380_FIELDS
                0x0000000083f74560       0x58 board/Realtek/rtl838x/librtl838x.o
                0x0000000083f74560                SDS0_EXT_REG4_RTL8380_FIELDS
 .data.SDS0_EXT_REG3_RTL8380_FIELDS
                0x0000000083f745b8       0x58 board/Realtek/rtl838x/librtl838x.o
                0x0000000083f745b8                SDS0_EXT_REG3_RTL8380_FIELDS
 .data.SDS0_EXT_REG2_RTL8380_FIELDS
                0x0000000083f74610       0x58 board/Realtek/rtl838x/librtl838x.o
                0x0000000083f74610                SDS0_EXT_REG2_RTL8380_FIELDS
 .data.SDS0_EXT_REG1_RTL8380_FIELDS
                0x0000000083f74668       0x10 board/Realtek/rtl838x/librtl838x.o
                0x0000000083f74668                SDS0_EXT_REG1_RTL8380_FIELDS
 .data.SDS0_EXT_REG0_RTL8380_FIELDS
                0x0000000083f74678       0x88 board/Realtek/rtl838x/librtl838x.o
                0x0000000083f74678                SDS0_EXT_REG0_RTL8380_FIELDS
 .data.SDS_DUMMY101_RTL8380_FIELDS
                0x0000000083f74700        0x8 board/Realtek/rtl838x/librtl838x.o
                0x0000000083f74700                SDS_DUMMY101_RTL8380_FIELDS
 .data.SDS5_FIB_EXT_REG30_RTL8380_FIELDS
                0x0000000083f74708       0x10 board/Realtek/rtl838x/librtl838x.o
                0x0000000083f74708                SDS5_FIB_EXT_REG30_RTL8380_FIELDS
 .data.SDS5_FIB_EXT_REG29_RTL8380_FIELDS
                0x0000000083f74718       0x10 board/Realtek/rtl838x/librtl838x.o
                0x0000000083f74718                SDS5_FIB_EXT_REG29_RTL8380_FIELDS
 .data.SDS5_FIB_EXT_REG28_RTL8380_FIELDS
                0x0000000083f74728       0x10 board/Realtek/rtl838x/librtl838x.o
                0x0000000083f74728                SDS5_FIB_EXT_REG28_RTL8380_FIELDS
 .data.SDS5_FIB_EXT_REG27_RTL8380_FIELDS
                0x0000000083f74738       0x10 board/Realtek/rtl838x/librtl838x.o
                0x0000000083f74738                SDS5_FIB_EXT_REG27_RTL8380_FIELDS
 .data.SDS5_FIB_EXT_REG26_RTL8380_FIELDS
                0x0000000083f74748       0x10 board/Realtek/rtl838x/librtl838x.o
                0x0000000083f74748                SDS5_FIB_EXT_REG26_RTL8380_FIELDS
 .data.SDS5_FIB_EXT_REG25_RTL8380_FIELDS
                0x0000000083f74758       0x10 board/Realtek/rtl838x/librtl838x.o
                0x0000000083f74758                SDS5_FIB_EXT_REG25_RTL8380_FIELDS
 .data.SDS5_FIB_EXT_REG24_RTL8380_FIELDS
                0x0000000083f74768       0x10 board/Realtek/rtl838x/librtl838x.o
                0x0000000083f74768                SDS5_FIB_EXT_REG24_RTL8380_FIELDS
 .data.SDS5_FIB_EXT_REG23_RTL8380_FIELDS
                0x0000000083f74778       0x38 board/Realtek/rtl838x/librtl838x.o
                0x0000000083f74778                SDS5_FIB_EXT_REG23_RTL8380_FIELDS
 .data.SDS5_FIB_EXT_REG22_RTL8380_FIELDS
                0x0000000083f747b0       0x30 board/Realtek/rtl838x/librtl838x.o
                0x0000000083f747b0                SDS5_FIB_EXT_REG22_RTL8380_FIELDS
 .data.SDS5_FIB_EXT_REG21_RTL8380_FIELDS
                0x0000000083f747e0       0x20 board/Realtek/rtl838x/librtl838x.o
                0x0000000083f747e0                SDS5_FIB_EXT_REG21_RTL8380_FIELDS
 .data.SDS5_FIB_EXT_REG20_RTL8380_FIELDS
                0x0000000083f74800       0x38 board/Realtek/rtl838x/librtl838x.o
                0x0000000083f74800                SDS5_FIB_EXT_REG20_RTL8380_FIELDS
 .data.SDS5_FIB_EXT_REG19_RTL8380_FIELDS
                0x0000000083f74838       0x48 board/Realtek/rtl838x/librtl838x.o
                0x0000000083f74838                SDS5_FIB_EXT_REG19_RTL8380_FIELDS
 .data.SDS5_FIB_EXT_REG18_RTL8380_FIELDS
                0x0000000083f74880       0x28 board/Realtek/rtl838x/librtl838x.o
                0x0000000083f74880                SDS5_FIB_EXT_REG18_RTL8380_FIELDS
 .data.SDS5_FIB_EXT_REG17_RTL8380_FIELDS
                0x0000000083f748a8       0x38 board/Realtek/rtl838x/librtl838x.o
                0x0000000083f748a8                SDS5_FIB_EXT_REG17_RTL8380_FIELDS
 .data.SDS5_FIB_EXT_REG16_RTL8380_FIELDS
                0x0000000083f748e0       0x88 board/Realtek/rtl838x/librtl838x.o
                0x0000000083f748e0                SDS5_FIB_EXT_REG16_RTL8380_FIELDS
 .data.SDS5_FIB_EXT_REG15_RTL8380_FIELDS
                0x0000000083f74968       0x10 board/Realtek/rtl838x/librtl838x.o
                0x0000000083f74968                SDS5_FIB_EXT_REG15_RTL8380_FIELDS
 .data.SDS5_FIB_EXT_REG14_RTL8380_FIELDS
                0x0000000083f74978       0x10 board/Realtek/rtl838x/librtl838x.o
                0x0000000083f74978                SDS5_FIB_EXT_REG14_RTL8380_FIELDS
 .data.SDS5_FIB_EXT_REG13_RTL8380_FIELDS
                0x0000000083f74988       0x20 board/Realtek/rtl838x/librtl838x.o
                0x0000000083f74988                SDS5_FIB_EXT_REG13_RTL8380_FIELDS
 .data.SDS5_FIB_EXT_REG12_RTL8380_FIELDS
                0x0000000083f749a8       0x10 board/Realtek/rtl838x/librtl838x.o
                0x0000000083f749a8                SDS5_FIB_EXT_REG12_RTL8380_FIELDS
 .data.SDS5_FIB_EXT_REG11_RTL8380_FIELDS
                0x0000000083f749b8       0x10 board/Realtek/rtl838x/librtl838x.o
                0x0000000083f749b8                SDS5_FIB_EXT_REG11_RTL8380_FIELDS
 .data.SDS5_FIB_EXT_REG10_RTL8380_FIELDS
                0x0000000083f749c8       0x10 board/Realtek/rtl838x/librtl838x.o
                0x0000000083f749c8                SDS5_FIB_EXT_REG10_RTL8380_FIELDS
 .data.SDS5_FIB_EXT_REG9_RTL8380_FIELDS
                0x0000000083f749d8       0x10 board/Realtek/rtl838x/librtl838x.o
                0x0000000083f749d8                SDS5_FIB_EXT_REG9_RTL8380_FIELDS
 .data.SDS5_FIB_EXT_REG8_RTL8380_FIELDS
                0x0000000083f749e8       0x10 board/Realtek/rtl838x/librtl838x.o
                0x0000000083f749e8                SDS5_FIB_EXT_REG8_RTL8380_FIELDS
 .data.SDS5_FIB_EXT_REG7_RTL8380_FIELDS
                0x0000000083f749f8       0x10 board/Realtek/rtl838x/librtl838x.o
                0x0000000083f749f8                SDS5_FIB_EXT_REG7_RTL8380_FIELDS
 .data.SDS5_FIB_EXT_REG6_RTL8380_FIELDS
                0x0000000083f74a08       0x28 board/Realtek/rtl838x/librtl838x.o
                0x0000000083f74a08                SDS5_FIB_EXT_REG6_RTL8380_FIELDS
 .data.SDS5_FIB_EXT_REG5_RTL8380_FIELDS
                0x0000000083f74a30       0x10 board/Realtek/rtl838x/librtl838x.o
                0x0000000083f74a30                SDS5_FIB_EXT_REG5_RTL8380_FIELDS
 .data.SDS5_FIB_EXT_REG4_RTL8380_FIELDS
                0x0000000083f74a40       0x10 board/Realtek/rtl838x/librtl838x.o
                0x0000000083f74a40                SDS5_FIB_EXT_REG4_RTL8380_FIELDS
 .data.SDS5_FIB_EXT_REG3_RTL8380_FIELDS
                0x0000000083f74a50       0x20 board/Realtek/rtl838x/librtl838x.o
                0x0000000083f74a50                SDS5_FIB_EXT_REG3_RTL8380_FIELDS
 .data.SDS5_FIB_EXT_REG2_RTL8380_FIELDS
                0x0000000083f74a70       0x10 board/Realtek/rtl838x/librtl838x.o
                0x0000000083f74a70                SDS5_FIB_EXT_REG2_RTL8380_FIELDS
 .data.SDS5_FIB_EXT_REG1_RTL8380_FIELDS
                0x0000000083f74a80       0x40 board/Realtek/rtl838x/librtl838x.o
                0x0000000083f74a80                SDS5_FIB_EXT_REG1_RTL8380_FIELDS
 .data.SDS5_FIB_EXT_REG0_RTL8380_FIELDS
                0x0000000083f74ac0       0x68 board/Realtek/rtl838x/librtl838x.o
                0x0000000083f74ac0                SDS5_FIB_EXT_REG0_RTL8380_FIELDS
 .data.SDS5_FIB_REG31_NONE_RTL8380_FIELDS
                0x0000000083f74b28       0x10 board/Realtek/rtl838x/librtl838x.o
                0x0000000083f74b28                SDS5_FIB_REG31_NONE_RTL8380_FIELDS
 .data.SDS5_FIB_REG30_NONE_RTL8380_FIELDS
                0x0000000083f74b38       0x10 board/Realtek/rtl838x/librtl838x.o
                0x0000000083f74b38                SDS5_FIB_REG30_NONE_RTL8380_FIELDS
 .data.SDS5_FIB_REG29_NONE_RTL8380_FIELDS
                0x0000000083f74b48       0x10 board/Realtek/rtl838x/librtl838x.o
                0x0000000083f74b48                SDS5_FIB_REG29_NONE_RTL8380_FIELDS
 .data.SDS5_FIB_REG28_NONE_RTL8380_FIELDS
                0x0000000083f74b58       0x10 board/Realtek/rtl838x/librtl838x.o
                0x0000000083f74b58                SDS5_FIB_REG28_NONE_RTL8380_FIELDS
 .data.SDS5_FIB_REG27_NONE_RTL8380_FIELDS
                0x0000000083f74b68       0x10 board/Realtek/rtl838x/librtl838x.o
                0x0000000083f74b68                SDS5_FIB_REG27_NONE_RTL8380_FIELDS
 .data.SDS5_FIB_REG26_NONE_RTL8380_FIELDS
                0x0000000083f74b78       0x10 board/Realtek/rtl838x/librtl838x.o
                0x0000000083f74b78                SDS5_FIB_REG26_NONE_RTL8380_FIELDS
 .data.SDS5_FIB_REG25_NONE_RTL8380_FIELDS
                0x0000000083f74b88       0x10 board/Realtek/rtl838x/librtl838x.o
                0x0000000083f74b88                SDS5_FIB_REG25_NONE_RTL8380_FIELDS
 .data.SDS5_FIB_REG24_NONE_RTL8380_FIELDS
                0x0000000083f74b98       0x10 board/Realtek/rtl838x/librtl838x.o
                0x0000000083f74b98                SDS5_FIB_REG24_NONE_RTL8380_FIELDS
 .data.SDS5_FIB_REG23_NONE_RTL8380_FIELDS
                0x0000000083f74ba8       0x10 board/Realtek/rtl838x/librtl838x.o
                0x0000000083f74ba8                SDS5_FIB_REG23_NONE_RTL8380_FIELDS
 .data.SDS5_FIB_REG22_NONE_RTL8380_FIELDS
                0x0000000083f74bb8       0x10 board/Realtek/rtl838x/librtl838x.o
                0x0000000083f74bb8                SDS5_FIB_REG22_NONE_RTL8380_FIELDS
 .data.SDS5_FIB_REG21_NONE_RTL8380_FIELDS
                0x0000000083f74bc8       0x10 board/Realtek/rtl838x/librtl838x.o
                0x0000000083f74bc8                SDS5_FIB_REG21_NONE_RTL8380_FIELDS
 .data.SDS5_FIB_REG20_NONE_RTL8380_FIELDS
                0x0000000083f74bd8       0x10 board/Realtek/rtl838x/librtl838x.o
                0x0000000083f74bd8                SDS5_FIB_REG20_NONE_RTL8380_FIELDS
 .data.SDS5_FIB_REG19_NONE_RTL8380_FIELDS
                0x0000000083f74be8       0x10 board/Realtek/rtl838x/librtl838x.o
                0x0000000083f74be8                SDS5_FIB_REG19_NONE_RTL8380_FIELDS
 .data.SDS5_FIB_REG18_NONE_RTL8380_FIELDS
                0x0000000083f74bf8       0x10 board/Realtek/rtl838x/librtl838x.o
                0x0000000083f74bf8                SDS5_FIB_REG18_NONE_RTL8380_FIELDS
 .data.SDS5_FIB_REG17_NONE_RTL8380_FIELDS
                0x0000000083f74c08       0x10 board/Realtek/rtl838x/librtl838x.o
                0x0000000083f74c08                SDS5_FIB_REG17_NONE_RTL8380_FIELDS
 .data.SDS5_FIB_REG16_NONE_RTL8380_FIELDS
                0x0000000083f74c18       0x10 board/Realtek/rtl838x/librtl838x.o
                0x0000000083f74c18                SDS5_FIB_REG16_NONE_RTL8380_FIELDS
 .data.SDS5_FIB_REG15_NONE_RTL8380_FIELDS
                0x0000000083f74c28       0x10 board/Realtek/rtl838x/librtl838x.o
                0x0000000083f74c28                SDS5_FIB_REG15_NONE_RTL8380_FIELDS
 .data.SDS5_FIB_REG14_NONE_RTL8380_FIELDS
                0x0000000083f74c38       0x10 board/Realtek/rtl838x/librtl838x.o
                0x0000000083f74c38                SDS5_FIB_REG14_NONE_RTL8380_FIELDS
 .data.SDS5_FIB_REG13_NONE_RTL8380_FIELDS
                0x0000000083f74c48       0x10 board/Realtek/rtl838x/librtl838x.o
                0x0000000083f74c48                SDS5_FIB_REG13_NONE_RTL8380_FIELDS
 .data.SDS5_FIB_REG12_NONE_RTL8380_FIELDS
                0x0000000083f74c58       0x10 board/Realtek/rtl838x/librtl838x.o
                0x0000000083f74c58                SDS5_FIB_REG12_NONE_RTL8380_FIELDS
 .data.SDS5_FIB_REG11_NONE_RTL8380_FIELDS
                0x0000000083f74c68       0x10 board/Realtek/rtl838x/librtl838x.o
                0x0000000083f74c68                SDS5_FIB_REG11_NONE_RTL8380_FIELDS
 .data.SDS5_FIB_REG10_NONE_RTL8380_FIELDS
                0x0000000083f74c78       0x10 board/Realtek/rtl838x/librtl838x.o
                0x0000000083f74c78                SDS5_FIB_REG10_NONE_RTL8380_FIELDS
 .data.SDS5_FIB_REG9_NONE_RTL8380_FIELDS
                0x0000000083f74c88       0x10 board/Realtek/rtl838x/librtl838x.o
                0x0000000083f74c88                SDS5_FIB_REG9_NONE_RTL8380_FIELDS
 .data.SDS5_FIB_REG8_NONE_RTL8380_FIELDS
                0x0000000083f74c98       0x10 board/Realtek/rtl838x/librtl838x.o
                0x0000000083f74c98                SDS5_FIB_REG8_NONE_RTL8380_FIELDS
 .data.SDS5_FIB_REG7_NONE_RTL8380_FIELDS
                0x0000000083f74ca8       0x10 board/Realtek/rtl838x/librtl838x.o
                0x0000000083f74ca8                SDS5_FIB_REG7_NONE_RTL8380_FIELDS
 .data.SDS5_FIB_REG6_NONE_RTL8380_FIELDS
                0x0000000083f74cb8       0x10 board/Realtek/rtl838x/librtl838x.o
                0x0000000083f74cb8                SDS5_FIB_REG6_NONE_RTL8380_FIELDS
 .data.SDS5_FIB_REG5_NONE_RTL8380_FIELDS
                0x0000000083f74cc8       0x10 board/Realtek/rtl838x/librtl838x.o
                0x0000000083f74cc8                SDS5_FIB_REG5_NONE_RTL8380_FIELDS
 .data.SDS5_FIB_REG4_NONE_RTL8380_FIELDS
                0x0000000083f74cd8       0x10 board/Realtek/rtl838x/librtl838x.o
                0x0000000083f74cd8                SDS5_FIB_REG4_NONE_RTL8380_FIELDS
 .data.SDS5_FIB_REG3_NONE_RTL8380_FIELDS
                0x0000000083f74ce8       0x10 board/Realtek/rtl838x/librtl838x.o
                0x0000000083f74ce8                SDS5_FIB_REG3_NONE_RTL8380_FIELDS
 .data.SDS5_FIB_REG2_NONE_RTL8380_FIELDS
                0x0000000083f74cf8       0x10 board/Realtek/rtl838x/librtl838x.o
                0x0000000083f74cf8                SDS5_FIB_REG2_NONE_RTL8380_FIELDS
 .data.SDS5_FIB_REG1_NONE_RTL8380_FIELDS
                0x0000000083f74d08       0x10 board/Realtek/rtl838x/librtl838x.o
                0x0000000083f74d08                SDS5_FIB_REG1_NONE_RTL8380_FIELDS
 .data.SDS5_FIB_REG0_NONE_RTL8380_FIELDS
                0x0000000083f74d18       0x10 board/Realtek/rtl838x/librtl838x.o
                0x0000000083f74d18                SDS5_FIB_REG0_NONE_RTL8380_FIELDS
 .data.SDS5_EXT_REG31_NONE_RTL8380_FIELDS
                0x0000000083f74d28       0x10 board/Realtek/rtl838x/librtl838x.o
                0x0000000083f74d28                SDS5_EXT_REG31_NONE_RTL8380_FIELDS
 .data.SDS5_EXT_REG30_NONE_RTL8380_FIELDS
                0x0000000083f74d38       0x10 board/Realtek/rtl838x/librtl838x.o
                0x0000000083f74d38                SDS5_EXT_REG30_NONE_RTL8380_FIELDS
 .data.SDS5_EXT_REG29_NONE_RTL8380_FIELDS
                0x0000000083f74d48       0x10 board/Realtek/rtl838x/librtl838x.o
                0x0000000083f74d48                SDS5_EXT_REG29_NONE_RTL8380_FIELDS
 .data.SDS5_EXT_REG28_NONE_RTL8380_FIELDS
                0x0000000083f74d58       0x10 board/Realtek/rtl838x/librtl838x.o
                0x0000000083f74d58                SDS5_EXT_REG28_NONE_RTL8380_FIELDS
 .data.SDS5_EXT_REG27_NONE_RTL8380_FIELDS
                0x0000000083f74d68       0x10 board/Realtek/rtl838x/librtl838x.o
                0x0000000083f74d68                SDS5_EXT_REG27_NONE_RTL8380_FIELDS
 .data.SDS5_EXT_REG26_NONE_RTL8380_FIELDS
                0x0000000083f74d78       0x10 board/Realtek/rtl838x/librtl838x.o
                0x0000000083f74d78                SDS5_EXT_REG26_NONE_RTL8380_FIELDS
 .data.SDS5_EXT_REG25_NONE_RTL8380_FIELDS
                0x0000000083f74d88       0x10 board/Realtek/rtl838x/librtl838x.o
                0x0000000083f74d88                SDS5_EXT_REG25_NONE_RTL8380_FIELDS
 .data.SDS5_EXT_REG24_NONE_RTL8380_FIELDS
                0x0000000083f74d98       0x10 board/Realtek/rtl838x/librtl838x.o
                0x0000000083f74d98                SDS5_EXT_REG24_NONE_RTL8380_FIELDS
 .data.SDS5_EXT_REG23_NONE_RTL8380_FIELDS
                0x0000000083f74da8       0x10 board/Realtek/rtl838x/librtl838x.o
                0x0000000083f74da8                SDS5_EXT_REG23_NONE_RTL8380_FIELDS
 .data.SDS5_EXT_REG22_NONE_RTL8380_FIELDS
                0x0000000083f74db8       0x10 board/Realtek/rtl838x/librtl838x.o
                0x0000000083f74db8                SDS5_EXT_REG22_NONE_RTL8380_FIELDS
 .data.SDS5_EXT_REG21_NONE_RTL8380_FIELDS
                0x0000000083f74dc8       0x10 board/Realtek/rtl838x/librtl838x.o
                0x0000000083f74dc8                SDS5_EXT_REG21_NONE_RTL8380_FIELDS
 .data.SDS5_EXT_REG20_NONE_RTL8380_FIELDS
                0x0000000083f74dd8       0x10 board/Realtek/rtl838x/librtl838x.o
                0x0000000083f74dd8                SDS5_EXT_REG20_NONE_RTL8380_FIELDS
 .data.SDS5_EXT_REG19_NONE_RTL8380_FIELDS
                0x0000000083f74de8       0x10 board/Realtek/rtl838x/librtl838x.o
                0x0000000083f74de8                SDS5_EXT_REG19_NONE_RTL8380_FIELDS
 .data.SDS5_EXT_REG18_NONE_RTL8380_FIELDS
                0x0000000083f74df8       0x10 board/Realtek/rtl838x/librtl838x.o
                0x0000000083f74df8                SDS5_EXT_REG18_NONE_RTL8380_FIELDS
 .data.SDS5_EXT_REG17_NONE_RTL8380_FIELDS
                0x0000000083f74e08       0x10 board/Realtek/rtl838x/librtl838x.o
                0x0000000083f74e08                SDS5_EXT_REG17_NONE_RTL8380_FIELDS
 .data.SDS5_EXT_REG16_NONE_RTL8380_FIELDS
                0x0000000083f74e18       0x10 board/Realtek/rtl838x/librtl838x.o
                0x0000000083f74e18                SDS5_EXT_REG16_NONE_RTL8380_FIELDS
 .data.SDS5_EXT_REG15_NONE_RTL8380_FIELDS
                0x0000000083f74e28       0x10 board/Realtek/rtl838x/librtl838x.o
                0x0000000083f74e28                SDS5_EXT_REG15_NONE_RTL8380_FIELDS
 .data.SDS5_EXT_REG14_NONE_RTL8380_FIELDS
                0x0000000083f74e38       0x10 board/Realtek/rtl838x/librtl838x.o
                0x0000000083f74e38                SDS5_EXT_REG14_NONE_RTL8380_FIELDS
 .data.SDS5_EXT_REG13_NONE_RTL8380_FIELDS
                0x0000000083f74e48       0x10 board/Realtek/rtl838x/librtl838x.o
                0x0000000083f74e48                SDS5_EXT_REG13_NONE_RTL8380_FIELDS
 .data.SDS5_EXT_REG12_NONE_RTL8380_FIELDS
                0x0000000083f74e58       0x10 board/Realtek/rtl838x/librtl838x.o
                0x0000000083f74e58                SDS5_EXT_REG12_NONE_RTL8380_FIELDS
 .data.SDS5_EXT_REG11_NONE_RTL8380_FIELDS
                0x0000000083f74e68       0x10 board/Realtek/rtl838x/librtl838x.o
                0x0000000083f74e68                SDS5_EXT_REG11_NONE_RTL8380_FIELDS
 .data.SDS5_EXT_REG10_NONE_RTL8380_FIELDS
                0x0000000083f74e78       0x10 board/Realtek/rtl838x/librtl838x.o
                0x0000000083f74e78                SDS5_EXT_REG10_NONE_RTL8380_FIELDS
 .data.SDS5_EXT_REG9_NONE_RTL8380_FIELDS
                0x0000000083f74e88       0x10 board/Realtek/rtl838x/librtl838x.o
                0x0000000083f74e88                SDS5_EXT_REG9_NONE_RTL8380_FIELDS
 .data.SDS5_EXT_REG8_NONE_RTL8380_FIELDS
                0x0000000083f74e98       0x10 board/Realtek/rtl838x/librtl838x.o
                0x0000000083f74e98                SDS5_EXT_REG8_NONE_RTL8380_FIELDS
 .data.SDS5_EXT_REG7_NONE_RTL8380_FIELDS
                0x0000000083f74ea8       0x10 board/Realtek/rtl838x/librtl838x.o
                0x0000000083f74ea8                SDS5_EXT_REG7_NONE_RTL8380_FIELDS
 .data.SDS5_EXT_REG6_NONE_RTL8380_FIELDS
                0x0000000083f74eb8       0x10 board/Realtek/rtl838x/librtl838x.o
                0x0000000083f74eb8                SDS5_EXT_REG6_NONE_RTL8380_FIELDS
 .data.SDS5_EXT_REG5_NONE_RTL8380_FIELDS
                0x0000000083f74ec8       0x10 board/Realtek/rtl838x/librtl838x.o
                0x0000000083f74ec8                SDS5_EXT_REG5_NONE_RTL8380_FIELDS
 .data.SDS5_EXT_REG4_NONE_RTL8380_FIELDS
                0x0000000083f74ed8       0x10 board/Realtek/rtl838x/librtl838x.o
                0x0000000083f74ed8                SDS5_EXT_REG4_NONE_RTL8380_FIELDS
 .data.SDS5_EXT_REG3_NONE_RTL8380_FIELDS
                0x0000000083f74ee8       0x10 board/Realtek/rtl838x/librtl838x.o
                0x0000000083f74ee8                SDS5_EXT_REG3_NONE_RTL8380_FIELDS
 .data.SDS5_EXT_REG2_NONE_RTL8380_FIELDS
                0x0000000083f74ef8       0x10 board/Realtek/rtl838x/librtl838x.o
                0x0000000083f74ef8                SDS5_EXT_REG2_NONE_RTL8380_FIELDS
 .data.SDS5_EXT_REG1_NONE_RTL8380_FIELDS
                0x0000000083f74f08       0x10 board/Realtek/rtl838x/librtl838x.o
                0x0000000083f74f08                SDS5_EXT_REG1_NONE_RTL8380_FIELDS
 .data.SDS5_EXT_REG0_NONE_RTL8380_FIELDS
                0x0000000083f74f18       0x10 board/Realtek/rtl838x/librtl838x.o
                0x0000000083f74f18                SDS5_EXT_REG0_NONE_RTL8380_FIELDS
 .data.SDS_DUMMY85_RTL8380_FIELDS
                0x0000000083f74f28        0x8 board/Realtek/rtl838x/librtl838x.o
                0x0000000083f74f28                SDS_DUMMY85_RTL8380_FIELDS
 .data.SDS5_REG30_RTL8380_FIELDS
                0x0000000083f74f30       0x10 board/Realtek/rtl838x/librtl838x.o
                0x0000000083f74f30                SDS5_REG30_RTL8380_FIELDS
 .data.SDS5_REG29_RTL8380_FIELDS
                0x0000000083f74f40       0x10 board/Realtek/rtl838x/librtl838x.o
                0x0000000083f74f40                SDS5_REG29_RTL8380_FIELDS
 .data.SDS5_REG28_RTL8380_FIELDS
                0x0000000083f74f50       0x40 board/Realtek/rtl838x/librtl838x.o
                0x0000000083f74f50                SDS5_REG28_RTL8380_FIELDS
 .data.SDS5_REG27_RTL8380_FIELDS
                0x0000000083f74f90       0x10 board/Realtek/rtl838x/librtl838x.o
                0x0000000083f74f90                SDS5_REG27_RTL8380_FIELDS
 .data.SDS5_REG26_RTL8380_FIELDS
                0x0000000083f74fa0       0x18 board/Realtek/rtl838x/librtl838x.o
                0x0000000083f74fa0                SDS5_REG26_RTL8380_FIELDS
 .data.SDS5_REG25_RTL8380_FIELDS
                0x0000000083f74fb8       0x10 board/Realtek/rtl838x/librtl838x.o
                0x0000000083f74fb8                SDS5_REG25_RTL8380_FIELDS
 .data.SDS5_REG24_RTL8380_FIELDS
                0x0000000083f74fc8       0x10 board/Realtek/rtl838x/librtl838x.o
                0x0000000083f74fc8                SDS5_REG24_RTL8380_FIELDS
 .data.SDS5_REG23_RTL8380_FIELDS
                0x0000000083f74fd8       0x10 board/Realtek/rtl838x/librtl838x.o
                0x0000000083f74fd8                SDS5_REG23_RTL8380_FIELDS
 .data.SDS5_REG22_RTL8380_FIELDS
                0x0000000083f74fe8       0x10 board/Realtek/rtl838x/librtl838x.o
                0x0000000083f74fe8                SDS5_REG22_RTL8380_FIELDS
 .data.SDS5_REG21_RTL8380_FIELDS
                0x0000000083f74ff8       0x10 board/Realtek/rtl838x/librtl838x.o
                0x0000000083f74ff8                SDS5_REG21_RTL8380_FIELDS
 .data.SDS5_REG20_RTL8380_FIELDS
                0x0000000083f75008       0x10 board/Realtek/rtl838x/librtl838x.o
                0x0000000083f75008                SDS5_REG20_RTL8380_FIELDS
 .data.SDS5_REG19_RTL8380_FIELDS
                0x0000000083f75018       0x10 board/Realtek/rtl838x/librtl838x.o
                0x0000000083f75018                SDS5_REG19_RTL8380_FIELDS
 .data.SDS5_REG18_RTL8380_FIELDS
                0x0000000083f75028       0x10 board/Realtek/rtl838x/librtl838x.o
                0x0000000083f75028                SDS5_REG18_RTL8380_FIELDS
 .data.SDS5_REG17_RTL8380_FIELDS
                0x0000000083f75038       0x20 board/Realtek/rtl838x/librtl838x.o
                0x0000000083f75038                SDS5_REG17_RTL8380_FIELDS
 .data.SDS5_REG16_RTL8380_FIELDS
                0x0000000083f75058       0x10 board/Realtek/rtl838x/librtl838x.o
                0x0000000083f75058                SDS5_REG16_RTL8380_FIELDS
 .data.SDS5_REG15_RTL8380_FIELDS
                0x0000000083f75068       0x10 board/Realtek/rtl838x/librtl838x.o
                0x0000000083f75068                SDS5_REG15_RTL8380_FIELDS
 .data.SDS5_REG14_RTL8380_FIELDS
                0x0000000083f75078       0x68 board/Realtek/rtl838x/librtl838x.o
                0x0000000083f75078                SDS5_REG14_RTL8380_FIELDS
 .data.SDS5_REG13_RTL8380_FIELDS
                0x0000000083f750e0       0x30 board/Realtek/rtl838x/librtl838x.o
                0x0000000083f750e0                SDS5_REG13_RTL8380_FIELDS
 .data.SDS5_REG12_RTL8380_FIELDS
                0x0000000083f75110       0x38 board/Realtek/rtl838x/librtl838x.o
                0x0000000083f75110                SDS5_REG12_RTL8380_FIELDS
 .data.SDS5_REG11_RTL8380_FIELDS
                0x0000000083f75148       0x10 board/Realtek/rtl838x/librtl838x.o
                0x0000000083f75148                SDS5_REG11_RTL8380_FIELDS
 .data.SDS5_REG10_RTL8380_FIELDS
                0x0000000083f75158       0x50 board/Realtek/rtl838x/librtl838x.o
                0x0000000083f75158                SDS5_REG10_RTL8380_FIELDS
 .data.SDS5_REG9_RTL8380_FIELDS
                0x0000000083f751a8       0x10 board/Realtek/rtl838x/librtl838x.o
                0x0000000083f751a8                SDS5_REG9_RTL8380_FIELDS
 .data.SDS5_REG8_RTL8380_FIELDS
                0x0000000083f751b8       0x48 board/Realtek/rtl838x/librtl838x.o
                0x0000000083f751b8                SDS5_REG8_RTL8380_FIELDS
 .data.SDS5_REG7_RTL8380_FIELDS
                0x0000000083f75200       0x58 board/Realtek/rtl838x/librtl838x.o
                0x0000000083f75200                SDS5_REG7_RTL8380_FIELDS
 .data.SDS5_REG6_RTL8380_FIELDS
                0x0000000083f75258       0x40 board/Realtek/rtl838x/librtl838x.o
                0x0000000083f75258                SDS5_REG6_RTL8380_FIELDS
 .data.SDS5_REG5_RTL8380_FIELDS
                0x0000000083f75298       0x60 board/Realtek/rtl838x/librtl838x.o
                0x0000000083f75298                SDS5_REG5_RTL8380_FIELDS
 .data.SDS5_REG4_RTL8380_FIELDS
                0x0000000083f752f8       0x48 board/Realtek/rtl838x/librtl838x.o
                0x0000000083f752f8                SDS5_REG4_RTL8380_FIELDS
 .data.SDS5_REG3_RTL8380_FIELDS
                0x0000000083f75340       0x50 board/Realtek/rtl838x/librtl838x.o
                0x0000000083f75340                SDS5_REG3_RTL8380_FIELDS
 .data.SDS5_REG2_RTL8380_FIELDS
                0x0000000083f75390       0x48 board/Realtek/rtl838x/librtl838x.o
                0x0000000083f75390                SDS5_REG2_RTL8380_FIELDS
 .data.SDS5_REG1_RTL8380_FIELDS
                0x0000000083f753d8       0x50 board/Realtek/rtl838x/librtl838x.o
                0x0000000083f753d8                SDS5_REG1_RTL8380_FIELDS
 .data.SDS5_REG0_RTL8380_FIELDS
                0x0000000083f75428       0x78 board/Realtek/rtl838x/librtl838x.o
                0x0000000083f75428                SDS5_REG0_RTL8380_FIELDS
 .data.SDS_DUMMY84_RTL8380_FIELDS
                0x0000000083f754a0        0x8 board/Realtek/rtl838x/librtl838x.o
                0x0000000083f754a0                SDS_DUMMY84_RTL8380_FIELDS
 .data.SDS4_FIB_EXT_REG30_RTL8380_FIELDS
                0x0000000083f754a8       0x10 board/Realtek/rtl838x/librtl838x.o
                0x0000000083f754a8                SDS4_FIB_EXT_REG30_RTL8380_FIELDS
 .data.SDS4_FIB_EXT_REG29_RTL8380_FIELDS
                0x0000000083f754b8       0x10 board/Realtek/rtl838x/librtl838x.o
                0x0000000083f754b8                SDS4_FIB_EXT_REG29_RTL8380_FIELDS
 .data.SDS4_FIB_EXT_REG28_RTL8380_FIELDS
                0x0000000083f754c8       0x10 board/Realtek/rtl838x/librtl838x.o
                0x0000000083f754c8                SDS4_FIB_EXT_REG28_RTL8380_FIELDS
 .data.SDS4_FIB_EXT_REG27_RTL8380_FIELDS
                0x0000000083f754d8       0x10 board/Realtek/rtl838x/librtl838x.o
                0x0000000083f754d8                SDS4_FIB_EXT_REG27_RTL8380_FIELDS
 .data.SDS4_FIB_EXT_REG26_RTL8380_FIELDS
                0x0000000083f754e8       0x10 board/Realtek/rtl838x/librtl838x.o
                0x0000000083f754e8                SDS4_FIB_EXT_REG26_RTL8380_FIELDS
 .data.SDS4_FIB_EXT_REG25_RTL8380_FIELDS
                0x0000000083f754f8       0x10 board/Realtek/rtl838x/librtl838x.o
                0x0000000083f754f8                SDS4_FIB_EXT_REG25_RTL8380_FIELDS
 .data.SDS4_FIB_EXT_REG24_RTL8380_FIELDS
                0x0000000083f75508       0x10 board/Realtek/rtl838x/librtl838x.o
                0x0000000083f75508                SDS4_FIB_EXT_REG24_RTL8380_FIELDS
 .data.SDS4_FIB_EXT_REG23_RTL8380_FIELDS
                0x0000000083f75518       0x38 board/Realtek/rtl838x/librtl838x.o
                0x0000000083f75518                SDS4_FIB_EXT_REG23_RTL8380_FIELDS
 .data.SDS4_FIB_EXT_REG22_RTL8380_FIELDS
                0x0000000083f75550       0x30 board/Realtek/rtl838x/librtl838x.o
                0x0000000083f75550                SDS4_FIB_EXT_REG22_RTL8380_FIELDS
 .data.SDS4_FIB_EXT_REG21_RTL8380_FIELDS
                0x0000000083f75580       0x20 board/Realtek/rtl838x/librtl838x.o
                0x0000000083f75580                SDS4_FIB_EXT_REG21_RTL8380_FIELDS
 .data.SDS4_FIB_EXT_REG20_RTL8380_FIELDS
                0x0000000083f755a0       0x38 board/Realtek/rtl838x/librtl838x.o
                0x0000000083f755a0                SDS4_FIB_EXT_REG20_RTL8380_FIELDS
 .data.SDS4_FIB_EXT_REG19_RTL8380_FIELDS
                0x0000000083f755d8       0x48 board/Realtek/rtl838x/librtl838x.o
                0x0000000083f755d8                SDS4_FIB_EXT_REG19_RTL8380_FIELDS
 .data.SDS4_FIB_EXT_REG18_RTL8380_FIELDS
                0x0000000083f75620       0x28 board/Realtek/rtl838x/librtl838x.o
                0x0000000083f75620                SDS4_FIB_EXT_REG18_RTL8380_FIELDS
 .data.SDS4_FIB_EXT_REG17_RTL8380_FIELDS
                0x0000000083f75648       0x38 board/Realtek/rtl838x/librtl838x.o
                0x0000000083f75648                SDS4_FIB_EXT_REG17_RTL8380_FIELDS
 .data.SDS4_FIB_EXT_REG16_RTL8380_FIELDS
                0x0000000083f75680       0x88 board/Realtek/rtl838x/librtl838x.o
                0x0000000083f75680                SDS4_FIB_EXT_REG16_RTL8380_FIELDS
 .data.SDS4_FIB_EXT_REG15_RTL8380_FIELDS
                0x0000000083f75708       0x10 board/Realtek/rtl838x/librtl838x.o
                0x0000000083f75708                SDS4_FIB_EXT_REG15_RTL8380_FIELDS
 .data.SDS4_FIB_EXT_REG14_RTL8380_FIELDS
                0x0000000083f75718       0x10 board/Realtek/rtl838x/librtl838x.o
                0x0000000083f75718                SDS4_FIB_EXT_REG14_RTL8380_FIELDS
 .data.SDS4_FIB_EXT_REG13_RTL8380_FIELDS
                0x0000000083f75728       0x20 board/Realtek/rtl838x/librtl838x.o
                0x0000000083f75728                SDS4_FIB_EXT_REG13_RTL8380_FIELDS
 .data.SDS4_FIB_EXT_REG12_RTL8380_FIELDS
                0x0000000083f75748       0x10 board/Realtek/rtl838x/librtl838x.o
                0x0000000083f75748                SDS4_FIB_EXT_REG12_RTL8380_FIELDS
 .data.SDS4_FIB_EXT_REG11_RTL8380_FIELDS
                0x0000000083f75758       0x10 board/Realtek/rtl838x/librtl838x.o
                0x0000000083f75758                SDS4_FIB_EXT_REG11_RTL8380_FIELDS
 .data.SDS4_FIB_EXT_REG10_RTL8380_FIELDS
                0x0000000083f75768       0x10 board/Realtek/rtl838x/librtl838x.o
                0x0000000083f75768                SDS4_FIB_EXT_REG10_RTL8380_FIELDS
 .data.SDS4_FIB_EXT_REG9_RTL8380_FIELDS
                0x0000000083f75778       0x10 board/Realtek/rtl838x/librtl838x.o
                0x0000000083f75778                SDS4_FIB_EXT_REG9_RTL8380_FIELDS
 .data.SDS4_FIB_EXT_REG8_RTL8380_FIELDS
                0x0000000083f75788       0x10 board/Realtek/rtl838x/librtl838x.o
                0x0000000083f75788                SDS4_FIB_EXT_REG8_RTL8380_FIELDS
 .data.SDS4_FIB_EXT_REG7_RTL8380_FIELDS
                0x0000000083f75798       0x10 board/Realtek/rtl838x/librtl838x.o
                0x0000000083f75798                SDS4_FIB_EXT_REG7_RTL8380_FIELDS
 .data.SDS4_FIB_EXT_REG6_RTL8380_FIELDS
                0x0000000083f757a8       0x28 board/Realtek/rtl838x/librtl838x.o
                0x0000000083f757a8                SDS4_FIB_EXT_REG6_RTL8380_FIELDS
 .data.SDS4_FIB_EXT_REG5_RTL8380_FIELDS
                0x0000000083f757d0       0x10 board/Realtek/rtl838x/librtl838x.o
                0x0000000083f757d0                SDS4_FIB_EXT_REG5_RTL8380_FIELDS
 .data.SDS4_FIB_EXT_REG4_RTL8380_FIELDS
                0x0000000083f757e0       0x10 board/Realtek/rtl838x/librtl838x.o
                0x0000000083f757e0                SDS4_FIB_EXT_REG4_RTL8380_FIELDS
 .data.SDS4_FIB_EXT_REG3_RTL8380_FIELDS
                0x0000000083f757f0       0x20 board/Realtek/rtl838x/librtl838x.o
                0x0000000083f757f0                SDS4_FIB_EXT_REG3_RTL8380_FIELDS
 .data.SDS4_FIB_EXT_REG2_RTL8380_FIELDS
                0x0000000083f75810       0x10 board/Realtek/rtl838x/librtl838x.o
                0x0000000083f75810                SDS4_FIB_EXT_REG2_RTL8380_FIELDS
 .data.SDS4_FIB_EXT_REG1_RTL8380_FIELDS
                0x0000000083f75820       0x40 board/Realtek/rtl838x/librtl838x.o
                0x0000000083f75820                SDS4_FIB_EXT_REG1_RTL8380_FIELDS
 .data.SDS4_FIB_EXT_REG0_RTL8380_FIELDS
                0x0000000083f75860       0x68 board/Realtek/rtl838x/librtl838x.o
                0x0000000083f75860                SDS4_FIB_EXT_REG0_RTL8380_FIELDS
 .data.SDS4_FIB_REG31_NONE_RTL8380_FIELDS
                0x0000000083f758c8       0x10 board/Realtek/rtl838x/librtl838x.o
                0x0000000083f758c8                SDS4_FIB_REG31_NONE_RTL8380_FIELDS
 .data.SDS4_FIB_REG30_NONE_RTL8380_FIELDS
                0x0000000083f758d8       0x10 board/Realtek/rtl838x/librtl838x.o
                0x0000000083f758d8                SDS4_FIB_REG30_NONE_RTL8380_FIELDS
 .data.SDS4_FIB_REG29_NONE_RTL8380_FIELDS
                0x0000000083f758e8       0x10 board/Realtek/rtl838x/librtl838x.o
                0x0000000083f758e8                SDS4_FIB_REG29_NONE_RTL8380_FIELDS
 .data.SDS4_FIB_REG28_NONE_RTL8380_FIELDS
                0x0000000083f758f8       0x10 board/Realtek/rtl838x/librtl838x.o
                0x0000000083f758f8                SDS4_FIB_REG28_NONE_RTL8380_FIELDS
 .data.SDS4_FIB_REG27_NONE_RTL8380_FIELDS
                0x0000000083f75908       0x10 board/Realtek/rtl838x/librtl838x.o
                0x0000000083f75908                SDS4_FIB_REG27_NONE_RTL8380_FIELDS
 .data.SDS4_FIB_REG26_NONE_RTL8380_FIELDS
                0x0000000083f75918       0x10 board/Realtek/rtl838x/librtl838x.o
                0x0000000083f75918                SDS4_FIB_REG26_NONE_RTL8380_FIELDS
 .data.SDS4_FIB_REG25_NONE_RTL8380_FIELDS
                0x0000000083f75928       0x10 board/Realtek/rtl838x/librtl838x.o
                0x0000000083f75928                SDS4_FIB_REG25_NONE_RTL8380_FIELDS
 .data.SDS4_FIB_REG24_NONE_RTL8380_FIELDS
                0x0000000083f75938       0x10 board/Realtek/rtl838x/librtl838x.o
                0x0000000083f75938                SDS4_FIB_REG24_NONE_RTL8380_FIELDS
 .data.SDS4_FIB_REG23_NONE_RTL8380_FIELDS
                0x0000000083f75948       0x10 board/Realtek/rtl838x/librtl838x.o
                0x0000000083f75948                SDS4_FIB_REG23_NONE_RTL8380_FIELDS
 .data.SDS4_FIB_REG22_NONE_RTL8380_FIELDS
                0x0000000083f75958       0x10 board/Realtek/rtl838x/librtl838x.o
                0x0000000083f75958                SDS4_FIB_REG22_NONE_RTL8380_FIELDS
 .data.SDS4_FIB_REG21_NONE_RTL8380_FIELDS
                0x0000000083f75968       0x10 board/Realtek/rtl838x/librtl838x.o
                0x0000000083f75968                SDS4_FIB_REG21_NONE_RTL8380_FIELDS
 .data.SDS4_FIB_REG20_NONE_RTL8380_FIELDS
                0x0000000083f75978       0x10 board/Realtek/rtl838x/librtl838x.o
                0x0000000083f75978                SDS4_FIB_REG20_NONE_RTL8380_FIELDS
 .data.SDS4_FIB_REG19_NONE_RTL8380_FIELDS
                0x0000000083f75988       0x10 board/Realtek/rtl838x/librtl838x.o
                0x0000000083f75988                SDS4_FIB_REG19_NONE_RTL8380_FIELDS
 .data.SDS4_FIB_REG18_NONE_RTL8380_FIELDS
                0x0000000083f75998       0x10 board/Realtek/rtl838x/librtl838x.o
                0x0000000083f75998                SDS4_FIB_REG18_NONE_RTL8380_FIELDS
 .data.SDS4_FIB_REG17_NONE_RTL8380_FIELDS
                0x0000000083f759a8       0x10 board/Realtek/rtl838x/librtl838x.o
                0x0000000083f759a8                SDS4_FIB_REG17_NONE_RTL8380_FIELDS
 .data.SDS4_FIB_REG16_NONE_RTL8380_FIELDS
                0x0000000083f759b8       0x10 board/Realtek/rtl838x/librtl838x.o
                0x0000000083f759b8                SDS4_FIB_REG16_NONE_RTL8380_FIELDS
 .data.SDS4_FIB_REG15_NONE_RTL8380_FIELDS
                0x0000000083f759c8       0x10 board/Realtek/rtl838x/librtl838x.o
                0x0000000083f759c8                SDS4_FIB_REG15_NONE_RTL8380_FIELDS
 .data.SDS4_FIB_REG14_NONE_RTL8380_FIELDS
                0x0000000083f759d8       0x10 board/Realtek/rtl838x/librtl838x.o
                0x0000000083f759d8                SDS4_FIB_REG14_NONE_RTL8380_FIELDS
 .data.SDS4_FIB_REG13_NONE_RTL8380_FIELDS
                0x0000000083f759e8       0x10 board/Realtek/rtl838x/librtl838x.o
                0x0000000083f759e8                SDS4_FIB_REG13_NONE_RTL8380_FIELDS
 .data.SDS4_FIB_REG12_NONE_RTL8380_FIELDS
                0x0000000083f759f8       0x10 board/Realtek/rtl838x/librtl838x.o
                0x0000000083f759f8                SDS4_FIB_REG12_NONE_RTL8380_FIELDS
 .data.SDS4_FIB_REG11_NONE_RTL8380_FIELDS
                0x0000000083f75a08       0x10 board/Realtek/rtl838x/librtl838x.o
                0x0000000083f75a08                SDS4_FIB_REG11_NONE_RTL8380_FIELDS
 .data.SDS4_FIB_REG10_NONE_RTL8380_FIELDS
                0x0000000083f75a18       0x10 board/Realtek/rtl838x/librtl838x.o
                0x0000000083f75a18                SDS4_FIB_REG10_NONE_RTL8380_FIELDS
 .data.SDS4_FIB_REG9_NONE_RTL8380_FIELDS
                0x0000000083f75a28       0x10 board/Realtek/rtl838x/librtl838x.o
                0x0000000083f75a28                SDS4_FIB_REG9_NONE_RTL8380_FIELDS
 .data.SDS4_FIB_REG8_NONE_RTL8380_FIELDS
                0x0000000083f75a38       0x10 board/Realtek/rtl838x/librtl838x.o
                0x0000000083f75a38                SDS4_FIB_REG8_NONE_RTL8380_FIELDS
 .data.SDS4_FIB_REG7_NONE_RTL8380_FIELDS
                0x0000000083f75a48       0x10 board/Realtek/rtl838x/librtl838x.o
                0x0000000083f75a48                SDS4_FIB_REG7_NONE_RTL8380_FIELDS
 .data.SDS4_FIB_REG6_NONE_RTL8380_FIELDS
                0x0000000083f75a58       0x10 board/Realtek/rtl838x/librtl838x.o
                0x0000000083f75a58                SDS4_FIB_REG6_NONE_RTL8380_FIELDS
 .data.SDS4_FIB_REG5_NONE_RTL8380_FIELDS
                0x0000000083f75a68       0x10 board/Realtek/rtl838x/librtl838x.o
                0x0000000083f75a68                SDS4_FIB_REG5_NONE_RTL8380_FIELDS
 .data.SDS4_FIB_REG4_NONE_RTL8380_FIELDS
                0x0000000083f75a78       0x10 board/Realtek/rtl838x/librtl838x.o
                0x0000000083f75a78                SDS4_FIB_REG4_NONE_RTL8380_FIELDS
 .data.SDS4_FIB_REG3_NONE_RTL8380_FIELDS
                0x0000000083f75a88       0x10 board/Realtek/rtl838x/librtl838x.o
                0x0000000083f75a88                SDS4_FIB_REG3_NONE_RTL8380_FIELDS
 .data.SDS4_FIB_REG2_NONE_RTL8380_FIELDS
                0x0000000083f75a98       0x10 board/Realtek/rtl838x/librtl838x.o
                0x0000000083f75a98                SDS4_FIB_REG2_NONE_RTL8380_FIELDS
 .data.SDS4_FIB_REG1_NONE_RTL8380_FIELDS
                0x0000000083f75aa8       0x10 board/Realtek/rtl838x/librtl838x.o
                0x0000000083f75aa8                SDS4_FIB_REG1_NONE_RTL8380_FIELDS
 .data.SDS4_FIB_REG0_NONE_RTL8380_FIELDS
                0x0000000083f75ab8       0x10 board/Realtek/rtl838x/librtl838x.o
                0x0000000083f75ab8                SDS4_FIB_REG0_NONE_RTL8380_FIELDS
 .data.SDS4_EXT_REG31_NONE_RTL8380_FIELDS
                0x0000000083f75ac8       0x10 board/Realtek/rtl838x/librtl838x.o
                0x0000000083f75ac8                SDS4_EXT_REG31_NONE_RTL8380_FIELDS
 .data.SDS4_EXT_REG30_NONE_RTL8380_FIELDS
                0x0000000083f75ad8       0x10 board/Realtek/rtl838x/librtl838x.o
                0x0000000083f75ad8                SDS4_EXT_REG30_NONE_RTL8380_FIELDS
 .data.SDS4_EXT_REG29_NONE_RTL8380_FIELDS
                0x0000000083f75ae8       0x10 board/Realtek/rtl838x/librtl838x.o
                0x0000000083f75ae8                SDS4_EXT_REG29_NONE_RTL8380_FIELDS
 .data.SDS4_EXT_REG28_NONE_RTL8380_FIELDS
                0x0000000083f75af8       0x10 board/Realtek/rtl838x/librtl838x.o
                0x0000000083f75af8                SDS4_EXT_REG28_NONE_RTL8380_FIELDS
 .data.SDS4_EXT_REG27_NONE_RTL8380_FIELDS
                0x0000000083f75b08       0x10 board/Realtek/rtl838x/librtl838x.o
                0x0000000083f75b08                SDS4_EXT_REG27_NONE_RTL8380_FIELDS
 .data.SDS4_EXT_REG26_NONE_RTL8380_FIELDS
                0x0000000083f75b18       0x10 board/Realtek/rtl838x/librtl838x.o
                0x0000000083f75b18                SDS4_EXT_REG26_NONE_RTL8380_FIELDS
 .data.SDS4_EXT_REG25_NONE_RTL8380_FIELDS
                0x0000000083f75b28       0x10 board/Realtek/rtl838x/librtl838x.o
                0x0000000083f75b28                SDS4_EXT_REG25_NONE_RTL8380_FIELDS
 .data.SDS4_EXT_REG24_NONE_RTL8380_FIELDS
                0x0000000083f75b38       0x10 board/Realtek/rtl838x/librtl838x.o
                0x0000000083f75b38                SDS4_EXT_REG24_NONE_RTL8380_FIELDS
 .data.SDS4_EXT_REG23_NONE_RTL8380_FIELDS
                0x0000000083f75b48       0x10 board/Realtek/rtl838x/librtl838x.o
                0x0000000083f75b48                SDS4_EXT_REG23_NONE_RTL8380_FIELDS
 .data.SDS4_EXT_REG22_NONE_RTL8380_FIELDS
                0x0000000083f75b58       0x10 board/Realtek/rtl838x/librtl838x.o
                0x0000000083f75b58                SDS4_EXT_REG22_NONE_RTL8380_FIELDS
 .data.SDS4_EXT_REG21_NONE_RTL8380_FIELDS
                0x0000000083f75b68       0x10 board/Realtek/rtl838x/librtl838x.o
                0x0000000083f75b68                SDS4_EXT_REG21_NONE_RTL8380_FIELDS
 .data.SDS4_EXT_REG20_NONE_RTL8380_FIELDS
                0x0000000083f75b78       0x10 board/Realtek/rtl838x/librtl838x.o
                0x0000000083f75b78                SDS4_EXT_REG20_NONE_RTL8380_FIELDS
 .data.SDS4_EXT_REG19_NONE_RTL8380_FIELDS
                0x0000000083f75b88       0x10 board/Realtek/rtl838x/librtl838x.o
                0x0000000083f75b88                SDS4_EXT_REG19_NONE_RTL8380_FIELDS
 .data.SDS4_EXT_REG18_NONE_RTL8380_FIELDS
                0x0000000083f75b98       0x10 board/Realtek/rtl838x/librtl838x.o
                0x0000000083f75b98                SDS4_EXT_REG18_NONE_RTL8380_FIELDS
 .data.SDS4_EXT_REG17_NONE_RTL8380_FIELDS
                0x0000000083f75ba8       0x10 board/Realtek/rtl838x/librtl838x.o
                0x0000000083f75ba8                SDS4_EXT_REG17_NONE_RTL8380_FIELDS
 .data.SDS4_EXT_REG16_NONE_RTL8380_FIELDS
                0x0000000083f75bb8       0x10 board/Realtek/rtl838x/librtl838x.o
                0x0000000083f75bb8                SDS4_EXT_REG16_NONE_RTL8380_FIELDS
 .data.SDS4_EXT_REG15_NONE_RTL8380_FIELDS
                0x0000000083f75bc8       0x10 board/Realtek/rtl838x/librtl838x.o
                0x0000000083f75bc8                SDS4_EXT_REG15_NONE_RTL8380_FIELDS
 .data.SDS4_EXT_REG14_NONE_RTL8380_FIELDS
                0x0000000083f75bd8       0x10 board/Realtek/rtl838x/librtl838x.o
                0x0000000083f75bd8                SDS4_EXT_REG14_NONE_RTL8380_FIELDS
 .data.SDS4_EXT_REG13_NONE_RTL8380_FIELDS
                0x0000000083f75be8       0x10 board/Realtek/rtl838x/librtl838x.o
                0x0000000083f75be8                SDS4_EXT_REG13_NONE_RTL8380_FIELDS
 .data.SDS4_EXT_REG12_NONE_RTL8380_FIELDS
                0x0000000083f75bf8       0x10 board/Realtek/rtl838x/librtl838x.o
                0x0000000083f75bf8                SDS4_EXT_REG12_NONE_RTL8380_FIELDS
 .data.SDS4_EXT_REG11_NONE_RTL8380_FIELDS
                0x0000000083f75c08       0x10 board/Realtek/rtl838x/librtl838x.o
                0x0000000083f75c08                SDS4_EXT_REG11_NONE_RTL8380_FIELDS
 .data.SDS4_EXT_REG10_NONE_RTL8380_FIELDS
                0x0000000083f75c18       0x10 board/Realtek/rtl838x/librtl838x.o
                0x0000000083f75c18                SDS4_EXT_REG10_NONE_RTL8380_FIELDS
 .data.SDS4_EXT_REG9_NONE_RTL8380_FIELDS
                0x0000000083f75c28       0x10 board/Realtek/rtl838x/librtl838x.o
                0x0000000083f75c28                SDS4_EXT_REG9_NONE_RTL8380_FIELDS
 .data.SDS4_EXT_REG8_NONE_RTL8380_FIELDS
                0x0000000083f75c38       0x10 board/Realtek/rtl838x/librtl838x.o
                0x0000000083f75c38                SDS4_EXT_REG8_NONE_RTL8380_FIELDS
 .data.SDS4_EXT_REG7_NONE_RTL8380_FIELDS
                0x0000000083f75c48       0x10 board/Realtek/rtl838x/librtl838x.o
                0x0000000083f75c48                SDS4_EXT_REG7_NONE_RTL8380_FIELDS
 .data.SDS4_EXT_REG6_NONE_RTL8380_FIELDS
                0x0000000083f75c58       0x10 board/Realtek/rtl838x/librtl838x.o
                0x0000000083f75c58                SDS4_EXT_REG6_NONE_RTL8380_FIELDS
 .data.SDS4_EXT_REG5_NONE_RTL8380_FIELDS
                0x0000000083f75c68       0x10 board/Realtek/rtl838x/librtl838x.o
                0x0000000083f75c68                SDS4_EXT_REG5_NONE_RTL8380_FIELDS
 .data.SDS4_EXT_REG4_NONE_RTL8380_FIELDS
                0x0000000083f75c78       0x10 board/Realtek/rtl838x/librtl838x.o
                0x0000000083f75c78                SDS4_EXT_REG4_NONE_RTL8380_FIELDS
 .data.SDS4_EXT_REG3_NONE_RTL8380_FIELDS
                0x0000000083f75c88       0x10 board/Realtek/rtl838x/librtl838x.o
                0x0000000083f75c88                SDS4_EXT_REG3_NONE_RTL8380_FIELDS
 .data.SDS4_EXT_REG2_NONE_RTL8380_FIELDS
                0x0000000083f75c98       0x10 board/Realtek/rtl838x/librtl838x.o
                0x0000000083f75c98                SDS4_EXT_REG2_NONE_RTL8380_FIELDS
 .data.SDS4_EXT_REG1_NONE_RTL8380_FIELDS
                0x0000000083f75ca8       0x10 board/Realtek/rtl838x/librtl838x.o
                0x0000000083f75ca8                SDS4_EXT_REG1_NONE_RTL8380_FIELDS
 .data.SDS4_EXT_REG0_NONE_RTL8380_FIELDS
                0x0000000083f75cb8       0x10 board/Realtek/rtl838x/librtl838x.o
                0x0000000083f75cb8                SDS4_EXT_REG0_NONE_RTL8380_FIELDS
 .data.SDS_DUMMY68_RTL8380_FIELDS
                0x0000000083f75cc8        0x8 board/Realtek/rtl838x/librtl838x.o
                0x0000000083f75cc8                SDS_DUMMY68_RTL8380_FIELDS
 .data.SDS4_REG30_RTL8380_FIELDS
                0x0000000083f75cd0       0x10 board/Realtek/rtl838x/librtl838x.o
                0x0000000083f75cd0                SDS4_REG30_RTL8380_FIELDS
 .data.SDS4_REG29_RTL8380_FIELDS
                0x0000000083f75ce0       0x10 board/Realtek/rtl838x/librtl838x.o
                0x0000000083f75ce0                SDS4_REG29_RTL8380_FIELDS
 .data.SDS4_REG28_RTL8380_FIELDS
                0x0000000083f75cf0       0x40 board/Realtek/rtl838x/librtl838x.o
                0x0000000083f75cf0                SDS4_REG28_RTL8380_FIELDS
 .data.SDS4_REG27_RTL8380_FIELDS
                0x0000000083f75d30       0x10 board/Realtek/rtl838x/librtl838x.o
                0x0000000083f75d30                SDS4_REG27_RTL8380_FIELDS
 .data.SDS4_REG26_RTL8380_FIELDS
                0x0000000083f75d40       0x18 board/Realtek/rtl838x/librtl838x.o
                0x0000000083f75d40                SDS4_REG26_RTL8380_FIELDS
 .data.SDS4_REG25_RTL8380_FIELDS
                0x0000000083f75d58       0x10 board/Realtek/rtl838x/librtl838x.o
                0x0000000083f75d58                SDS4_REG25_RTL8380_FIELDS
 .data.SDS4_REG24_RTL8380_FIELDS
                0x0000000083f75d68       0x10 board/Realtek/rtl838x/librtl838x.o
                0x0000000083f75d68                SDS4_REG24_RTL8380_FIELDS
 .data.SDS4_REG23_RTL8380_FIELDS
                0x0000000083f75d78       0x10 board/Realtek/rtl838x/librtl838x.o
                0x0000000083f75d78                SDS4_REG23_RTL8380_FIELDS
 .data.SDS4_REG22_RTL8380_FIELDS
                0x0000000083f75d88       0x10 board/Realtek/rtl838x/librtl838x.o
                0x0000000083f75d88                SDS4_REG22_RTL8380_FIELDS
 .data.SDS4_REG21_RTL8380_FIELDS
                0x0000000083f75d98       0x10 board/Realtek/rtl838x/librtl838x.o
                0x0000000083f75d98                SDS4_REG21_RTL8380_FIELDS
 .data.SDS4_REG20_RTL8380_FIELDS
                0x0000000083f75da8       0x10 board/Realtek/rtl838x/librtl838x.o
                0x0000000083f75da8                SDS4_REG20_RTL8380_FIELDS
 .data.SDS4_REG19_RTL8380_FIELDS
                0x0000000083f75db8       0x10 board/Realtek/rtl838x/librtl838x.o
                0x0000000083f75db8                SDS4_REG19_RTL8380_FIELDS
 .data.SDS4_REG18_RTL8380_FIELDS
                0x0000000083f75dc8       0x10 board/Realtek/rtl838x/librtl838x.o
                0x0000000083f75dc8                SDS4_REG18_RTL8380_FIELDS
 .data.SDS4_REG17_RTL8380_FIELDS
                0x0000000083f75dd8       0x20 board/Realtek/rtl838x/librtl838x.o
                0x0000000083f75dd8                SDS4_REG17_RTL8380_FIELDS
 .data.SDS4_REG16_RTL8380_FIELDS
                0x0000000083f75df8       0x10 board/Realtek/rtl838x/librtl838x.o
                0x0000000083f75df8                SDS4_REG16_RTL8380_FIELDS
 .data.SDS4_REG15_RTL8380_FIELDS
                0x0000000083f75e08       0x10 board/Realtek/rtl838x/librtl838x.o
                0x0000000083f75e08                SDS4_REG15_RTL8380_FIELDS
 .data.SDS4_REG14_RTL8380_FIELDS
                0x0000000083f75e18       0x68 board/Realtek/rtl838x/librtl838x.o
                0x0000000083f75e18                SDS4_REG14_RTL8380_FIELDS
 .data.SDS4_REG13_RTL8380_FIELDS
                0x0000000083f75e80       0x30 board/Realtek/rtl838x/librtl838x.o
                0x0000000083f75e80                SDS4_REG13_RTL8380_FIELDS
 .data.SDS4_REG12_RTL8380_FIELDS
                0x0000000083f75eb0       0x38 board/Realtek/rtl838x/librtl838x.o
                0x0000000083f75eb0                SDS4_REG12_RTL8380_FIELDS
 .data.SDS4_REG11_RTL8380_FIELDS
                0x0000000083f75ee8       0x10 board/Realtek/rtl838x/librtl838x.o
                0x0000000083f75ee8                SDS4_REG11_RTL8380_FIELDS
 .data.SDS4_REG10_RTL8380_FIELDS
                0x0000000083f75ef8       0x50 board/Realtek/rtl838x/librtl838x.o
                0x0000000083f75ef8                SDS4_REG10_RTL8380_FIELDS
 .data.SDS4_REG9_RTL8380_FIELDS
                0x0000000083f75f48       0x10 board/Realtek/rtl838x/librtl838x.o
                0x0000000083f75f48                SDS4_REG9_RTL8380_FIELDS
 .data.SDS4_REG8_RTL8380_FIELDS
                0x0000000083f75f58       0x48 board/Realtek/rtl838x/librtl838x.o
                0x0000000083f75f58                SDS4_REG8_RTL8380_FIELDS
 .data.SDS4_REG7_RTL8380_FIELDS
                0x0000000083f75fa0       0x58 board/Realtek/rtl838x/librtl838x.o
                0x0000000083f75fa0                SDS4_REG7_RTL8380_FIELDS
 .data.SDS4_REG6_RTL8380_FIELDS
                0x0000000083f75ff8       0x40 board/Realtek/rtl838x/librtl838x.o
                0x0000000083f75ff8                SDS4_REG6_RTL8380_FIELDS
 .data.SDS4_REG5_RTL8380_FIELDS
                0x0000000083f76038       0x60 board/Realtek/rtl838x/librtl838x.o
                0x0000000083f76038                SDS4_REG5_RTL8380_FIELDS
 .data.SDS4_REG4_RTL8380_FIELDS
                0x0000000083f76098       0x48 board/Realtek/rtl838x/librtl838x.o
                0x0000000083f76098                SDS4_REG4_RTL8380_FIELDS
 .data.SDS4_REG3_RTL8380_FIELDS
                0x0000000083f760e0       0x50 board/Realtek/rtl838x/librtl838x.o
                0x0000000083f760e0                SDS4_REG3_RTL8380_FIELDS
 .data.SDS4_REG2_RTL8380_FIELDS
                0x0000000083f76130       0x48 board/Realtek/rtl838x/librtl838x.o
                0x0000000083f76130                SDS4_REG2_RTL8380_FIELDS
 .data.SDS4_REG1_RTL8380_FIELDS
                0x0000000083f76178       0x50 board/Realtek/rtl838x/librtl838x.o
                0x0000000083f76178                SDS4_REG1_RTL8380_FIELDS
 .data.SDS4_REG0_RTL8380_FIELDS
                0x0000000083f761c8       0x78 board/Realtek/rtl838x/librtl838x.o
                0x0000000083f761c8                SDS4_REG0_RTL8380_FIELDS
 .data.SDS_DUMMY67_RTL8380_FIELDS
                0x0000000083f76240        0x8 board/Realtek/rtl838x/librtl838x.o
                0x0000000083f76240                SDS_DUMMY67_RTL8380_FIELDS
 .data.SDS3_FIB_EXT_REG30_RTL8380_FIELDS
                0x0000000083f76248       0x10 board/Realtek/rtl838x/librtl838x.o
                0x0000000083f76248                SDS3_FIB_EXT_REG30_RTL8380_FIELDS
 .data.SDS3_FIB_EXT_REG29_RTL8380_FIELDS
                0x0000000083f76258       0x10 board/Realtek/rtl838x/librtl838x.o
                0x0000000083f76258                SDS3_FIB_EXT_REG29_RTL8380_FIELDS
 .data.SDS3_FIB_EXT_REG28_RTL8380_FIELDS
                0x0000000083f76268       0x10 board/Realtek/rtl838x/librtl838x.o
                0x0000000083f76268                SDS3_FIB_EXT_REG28_RTL8380_FIELDS
 .data.SDS3_FIB_EXT_REG27_RTL8380_FIELDS
                0x0000000083f76278       0x10 board/Realtek/rtl838x/librtl838x.o
                0x0000000083f76278                SDS3_FIB_EXT_REG27_RTL8380_FIELDS
 .data.SDS3_FIB_EXT_REG26_RTL8380_FIELDS
                0x0000000083f76288       0x10 board/Realtek/rtl838x/librtl838x.o
                0x0000000083f76288                SDS3_FIB_EXT_REG26_RTL8380_FIELDS
 .data.SDS3_FIB_EXT_REG25_RTL8380_FIELDS
                0x0000000083f76298       0x10 board/Realtek/rtl838x/librtl838x.o
                0x0000000083f76298                SDS3_FIB_EXT_REG25_RTL8380_FIELDS
 .data.SDS3_FIB_EXT_REG24_RTL8380_FIELDS
                0x0000000083f762a8       0x10 board/Realtek/rtl838x/librtl838x.o
                0x0000000083f762a8                SDS3_FIB_EXT_REG24_RTL8380_FIELDS
 .data.SDS3_FIB_EXT_REG23_RTL8380_FIELDS
                0x0000000083f762b8       0x38 board/Realtek/rtl838x/librtl838x.o
                0x0000000083f762b8                SDS3_FIB_EXT_REG23_RTL8380_FIELDS
 .data.SDS3_FIB_EXT_REG22_RTL8380_FIELDS
                0x0000000083f762f0       0x30 board/Realtek/rtl838x/librtl838x.o
                0x0000000083f762f0                SDS3_FIB_EXT_REG22_RTL8380_FIELDS
 .data.SDS3_FIB_EXT_REG21_RTL8380_FIELDS
                0x0000000083f76320       0x20 board/Realtek/rtl838x/librtl838x.o
                0x0000000083f76320                SDS3_FIB_EXT_REG21_RTL8380_FIELDS
 .data.SDS3_FIB_EXT_REG20_RTL8380_FIELDS
                0x0000000083f76340       0x38 board/Realtek/rtl838x/librtl838x.o
                0x0000000083f76340                SDS3_FIB_EXT_REG20_RTL8380_FIELDS
 .data.SDS3_FIB_EXT_REG19_RTL8380_FIELDS
                0x0000000083f76378       0x48 board/Realtek/rtl838x/librtl838x.o
                0x0000000083f76378                SDS3_FIB_EXT_REG19_RTL8380_FIELDS
 .data.SDS3_FIB_EXT_REG18_RTL8380_FIELDS
                0x0000000083f763c0       0x28 board/Realtek/rtl838x/librtl838x.o
                0x0000000083f763c0                SDS3_FIB_EXT_REG18_RTL8380_FIELDS
 .data.SDS3_FIB_EXT_REG17_RTL8380_FIELDS
                0x0000000083f763e8       0x38 board/Realtek/rtl838x/librtl838x.o
                0x0000000083f763e8                SDS3_FIB_EXT_REG17_RTL8380_FIELDS
 .data.SDS3_FIB_EXT_REG16_RTL8380_FIELDS
                0x0000000083f76420       0x88 board/Realtek/rtl838x/librtl838x.o
                0x0000000083f76420                SDS3_FIB_EXT_REG16_RTL8380_FIELDS
 .data.SDS3_FIB_EXT_REG15_RTL8380_FIELDS
                0x0000000083f764a8       0x10 board/Realtek/rtl838x/librtl838x.o
                0x0000000083f764a8                SDS3_FIB_EXT_REG15_RTL8380_FIELDS
 .data.SDS3_FIB_EXT_REG14_RTL8380_FIELDS
                0x0000000083f764b8       0x10 board/Realtek/rtl838x/librtl838x.o
                0x0000000083f764b8                SDS3_FIB_EXT_REG14_RTL8380_FIELDS
 .data.SDS3_FIB_EXT_REG13_RTL8380_FIELDS
                0x0000000083f764c8       0x20 board/Realtek/rtl838x/librtl838x.o
                0x0000000083f764c8                SDS3_FIB_EXT_REG13_RTL8380_FIELDS
 .data.SDS3_FIB_EXT_REG12_RTL8380_FIELDS
                0x0000000083f764e8       0x10 board/Realtek/rtl838x/librtl838x.o
                0x0000000083f764e8                SDS3_FIB_EXT_REG12_RTL8380_FIELDS
 .data.SDS3_FIB_EXT_REG11_RTL8380_FIELDS
                0x0000000083f764f8       0x10 board/Realtek/rtl838x/librtl838x.o
                0x0000000083f764f8                SDS3_FIB_EXT_REG11_RTL8380_FIELDS
 .data.SDS3_FIB_EXT_REG10_RTL8380_FIELDS
                0x0000000083f76508       0x10 board/Realtek/rtl838x/librtl838x.o
                0x0000000083f76508                SDS3_FIB_EXT_REG10_RTL8380_FIELDS
 .data.SDS3_FIB_EXT_REG9_RTL8380_FIELDS
                0x0000000083f76518       0x10 board/Realtek/rtl838x/librtl838x.o
                0x0000000083f76518                SDS3_FIB_EXT_REG9_RTL8380_FIELDS
 .data.SDS3_FIB_EXT_REG8_RTL8380_FIELDS
                0x0000000083f76528       0x10 board/Realtek/rtl838x/librtl838x.o
                0x0000000083f76528                SDS3_FIB_EXT_REG8_RTL8380_FIELDS
 .data.SDS3_FIB_EXT_REG7_RTL8380_FIELDS
                0x0000000083f76538       0x10 board/Realtek/rtl838x/librtl838x.o
                0x0000000083f76538                SDS3_FIB_EXT_REG7_RTL8380_FIELDS
 .data.SDS3_FIB_EXT_REG6_RTL8380_FIELDS
                0x0000000083f76548       0x28 board/Realtek/rtl838x/librtl838x.o
                0x0000000083f76548                SDS3_FIB_EXT_REG6_RTL8380_FIELDS
 .data.SDS3_FIB_EXT_REG5_RTL8380_FIELDS
                0x0000000083f76570       0x10 board/Realtek/rtl838x/librtl838x.o
                0x0000000083f76570                SDS3_FIB_EXT_REG5_RTL8380_FIELDS
 .data.SDS3_FIB_EXT_REG4_RTL8380_FIELDS
                0x0000000083f76580       0x10 board/Realtek/rtl838x/librtl838x.o
                0x0000000083f76580                SDS3_FIB_EXT_REG4_RTL8380_FIELDS
 .data.SDS3_FIB_EXT_REG3_RTL8380_FIELDS
                0x0000000083f76590       0x20 board/Realtek/rtl838x/librtl838x.o
                0x0000000083f76590                SDS3_FIB_EXT_REG3_RTL8380_FIELDS
 .data.SDS3_FIB_EXT_REG2_RTL8380_FIELDS
                0x0000000083f765b0       0x10 board/Realtek/rtl838x/librtl838x.o
                0x0000000083f765b0                SDS3_FIB_EXT_REG2_RTL8380_FIELDS
 .data.SDS3_FIB_EXT_REG1_RTL8380_FIELDS
                0x0000000083f765c0       0x40 board/Realtek/rtl838x/librtl838x.o
                0x0000000083f765c0                SDS3_FIB_EXT_REG1_RTL8380_FIELDS
 .data.SDS3_FIB_EXT_REG0_RTL8380_FIELDS
                0x0000000083f76600       0x68 board/Realtek/rtl838x/librtl838x.o
                0x0000000083f76600                SDS3_FIB_EXT_REG0_RTL8380_FIELDS
 .data.SDS3_FIB_REG31_NONE_RTL8380_FIELDS
                0x0000000083f76668       0x10 board/Realtek/rtl838x/librtl838x.o
                0x0000000083f76668                SDS3_FIB_REG31_NONE_RTL8380_FIELDS
 .data.SDS3_FIB_REG30_NONE_RTL8380_FIELDS
                0x0000000083f76678       0x10 board/Realtek/rtl838x/librtl838x.o
                0x0000000083f76678                SDS3_FIB_REG30_NONE_RTL8380_FIELDS
 .data.SDS3_FIB_REG29_NONE_RTL8380_FIELDS
                0x0000000083f76688       0x10 board/Realtek/rtl838x/librtl838x.o
                0x0000000083f76688                SDS3_FIB_REG29_NONE_RTL8380_FIELDS
 .data.SDS3_FIB_REG28_NONE_RTL8380_FIELDS
                0x0000000083f76698       0x10 board/Realtek/rtl838x/librtl838x.o
                0x0000000083f76698                SDS3_FIB_REG28_NONE_RTL8380_FIELDS
 .data.SDS3_FIB_REG27_NONE_RTL8380_FIELDS
                0x0000000083f766a8       0x10 board/Realtek/rtl838x/librtl838x.o
                0x0000000083f766a8                SDS3_FIB_REG27_NONE_RTL8380_FIELDS
 .data.SDS3_FIB_REG26_NONE_RTL8380_FIELDS
                0x0000000083f766b8       0x10 board/Realtek/rtl838x/librtl838x.o
                0x0000000083f766b8                SDS3_FIB_REG26_NONE_RTL8380_FIELDS
 .data.SDS3_FIB_REG25_NONE_RTL8380_FIELDS
                0x0000000083f766c8       0x10 board/Realtek/rtl838x/librtl838x.o
                0x0000000083f766c8                SDS3_FIB_REG25_NONE_RTL8380_FIELDS
 .data.SDS3_FIB_REG24_NONE_RTL8380_FIELDS
                0x0000000083f766d8       0x10 board/Realtek/rtl838x/librtl838x.o
                0x0000000083f766d8                SDS3_FIB_REG24_NONE_RTL8380_FIELDS
 .data.SDS3_FIB_REG23_NONE_RTL8380_FIELDS
                0x0000000083f766e8       0x10 board/Realtek/rtl838x/librtl838x.o
                0x0000000083f766e8                SDS3_FIB_REG23_NONE_RTL8380_FIELDS
 .data.SDS3_FIB_REG22_NONE_RTL8380_FIELDS
                0x0000000083f766f8       0x10 board/Realtek/rtl838x/librtl838x.o
                0x0000000083f766f8                SDS3_FIB_REG22_NONE_RTL8380_FIELDS
 .data.SDS3_FIB_REG21_NONE_RTL8380_FIELDS
                0x0000000083f76708       0x10 board/Realtek/rtl838x/librtl838x.o
                0x0000000083f76708                SDS3_FIB_REG21_NONE_RTL8380_FIELDS
 .data.SDS3_FIB_REG20_NONE_RTL8380_FIELDS
                0x0000000083f76718       0x10 board/Realtek/rtl838x/librtl838x.o
                0x0000000083f76718                SDS3_FIB_REG20_NONE_RTL8380_FIELDS
 .data.SDS3_FIB_REG19_NONE_RTL8380_FIELDS
                0x0000000083f76728       0x10 board/Realtek/rtl838x/librtl838x.o
                0x0000000083f76728                SDS3_FIB_REG19_NONE_RTL8380_FIELDS
 .data.SDS3_FIB_REG18_NONE_RTL8380_FIELDS
                0x0000000083f76738       0x10 board/Realtek/rtl838x/librtl838x.o
                0x0000000083f76738                SDS3_FIB_REG18_NONE_RTL8380_FIELDS
 .data.SDS3_FIB_REG17_NONE_RTL8380_FIELDS
                0x0000000083f76748       0x10 board/Realtek/rtl838x/librtl838x.o
                0x0000000083f76748                SDS3_FIB_REG17_NONE_RTL8380_FIELDS
 .data.SDS3_FIB_REG16_NONE_RTL8380_FIELDS
                0x0000000083f76758       0x10 board/Realtek/rtl838x/librtl838x.o
                0x0000000083f76758                SDS3_FIB_REG16_NONE_RTL8380_FIELDS
 .data.SDS3_FIB_REG15_NONE_RTL8380_FIELDS
                0x0000000083f76768       0x10 board/Realtek/rtl838x/librtl838x.o
                0x0000000083f76768                SDS3_FIB_REG15_NONE_RTL8380_FIELDS
 .data.SDS3_FIB_REG14_NONE_RTL8380_FIELDS
                0x0000000083f76778       0x10 board/Realtek/rtl838x/librtl838x.o
                0x0000000083f76778                SDS3_FIB_REG14_NONE_RTL8380_FIELDS
 .data.SDS3_FIB_REG13_NONE_RTL8380_FIELDS
                0x0000000083f76788       0x10 board/Realtek/rtl838x/librtl838x.o
                0x0000000083f76788                SDS3_FIB_REG13_NONE_RTL8380_FIELDS
 .data.SDS3_FIB_REG12_NONE_RTL8380_FIELDS
                0x0000000083f76798       0x10 board/Realtek/rtl838x/librtl838x.o
                0x0000000083f76798                SDS3_FIB_REG12_NONE_RTL8380_FIELDS
 .data.SDS3_FIB_REG11_NONE_RTL8380_FIELDS
                0x0000000083f767a8       0x10 board/Realtek/rtl838x/librtl838x.o
                0x0000000083f767a8                SDS3_FIB_REG11_NONE_RTL8380_FIELDS
 .data.SDS3_FIB_REG10_NONE_RTL8380_FIELDS
                0x0000000083f767b8       0x10 board/Realtek/rtl838x/librtl838x.o
                0x0000000083f767b8                SDS3_FIB_REG10_NONE_RTL8380_FIELDS
 .data.SDS3_FIB_REG9_NONE_RTL8380_FIELDS
                0x0000000083f767c8       0x10 board/Realtek/rtl838x/librtl838x.o
                0x0000000083f767c8                SDS3_FIB_REG9_NONE_RTL8380_FIELDS
 .data.SDS3_FIB_REG8_NONE_RTL8380_FIELDS
                0x0000000083f767d8       0x10 board/Realtek/rtl838x/librtl838x.o
                0x0000000083f767d8                SDS3_FIB_REG8_NONE_RTL8380_FIELDS
 .data.SDS3_FIB_REG7_NONE_RTL8380_FIELDS
                0x0000000083f767e8       0x10 board/Realtek/rtl838x/librtl838x.o
                0x0000000083f767e8                SDS3_FIB_REG7_NONE_RTL8380_FIELDS
 .data.SDS3_FIB_REG6_NONE_RTL8380_FIELDS
                0x0000000083f767f8       0x10 board/Realtek/rtl838x/librtl838x.o
                0x0000000083f767f8                SDS3_FIB_REG6_NONE_RTL8380_FIELDS
 .data.SDS3_FIB_REG5_NONE_RTL8380_FIELDS
                0x0000000083f76808       0x10 board/Realtek/rtl838x/librtl838x.o
                0x0000000083f76808                SDS3_FIB_REG5_NONE_RTL8380_FIELDS
 .data.SDS3_FIB_REG4_NONE_RTL8380_FIELDS
                0x0000000083f76818       0x10 board/Realtek/rtl838x/librtl838x.o
                0x0000000083f76818                SDS3_FIB_REG4_NONE_RTL8380_FIELDS
 .data.SDS3_FIB_REG3_NONE_RTL8380_FIELDS
                0x0000000083f76828       0x10 board/Realtek/rtl838x/librtl838x.o
                0x0000000083f76828                SDS3_FIB_REG3_NONE_RTL8380_FIELDS
 .data.SDS3_FIB_REG2_NONE_RTL8380_FIELDS
                0x0000000083f76838       0x10 board/Realtek/rtl838x/librtl838x.o
                0x0000000083f76838                SDS3_FIB_REG2_NONE_RTL8380_FIELDS
 .data.SDS3_FIB_REG1_NONE_RTL8380_FIELDS
                0x0000000083f76848       0x10 board/Realtek/rtl838x/librtl838x.o
                0x0000000083f76848                SDS3_FIB_REG1_NONE_RTL8380_FIELDS
 .data.SDS3_FIB_REG0_NONE_RTL8380_FIELDS
                0x0000000083f76858       0x10 board/Realtek/rtl838x/librtl838x.o
                0x0000000083f76858                SDS3_FIB_REG0_NONE_RTL8380_FIELDS
 .data.SDS3_EXT_REG31_NONE_RTL8380_FIELDS
                0x0000000083f76868       0x10 board/Realtek/rtl838x/librtl838x.o
                0x0000000083f76868                SDS3_EXT_REG31_NONE_RTL8380_FIELDS
 .data.SDS3_EXT_REG30_NONE_RTL8380_FIELDS
                0x0000000083f76878       0x10 board/Realtek/rtl838x/librtl838x.o
                0x0000000083f76878                SDS3_EXT_REG30_NONE_RTL8380_FIELDS
 .data.SDS3_EXT_REG29_NONE_RTL8380_FIELDS
                0x0000000083f76888       0x10 board/Realtek/rtl838x/librtl838x.o
                0x0000000083f76888                SDS3_EXT_REG29_NONE_RTL8380_FIELDS
 .data.SDS3_EXT_REG28_NONE_RTL8380_FIELDS
                0x0000000083f76898       0x10 board/Realtek/rtl838x/librtl838x.o
                0x0000000083f76898                SDS3_EXT_REG28_NONE_RTL8380_FIELDS
 .data.SDS3_EXT_REG27_NONE_RTL8380_FIELDS
                0x0000000083f768a8       0x10 board/Realtek/rtl838x/librtl838x.o
                0x0000000083f768a8                SDS3_EXT_REG27_NONE_RTL8380_FIELDS
 .data.SDS3_EXT_REG26_NONE_RTL8380_FIELDS
                0x0000000083f768b8       0x10 board/Realtek/rtl838x/librtl838x.o
                0x0000000083f768b8                SDS3_EXT_REG26_NONE_RTL8380_FIELDS
 .data.SDS3_EXT_REG25_NONE_RTL8380_FIELDS
                0x0000000083f768c8       0x10 board/Realtek/rtl838x/librtl838x.o
                0x0000000083f768c8                SDS3_EXT_REG25_NONE_RTL8380_FIELDS
 .data.SDS3_EXT_REG24_NONE_RTL8380_FIELDS
                0x0000000083f768d8       0x10 board/Realtek/rtl838x/librtl838x.o
                0x0000000083f768d8                SDS3_EXT_REG24_NONE_RTL8380_FIELDS
 .data.SDS3_EXT_REG23_NONE_RTL8380_FIELDS
                0x0000000083f768e8       0x10 board/Realtek/rtl838x/librtl838x.o
                0x0000000083f768e8                SDS3_EXT_REG23_NONE_RTL8380_FIELDS
 .data.SDS3_EXT_REG22_NONE_RTL8380_FIELDS
                0x0000000083f768f8       0x10 board/Realtek/rtl838x/librtl838x.o
                0x0000000083f768f8                SDS3_EXT_REG22_NONE_RTL8380_FIELDS
 .data.SDS3_EXT_REG21_NONE_RTL8380_FIELDS
                0x0000000083f76908       0x10 board/Realtek/rtl838x/librtl838x.o
                0x0000000083f76908                SDS3_EXT_REG21_NONE_RTL8380_FIELDS
 .data.SDS3_EXT_REG20_NONE_RTL8380_FIELDS
                0x0000000083f76918       0x10 board/Realtek/rtl838x/librtl838x.o
                0x0000000083f76918                SDS3_EXT_REG20_NONE_RTL8380_FIELDS
 .data.SDS3_EXT_REG19_NONE_RTL8380_FIELDS
                0x0000000083f76928       0x10 board/Realtek/rtl838x/librtl838x.o
                0x0000000083f76928                SDS3_EXT_REG19_NONE_RTL8380_FIELDS
 .data.SDS3_EXT_REG18_NONE_RTL8380_FIELDS
                0x0000000083f76938       0x10 board/Realtek/rtl838x/librtl838x.o
                0x0000000083f76938                SDS3_EXT_REG18_NONE_RTL8380_FIELDS
 .data.SDS3_EXT_REG17_NONE_RTL8380_FIELDS
                0x0000000083f76948       0x10 board/Realtek/rtl838x/librtl838x.o
                0x0000000083f76948                SDS3_EXT_REG17_NONE_RTL8380_FIELDS
 .data.SDS3_EXT_REG16_NONE_RTL8380_FIELDS
                0x0000000083f76958       0x10 board/Realtek/rtl838x/librtl838x.o
                0x0000000083f76958                SDS3_EXT_REG16_NONE_RTL8380_FIELDS
 .data.SDS3_EXT_REG15_NONE_RTL8380_FIELDS
                0x0000000083f76968       0x10 board/Realtek/rtl838x/librtl838x.o
                0x0000000083f76968                SDS3_EXT_REG15_NONE_RTL8380_FIELDS
 .data.SDS3_EXT_REG14_NONE_RTL8380_FIELDS
                0x0000000083f76978       0x10 board/Realtek/rtl838x/librtl838x.o
                0x0000000083f76978                SDS3_EXT_REG14_NONE_RTL8380_FIELDS
 .data.SDS3_EXT_REG13_NONE_RTL8380_FIELDS
                0x0000000083f76988       0x10 board/Realtek/rtl838x/librtl838x.o
                0x0000000083f76988                SDS3_EXT_REG13_NONE_RTL8380_FIELDS
 .data.SDS3_EXT_REG12_NONE_RTL8380_FIELDS
                0x0000000083f76998       0x10 board/Realtek/rtl838x/librtl838x.o
                0x0000000083f76998                SDS3_EXT_REG12_NONE_RTL8380_FIELDS
 .data.SDS3_EXT_REG11_NONE_RTL8380_FIELDS
                0x0000000083f769a8       0x10 board/Realtek/rtl838x/librtl838x.o
                0x0000000083f769a8                SDS3_EXT_REG11_NONE_RTL8380_FIELDS
 .data.SDS3_EXT_REG10_NONE_RTL8380_FIELDS
                0x0000000083f769b8       0x10 board/Realtek/rtl838x/librtl838x.o
                0x0000000083f769b8                SDS3_EXT_REG10_NONE_RTL8380_FIELDS
 .data.SDS3_EXT_REG9_NONE_RTL8380_FIELDS
                0x0000000083f769c8       0x10 board/Realtek/rtl838x/librtl838x.o
                0x0000000083f769c8                SDS3_EXT_REG9_NONE_RTL8380_FIELDS
 .data.SDS3_EXT_REG8_NONE_RTL8380_FIELDS
                0x0000000083f769d8       0x10 board/Realtek/rtl838x/librtl838x.o
                0x0000000083f769d8                SDS3_EXT_REG8_NONE_RTL8380_FIELDS
 .data.SDS3_EXT_REG7_NONE_RTL8380_FIELDS
                0x0000000083f769e8       0x10 board/Realtek/rtl838x/librtl838x.o
                0x0000000083f769e8                SDS3_EXT_REG7_NONE_RTL8380_FIELDS
 .data.SDS3_EXT_REG6_NONE_RTL8380_FIELDS
                0x0000000083f769f8       0x10 board/Realtek/rtl838x/librtl838x.o
                0x0000000083f769f8                SDS3_EXT_REG6_NONE_RTL8380_FIELDS
 .data.SDS3_EXT_REG5_NONE_RTL8380_FIELDS
                0x0000000083f76a08       0x10 board/Realtek/rtl838x/librtl838x.o
                0x0000000083f76a08                SDS3_EXT_REG5_NONE_RTL8380_FIELDS
 .data.SDS3_EXT_REG4_NONE_RTL8380_FIELDS
                0x0000000083f76a18       0x10 board/Realtek/rtl838x/librtl838x.o
                0x0000000083f76a18                SDS3_EXT_REG4_NONE_RTL8380_FIELDS
 .data.SDS3_EXT_REG3_NONE_RTL8380_FIELDS
                0x0000000083f76a28       0x10 board/Realtek/rtl838x/librtl838x.o
                0x0000000083f76a28                SDS3_EXT_REG3_NONE_RTL8380_FIELDS
 .data.SDS3_EXT_REG2_NONE_RTL8380_FIELDS
                0x0000000083f76a38       0x10 board/Realtek/rtl838x/librtl838x.o
                0x0000000083f76a38                SDS3_EXT_REG2_NONE_RTL8380_FIELDS
 .data.SDS3_EXT_REG1_NONE_RTL8380_FIELDS
                0x0000000083f76a48       0x10 board/Realtek/rtl838x/librtl838x.o
                0x0000000083f76a48                SDS3_EXT_REG1_NONE_RTL8380_FIELDS
 .data.SDS3_EXT_REG0_NONE_RTL8380_FIELDS
                0x0000000083f76a58       0x10 board/Realtek/rtl838x/librtl838x.o
                0x0000000083f76a58                SDS3_EXT_REG0_NONE_RTL8380_FIELDS
 .data.SDS_DUMMY51_RTL8380_FIELDS
                0x0000000083f76a68        0x8 board/Realtek/rtl838x/librtl838x.o
                0x0000000083f76a68                SDS_DUMMY51_RTL8380_FIELDS
 .data.SDS3_REG30_RTL8380_FIELDS
                0x0000000083f76a70       0x10 board/Realtek/rtl838x/librtl838x.o
                0x0000000083f76a70                SDS3_REG30_RTL8380_FIELDS
 .data.SDS3_REG29_RTL8380_FIELDS
                0x0000000083f76a80       0x10 board/Realtek/rtl838x/librtl838x.o
                0x0000000083f76a80                SDS3_REG29_RTL8380_FIELDS
 .data.SDS3_REG28_RTL8380_FIELDS
                0x0000000083f76a90       0x40 board/Realtek/rtl838x/librtl838x.o
                0x0000000083f76a90                SDS3_REG28_RTL8380_FIELDS
 .data.SDS3_REG27_RTL8380_FIELDS
                0x0000000083f76ad0       0x10 board/Realtek/rtl838x/librtl838x.o
                0x0000000083f76ad0                SDS3_REG27_RTL8380_FIELDS
 .data.SDS3_REG26_RTL8380_FIELDS
                0x0000000083f76ae0       0x18 board/Realtek/rtl838x/librtl838x.o
                0x0000000083f76ae0                SDS3_REG26_RTL8380_FIELDS
 .data.SDS3_REG25_RTL8380_FIELDS
                0x0000000083f76af8       0x10 board/Realtek/rtl838x/librtl838x.o
                0x0000000083f76af8                SDS3_REG25_RTL8380_FIELDS
 .data.SDS3_REG24_RTL8380_FIELDS
                0x0000000083f76b08       0x10 board/Realtek/rtl838x/librtl838x.o
                0x0000000083f76b08                SDS3_REG24_RTL8380_FIELDS
 .data.SDS3_REG23_RTL8380_FIELDS
                0x0000000083f76b18       0x10 board/Realtek/rtl838x/librtl838x.o
                0x0000000083f76b18                SDS3_REG23_RTL8380_FIELDS
 .data.SDS3_REG22_RTL8380_FIELDS
                0x0000000083f76b28       0x10 board/Realtek/rtl838x/librtl838x.o
                0x0000000083f76b28                SDS3_REG22_RTL8380_FIELDS
 .data.SDS3_REG21_RTL8380_FIELDS
                0x0000000083f76b38       0x10 board/Realtek/rtl838x/librtl838x.o
                0x0000000083f76b38                SDS3_REG21_RTL8380_FIELDS
 .data.SDS3_REG20_RTL8380_FIELDS
                0x0000000083f76b48       0x10 board/Realtek/rtl838x/librtl838x.o
                0x0000000083f76b48                SDS3_REG20_RTL8380_FIELDS
 .data.SDS3_REG19_RTL8380_FIELDS
                0x0000000083f76b58       0x10 board/Realtek/rtl838x/librtl838x.o
                0x0000000083f76b58                SDS3_REG19_RTL8380_FIELDS
 .data.SDS3_REG18_RTL8380_FIELDS
                0x0000000083f76b68       0x10 board/Realtek/rtl838x/librtl838x.o
                0x0000000083f76b68                SDS3_REG18_RTL8380_FIELDS
 .data.SDS3_REG17_RTL8380_FIELDS
                0x0000000083f76b78       0x20 board/Realtek/rtl838x/librtl838x.o
                0x0000000083f76b78                SDS3_REG17_RTL8380_FIELDS
 .data.SDS3_REG16_RTL8380_FIELDS
                0x0000000083f76b98       0x10 board/Realtek/rtl838x/librtl838x.o
                0x0000000083f76b98                SDS3_REG16_RTL8380_FIELDS
 .data.SDS3_REG15_RTL8380_FIELDS
                0x0000000083f76ba8       0x10 board/Realtek/rtl838x/librtl838x.o
                0x0000000083f76ba8                SDS3_REG15_RTL8380_FIELDS
 .data.SDS3_REG14_RTL8380_FIELDS
                0x0000000083f76bb8       0x68 board/Realtek/rtl838x/librtl838x.o
                0x0000000083f76bb8                SDS3_REG14_RTL8380_FIELDS
 .data.SDS3_REG13_RTL8380_FIELDS
                0x0000000083f76c20       0x30 board/Realtek/rtl838x/librtl838x.o
                0x0000000083f76c20                SDS3_REG13_RTL8380_FIELDS
 .data.SDS3_REG12_RTL8380_FIELDS
                0x0000000083f76c50       0x38 board/Realtek/rtl838x/librtl838x.o
                0x0000000083f76c50                SDS3_REG12_RTL8380_FIELDS
 .data.SDS3_REG11_RTL8380_FIELDS
                0x0000000083f76c88       0x10 board/Realtek/rtl838x/librtl838x.o
                0x0000000083f76c88                SDS3_REG11_RTL8380_FIELDS
 .data.SDS3_REG10_RTL8380_FIELDS
                0x0000000083f76c98       0x50 board/Realtek/rtl838x/librtl838x.o
                0x0000000083f76c98                SDS3_REG10_RTL8380_FIELDS
 .data.SDS3_REG9_RTL8380_FIELDS
                0x0000000083f76ce8       0x10 board/Realtek/rtl838x/librtl838x.o
                0x0000000083f76ce8                SDS3_REG9_RTL8380_FIELDS
 .data.SDS3_REG8_RTL8380_FIELDS
                0x0000000083f76cf8       0x48 board/Realtek/rtl838x/librtl838x.o
                0x0000000083f76cf8                SDS3_REG8_RTL8380_FIELDS
 .data.SDS3_REG7_RTL8380_FIELDS
                0x0000000083f76d40       0x58 board/Realtek/rtl838x/librtl838x.o
                0x0000000083f76d40                SDS3_REG7_RTL8380_FIELDS
 .data.SDS3_REG6_RTL8380_FIELDS
                0x0000000083f76d98       0x40 board/Realtek/rtl838x/librtl838x.o
                0x0000000083f76d98                SDS3_REG6_RTL8380_FIELDS
 .data.SDS3_REG5_RTL8380_FIELDS
                0x0000000083f76dd8       0x60 board/Realtek/rtl838x/librtl838x.o
                0x0000000083f76dd8                SDS3_REG5_RTL8380_FIELDS
 .data.SDS3_REG4_RTL8380_FIELDS
                0x0000000083f76e38       0x48 board/Realtek/rtl838x/librtl838x.o
                0x0000000083f76e38                SDS3_REG4_RTL8380_FIELDS
 .data.SDS3_REG3_RTL8380_FIELDS
                0x0000000083f76e80       0x50 board/Realtek/rtl838x/librtl838x.o
                0x0000000083f76e80                SDS3_REG3_RTL8380_FIELDS
 .data.SDS3_REG2_RTL8380_FIELDS
                0x0000000083f76ed0       0x48 board/Realtek/rtl838x/librtl838x.o
                0x0000000083f76ed0                SDS3_REG2_RTL8380_FIELDS
 .data.SDS3_REG1_RTL8380_FIELDS
                0x0000000083f76f18       0x50 board/Realtek/rtl838x/librtl838x.o
                0x0000000083f76f18                SDS3_REG1_RTL8380_FIELDS
 .data.SDS3_REG0_RTL8380_FIELDS
                0x0000000083f76f68       0x78 board/Realtek/rtl838x/librtl838x.o
                0x0000000083f76f68                SDS3_REG0_RTL8380_FIELDS
 .data.SDS_DUMMY50_RTL8380_FIELDS
                0x0000000083f76fe0        0x8 board/Realtek/rtl838x/librtl838x.o
                0x0000000083f76fe0                SDS_DUMMY50_RTL8380_FIELDS
 .data.SDS2_FIB_EXT_REG30_RTL8380_FIELDS
                0x0000000083f76fe8       0x10 board/Realtek/rtl838x/librtl838x.o
                0x0000000083f76fe8                SDS2_FIB_EXT_REG30_RTL8380_FIELDS
 .data.SDS2_FIB_EXT_REG29_RTL8380_FIELDS
                0x0000000083f76ff8       0x10 board/Realtek/rtl838x/librtl838x.o
                0x0000000083f76ff8                SDS2_FIB_EXT_REG29_RTL8380_FIELDS
 .data.SDS2_FIB_EXT_REG28_RTL8380_FIELDS
                0x0000000083f77008       0x10 board/Realtek/rtl838x/librtl838x.o
                0x0000000083f77008                SDS2_FIB_EXT_REG28_RTL8380_FIELDS
 .data.SDS2_FIB_EXT_REG27_RTL8380_FIELDS
                0x0000000083f77018       0x10 board/Realtek/rtl838x/librtl838x.o
                0x0000000083f77018                SDS2_FIB_EXT_REG27_RTL8380_FIELDS
 .data.SDS2_FIB_EXT_REG26_RTL8380_FIELDS
                0x0000000083f77028       0x10 board/Realtek/rtl838x/librtl838x.o
                0x0000000083f77028                SDS2_FIB_EXT_REG26_RTL8380_FIELDS
 .data.SDS2_FIB_EXT_REG25_RTL8380_FIELDS
                0x0000000083f77038       0x10 board/Realtek/rtl838x/librtl838x.o
                0x0000000083f77038                SDS2_FIB_EXT_REG25_RTL8380_FIELDS
 .data.SDS2_FIB_EXT_REG24_RTL8380_FIELDS
                0x0000000083f77048       0x10 board/Realtek/rtl838x/librtl838x.o
                0x0000000083f77048                SDS2_FIB_EXT_REG24_RTL8380_FIELDS
 .data.SDS2_FIB_EXT_REG23_RTL8380_FIELDS
                0x0000000083f77058       0x38 board/Realtek/rtl838x/librtl838x.o
                0x0000000083f77058                SDS2_FIB_EXT_REG23_RTL8380_FIELDS
 .data.SDS2_FIB_EXT_REG22_RTL8380_FIELDS
                0x0000000083f77090       0x30 board/Realtek/rtl838x/librtl838x.o
                0x0000000083f77090                SDS2_FIB_EXT_REG22_RTL8380_FIELDS
 .data.SDS2_FIB_EXT_REG21_RTL8380_FIELDS
                0x0000000083f770c0       0x20 board/Realtek/rtl838x/librtl838x.o
                0x0000000083f770c0                SDS2_FIB_EXT_REG21_RTL8380_FIELDS
 .data.SDS2_FIB_EXT_REG20_RTL8380_FIELDS
                0x0000000083f770e0       0x38 board/Realtek/rtl838x/librtl838x.o
                0x0000000083f770e0                SDS2_FIB_EXT_REG20_RTL8380_FIELDS
 .data.SDS2_FIB_EXT_REG19_RTL8380_FIELDS
                0x0000000083f77118       0x48 board/Realtek/rtl838x/librtl838x.o
                0x0000000083f77118                SDS2_FIB_EXT_REG19_RTL8380_FIELDS
 .data.SDS2_FIB_EXT_REG18_RTL8380_FIELDS
                0x0000000083f77160       0x28 board/Realtek/rtl838x/librtl838x.o
                0x0000000083f77160                SDS2_FIB_EXT_REG18_RTL8380_FIELDS
 .data.SDS2_FIB_EXT_REG17_RTL8380_FIELDS
                0x0000000083f77188       0x38 board/Realtek/rtl838x/librtl838x.o
                0x0000000083f77188                SDS2_FIB_EXT_REG17_RTL8380_FIELDS
 .data.SDS2_FIB_EXT_REG16_RTL8380_FIELDS
                0x0000000083f771c0       0x88 board/Realtek/rtl838x/librtl838x.o
                0x0000000083f771c0                SDS2_FIB_EXT_REG16_RTL8380_FIELDS
 .data.SDS2_FIB_EXT_REG15_RTL8380_FIELDS
                0x0000000083f77248       0x10 board/Realtek/rtl838x/librtl838x.o
                0x0000000083f77248                SDS2_FIB_EXT_REG15_RTL8380_FIELDS
 .data.SDS2_FIB_EXT_REG14_RTL8380_FIELDS
                0x0000000083f77258       0x10 board/Realtek/rtl838x/librtl838x.o
                0x0000000083f77258                SDS2_FIB_EXT_REG14_RTL8380_FIELDS
 .data.SDS2_FIB_EXT_REG13_RTL8380_FIELDS
                0x0000000083f77268       0x20 board/Realtek/rtl838x/librtl838x.o
                0x0000000083f77268                SDS2_FIB_EXT_REG13_RTL8380_FIELDS
 .data.SDS2_FIB_EXT_REG12_RTL8380_FIELDS
                0x0000000083f77288       0x10 board/Realtek/rtl838x/librtl838x.o
                0x0000000083f77288                SDS2_FIB_EXT_REG12_RTL8380_FIELDS
 .data.SDS2_FIB_EXT_REG11_RTL8380_FIELDS
                0x0000000083f77298       0x10 board/Realtek/rtl838x/librtl838x.o
                0x0000000083f77298                SDS2_FIB_EXT_REG11_RTL8380_FIELDS
 .data.SDS2_FIB_EXT_REG10_RTL8380_FIELDS
                0x0000000083f772a8       0x10 board/Realtek/rtl838x/librtl838x.o
                0x0000000083f772a8                SDS2_FIB_EXT_REG10_RTL8380_FIELDS
 .data.SDS2_FIB_EXT_REG9_RTL8380_FIELDS
                0x0000000083f772b8       0x10 board/Realtek/rtl838x/librtl838x.o
                0x0000000083f772b8                SDS2_FIB_EXT_REG9_RTL8380_FIELDS
 .data.SDS2_FIB_EXT_REG8_RTL8380_FIELDS
                0x0000000083f772c8       0x10 board/Realtek/rtl838x/librtl838x.o
                0x0000000083f772c8                SDS2_FIB_EXT_REG8_RTL8380_FIELDS
 .data.SDS2_FIB_EXT_REG7_RTL8380_FIELDS
                0x0000000083f772d8       0x10 board/Realtek/rtl838x/librtl838x.o
                0x0000000083f772d8                SDS2_FIB_EXT_REG7_RTL8380_FIELDS
 .data.SDS2_FIB_EXT_REG6_RTL8380_FIELDS
                0x0000000083f772e8       0x28 board/Realtek/rtl838x/librtl838x.o
                0x0000000083f772e8                SDS2_FIB_EXT_REG6_RTL8380_FIELDS
 .data.SDS2_FIB_EXT_REG5_RTL8380_FIELDS
                0x0000000083f77310       0x10 board/Realtek/rtl838x/librtl838x.o
                0x0000000083f77310                SDS2_FIB_EXT_REG5_RTL8380_FIELDS
 .data.SDS2_FIB_EXT_REG4_RTL8380_FIELDS
                0x0000000083f77320       0x10 board/Realtek/rtl838x/librtl838x.o
                0x0000000083f77320                SDS2_FIB_EXT_REG4_RTL8380_FIELDS
 .data.SDS2_FIB_EXT_REG3_RTL8380_FIELDS
                0x0000000083f77330       0x20 board/Realtek/rtl838x/librtl838x.o
                0x0000000083f77330                SDS2_FIB_EXT_REG3_RTL8380_FIELDS
 .data.SDS2_FIB_EXT_REG2_RTL8380_FIELDS
                0x0000000083f77350       0x10 board/Realtek/rtl838x/librtl838x.o
                0x0000000083f77350                SDS2_FIB_EXT_REG2_RTL8380_FIELDS
 .data.SDS2_FIB_EXT_REG1_RTL8380_FIELDS
                0x0000000083f77360       0x40 board/Realtek/rtl838x/librtl838x.o
                0x0000000083f77360                SDS2_FIB_EXT_REG1_RTL8380_FIELDS
 .data.SDS2_FIB_EXT_REG0_RTL8380_FIELDS
                0x0000000083f773a0       0x68 board/Realtek/rtl838x/librtl838x.o
                0x0000000083f773a0                SDS2_FIB_EXT_REG0_RTL8380_FIELDS
 .data.SDS2_FIB_REG31_NONE_RTL8380_FIELDS
                0x0000000083f77408       0x10 board/Realtek/rtl838x/librtl838x.o
                0x0000000083f77408                SDS2_FIB_REG31_NONE_RTL8380_FIELDS
 .data.SDS2_FIB_REG30_NONE_RTL8380_FIELDS
                0x0000000083f77418       0x10 board/Realtek/rtl838x/librtl838x.o
                0x0000000083f77418                SDS2_FIB_REG30_NONE_RTL8380_FIELDS
 .data.SDS2_FIB_REG29_NONE_RTL8380_FIELDS
                0x0000000083f77428       0x10 board/Realtek/rtl838x/librtl838x.o
                0x0000000083f77428                SDS2_FIB_REG29_NONE_RTL8380_FIELDS
 .data.SDS2_FIB_REG28_NONE_RTL8380_FIELDS
                0x0000000083f77438       0x10 board/Realtek/rtl838x/librtl838x.o
                0x0000000083f77438                SDS2_FIB_REG28_NONE_RTL8380_FIELDS
 .data.SDS2_FIB_REG27_NONE_RTL8380_FIELDS
                0x0000000083f77448       0x10 board/Realtek/rtl838x/librtl838x.o
                0x0000000083f77448                SDS2_FIB_REG27_NONE_RTL8380_FIELDS
 .data.SDS2_FIB_REG26_NONE_RTL8380_FIELDS
                0x0000000083f77458       0x10 board/Realtek/rtl838x/librtl838x.o
                0x0000000083f77458                SDS2_FIB_REG26_NONE_RTL8380_FIELDS
 .data.SDS2_FIB_REG25_NONE_RTL8380_FIELDS
                0x0000000083f77468       0x10 board/Realtek/rtl838x/librtl838x.o
                0x0000000083f77468                SDS2_FIB_REG25_NONE_RTL8380_FIELDS
 .data.SDS2_FIB_REG24_NONE_RTL8380_FIELDS
                0x0000000083f77478       0x10 board/Realtek/rtl838x/librtl838x.o
                0x0000000083f77478                SDS2_FIB_REG24_NONE_RTL8380_FIELDS
 .data.SDS2_FIB_REG23_NONE_RTL8380_FIELDS
                0x0000000083f77488       0x10 board/Realtek/rtl838x/librtl838x.o
                0x0000000083f77488                SDS2_FIB_REG23_NONE_RTL8380_FIELDS
 .data.SDS2_FIB_REG22_NONE_RTL8380_FIELDS
                0x0000000083f77498       0x10 board/Realtek/rtl838x/librtl838x.o
                0x0000000083f77498                SDS2_FIB_REG22_NONE_RTL8380_FIELDS
 .data.SDS2_FIB_REG21_NONE_RTL8380_FIELDS
                0x0000000083f774a8       0x10 board/Realtek/rtl838x/librtl838x.o
                0x0000000083f774a8                SDS2_FIB_REG21_NONE_RTL8380_FIELDS
 .data.SDS2_FIB_REG20_NONE_RTL8380_FIELDS
                0x0000000083f774b8       0x10 board/Realtek/rtl838x/librtl838x.o
                0x0000000083f774b8                SDS2_FIB_REG20_NONE_RTL8380_FIELDS
 .data.SDS2_FIB_REG19_NONE_RTL8380_FIELDS
                0x0000000083f774c8       0x10 board/Realtek/rtl838x/librtl838x.o
                0x0000000083f774c8                SDS2_FIB_REG19_NONE_RTL8380_FIELDS
 .data.SDS2_FIB_REG18_NONE_RTL8380_FIELDS
                0x0000000083f774d8       0x10 board/Realtek/rtl838x/librtl838x.o
                0x0000000083f774d8                SDS2_FIB_REG18_NONE_RTL8380_FIELDS
 .data.SDS2_FIB_REG17_NONE_RTL8380_FIELDS
                0x0000000083f774e8       0x10 board/Realtek/rtl838x/librtl838x.o
                0x0000000083f774e8                SDS2_FIB_REG17_NONE_RTL8380_FIELDS
 .data.SDS2_FIB_REG16_NONE_RTL8380_FIELDS
                0x0000000083f774f8       0x10 board/Realtek/rtl838x/librtl838x.o
                0x0000000083f774f8                SDS2_FIB_REG16_NONE_RTL8380_FIELDS
 .data.SDS2_FIB_REG15_NONE_RTL8380_FIELDS
                0x0000000083f77508       0x10 board/Realtek/rtl838x/librtl838x.o
                0x0000000083f77508                SDS2_FIB_REG15_NONE_RTL8380_FIELDS
 .data.SDS2_FIB_REG14_NONE_RTL8380_FIELDS
                0x0000000083f77518       0x10 board/Realtek/rtl838x/librtl838x.o
                0x0000000083f77518                SDS2_FIB_REG14_NONE_RTL8380_FIELDS
 .data.SDS2_FIB_REG13_NONE_RTL8380_FIELDS
                0x0000000083f77528       0x10 board/Realtek/rtl838x/librtl838x.o
                0x0000000083f77528                SDS2_FIB_REG13_NONE_RTL8380_FIELDS
 .data.SDS2_FIB_REG12_NONE_RTL8380_FIELDS
                0x0000000083f77538       0x10 board/Realtek/rtl838x/librtl838x.o
                0x0000000083f77538                SDS2_FIB_REG12_NONE_RTL8380_FIELDS
 .data.SDS2_FIB_REG11_NONE_RTL8380_FIELDS
                0x0000000083f77548       0x10 board/Realtek/rtl838x/librtl838x.o
                0x0000000083f77548                SDS2_FIB_REG11_NONE_RTL8380_FIELDS
 .data.SDS2_FIB_REG10_NONE_RTL8380_FIELDS
                0x0000000083f77558       0x10 board/Realtek/rtl838x/librtl838x.o
                0x0000000083f77558                SDS2_FIB_REG10_NONE_RTL8380_FIELDS
 .data.SDS2_FIB_REG9_NONE_RTL8380_FIELDS
                0x0000000083f77568       0x10 board/Realtek/rtl838x/librtl838x.o
                0x0000000083f77568                SDS2_FIB_REG9_NONE_RTL8380_FIELDS
 .data.SDS2_FIB_REG8_NONE_RTL8380_FIELDS
                0x0000000083f77578       0x10 board/Realtek/rtl838x/librtl838x.o
                0x0000000083f77578                SDS2_FIB_REG8_NONE_RTL8380_FIELDS
 .data.SDS2_FIB_REG7_NONE_RTL8380_FIELDS
                0x0000000083f77588       0x10 board/Realtek/rtl838x/librtl838x.o
                0x0000000083f77588                SDS2_FIB_REG7_NONE_RTL8380_FIELDS
 .data.SDS2_FIB_REG6_NONE_RTL8380_FIELDS
                0x0000000083f77598       0x10 board/Realtek/rtl838x/librtl838x.o
                0x0000000083f77598                SDS2_FIB_REG6_NONE_RTL8380_FIELDS
 .data.SDS2_FIB_REG5_NONE_RTL8380_FIELDS
                0x0000000083f775a8       0x10 board/Realtek/rtl838x/librtl838x.o
                0x0000000083f775a8                SDS2_FIB_REG5_NONE_RTL8380_FIELDS
 .data.SDS2_FIB_REG4_NONE_RTL8380_FIELDS
                0x0000000083f775b8       0x10 board/Realtek/rtl838x/librtl838x.o
                0x0000000083f775b8                SDS2_FIB_REG4_NONE_RTL8380_FIELDS
 .data.SDS2_FIB_REG3_NONE_RTL8380_FIELDS
                0x0000000083f775c8       0x10 board/Realtek/rtl838x/librtl838x.o
                0x0000000083f775c8                SDS2_FIB_REG3_NONE_RTL8380_FIELDS
 .data.SDS2_FIB_REG2_NONE_RTL8380_FIELDS
                0x0000000083f775d8       0x10 board/Realtek/rtl838x/librtl838x.o
                0x0000000083f775d8                SDS2_FIB_REG2_NONE_RTL8380_FIELDS
 .data.SDS2_FIB_REG1_NONE_RTL8380_FIELDS
                0x0000000083f775e8       0x10 board/Realtek/rtl838x/librtl838x.o
                0x0000000083f775e8                SDS2_FIB_REG1_NONE_RTL8380_FIELDS
 .data.SDS2_FIB_REG0_NONE_RTL8380_FIELDS
                0x0000000083f775f8       0x10 board/Realtek/rtl838x/librtl838x.o
                0x0000000083f775f8                SDS2_FIB_REG0_NONE_RTL8380_FIELDS
 .data.SDS2_EXT_REG31_NONE_RTL8380_FIELDS
                0x0000000083f77608       0x10 board/Realtek/rtl838x/librtl838x.o
                0x0000000083f77608                SDS2_EXT_REG31_NONE_RTL8380_FIELDS
 .data.SDS2_EXT_REG30_NONE_RTL8380_FIELDS
                0x0000000083f77618       0x10 board/Realtek/rtl838x/librtl838x.o
                0x0000000083f77618                SDS2_EXT_REG30_NONE_RTL8380_FIELDS
 .data.SDS2_EXT_REG29_NONE_RTL8380_FIELDS
                0x0000000083f77628       0x10 board/Realtek/rtl838x/librtl838x.o
                0x0000000083f77628                SDS2_EXT_REG29_NONE_RTL8380_FIELDS
 .data.SDS2_EXT_REG28_NONE_RTL8380_FIELDS
                0x0000000083f77638       0x10 board/Realtek/rtl838x/librtl838x.o
                0x0000000083f77638                SDS2_EXT_REG28_NONE_RTL8380_FIELDS
 .data.SDS2_EXT_REG27_NONE_RTL8380_FIELDS
                0x0000000083f77648       0x10 board/Realtek/rtl838x/librtl838x.o
                0x0000000083f77648                SDS2_EXT_REG27_NONE_RTL8380_FIELDS
 .data.SDS2_EXT_REG26_NONE_RTL8380_FIELDS
                0x0000000083f77658       0x10 board/Realtek/rtl838x/librtl838x.o
                0x0000000083f77658                SDS2_EXT_REG26_NONE_RTL8380_FIELDS
 .data.SDS2_EXT_REG25_NONE_RTL8380_FIELDS
                0x0000000083f77668       0x10 board/Realtek/rtl838x/librtl838x.o
                0x0000000083f77668                SDS2_EXT_REG25_NONE_RTL8380_FIELDS
 .data.SDS2_EXT_REG24_NONE_RTL8380_FIELDS
                0x0000000083f77678       0x10 board/Realtek/rtl838x/librtl838x.o
                0x0000000083f77678                SDS2_EXT_REG24_NONE_RTL8380_FIELDS
 .data.SDS2_EXT_REG23_NONE_RTL8380_FIELDS
                0x0000000083f77688       0x10 board/Realtek/rtl838x/librtl838x.o
                0x0000000083f77688                SDS2_EXT_REG23_NONE_RTL8380_FIELDS
 .data.SDS2_EXT_REG22_NONE_RTL8380_FIELDS
                0x0000000083f77698       0x10 board/Realtek/rtl838x/librtl838x.o
                0x0000000083f77698                SDS2_EXT_REG22_NONE_RTL8380_FIELDS
 .data.SDS2_EXT_REG21_NONE_RTL8380_FIELDS
                0x0000000083f776a8       0x10 board/Realtek/rtl838x/librtl838x.o
                0x0000000083f776a8                SDS2_EXT_REG21_NONE_RTL8380_FIELDS
 .data.SDS2_EXT_REG20_NONE_RTL8380_FIELDS
                0x0000000083f776b8       0x10 board/Realtek/rtl838x/librtl838x.o
                0x0000000083f776b8                SDS2_EXT_REG20_NONE_RTL8380_FIELDS
 .data.SDS2_EXT_REG19_NONE_RTL8380_FIELDS
                0x0000000083f776c8       0x10 board/Realtek/rtl838x/librtl838x.o
                0x0000000083f776c8                SDS2_EXT_REG19_NONE_RTL8380_FIELDS
 .data.SDS2_EXT_REG18_NONE_RTL8380_FIELDS
                0x0000000083f776d8       0x10 board/Realtek/rtl838x/librtl838x.o
                0x0000000083f776d8                SDS2_EXT_REG18_NONE_RTL8380_FIELDS
 .data.SDS2_EXT_REG17_NONE_RTL8380_FIELDS
                0x0000000083f776e8       0x10 board/Realtek/rtl838x/librtl838x.o
                0x0000000083f776e8                SDS2_EXT_REG17_NONE_RTL8380_FIELDS
 .data.SDS2_EXT_REG16_NONE_RTL8380_FIELDS
                0x0000000083f776f8       0x10 board/Realtek/rtl838x/librtl838x.o
                0x0000000083f776f8                SDS2_EXT_REG16_NONE_RTL8380_FIELDS
 .data.SDS2_EXT_REG15_NONE_RTL8380_FIELDS
                0x0000000083f77708       0x10 board/Realtek/rtl838x/librtl838x.o
                0x0000000083f77708                SDS2_EXT_REG15_NONE_RTL8380_FIELDS
 .data.SDS2_EXT_REG14_NONE_RTL8380_FIELDS
                0x0000000083f77718       0x10 board/Realtek/rtl838x/librtl838x.o
                0x0000000083f77718                SDS2_EXT_REG14_NONE_RTL8380_FIELDS
 .data.SDS2_EXT_REG13_NONE_RTL8380_FIELDS
                0x0000000083f77728       0x10 board/Realtek/rtl838x/librtl838x.o
                0x0000000083f77728                SDS2_EXT_REG13_NONE_RTL8380_FIELDS
 .data.SDS2_EXT_REG12_NONE_RTL8380_FIELDS
                0x0000000083f77738       0x10 board/Realtek/rtl838x/librtl838x.o
                0x0000000083f77738                SDS2_EXT_REG12_NONE_RTL8380_FIELDS
 .data.SDS2_EXT_REG11_NONE_RTL8380_FIELDS
                0x0000000083f77748       0x10 board/Realtek/rtl838x/librtl838x.o
                0x0000000083f77748                SDS2_EXT_REG11_NONE_RTL8380_FIELDS
 .data.SDS2_EXT_REG10_NONE_RTL8380_FIELDS
                0x0000000083f77758       0x10 board/Realtek/rtl838x/librtl838x.o
                0x0000000083f77758                SDS2_EXT_REG10_NONE_RTL8380_FIELDS
 .data.SDS2_EXT_REG9_NONE_RTL8380_FIELDS
                0x0000000083f77768       0x10 board/Realtek/rtl838x/librtl838x.o
                0x0000000083f77768                SDS2_EXT_REG9_NONE_RTL8380_FIELDS
 .data.SDS2_EXT_REG8_NONE_RTL8380_FIELDS
                0x0000000083f77778       0x10 board/Realtek/rtl838x/librtl838x.o
                0x0000000083f77778                SDS2_EXT_REG8_NONE_RTL8380_FIELDS
 .data.SDS2_EXT_REG7_NONE_RTL8380_FIELDS
                0x0000000083f77788       0x10 board/Realtek/rtl838x/librtl838x.o
                0x0000000083f77788                SDS2_EXT_REG7_NONE_RTL8380_FIELDS
 .data.SDS2_EXT_REG6_NONE_RTL8380_FIELDS
                0x0000000083f77798       0x10 board/Realtek/rtl838x/librtl838x.o
                0x0000000083f77798                SDS2_EXT_REG6_NONE_RTL8380_FIELDS
 .data.SDS2_EXT_REG5_NONE_RTL8380_FIELDS
                0x0000000083f777a8       0x10 board/Realtek/rtl838x/librtl838x.o
                0x0000000083f777a8                SDS2_EXT_REG5_NONE_RTL8380_FIELDS
 .data.SDS2_EXT_REG4_NONE_RTL8380_FIELDS
                0x0000000083f777b8       0x10 board/Realtek/rtl838x/librtl838x.o
                0x0000000083f777b8                SDS2_EXT_REG4_NONE_RTL8380_FIELDS
 .data.SDS2_EXT_REG3_NONE_RTL8380_FIELDS
                0x0000000083f777c8       0x10 board/Realtek/rtl838x/librtl838x.o
                0x0000000083f777c8                SDS2_EXT_REG3_NONE_RTL8380_FIELDS
 .data.SDS2_EXT_REG2_NONE_RTL8380_FIELDS
                0x0000000083f777d8       0x10 board/Realtek/rtl838x/librtl838x.o
                0x0000000083f777d8                SDS2_EXT_REG2_NONE_RTL8380_FIELDS
 .data.SDS2_EXT_REG1_NONE_RTL8380_FIELDS
                0x0000000083f777e8       0x10 board/Realtek/rtl838x/librtl838x.o
                0x0000000083f777e8                SDS2_EXT_REG1_NONE_RTL8380_FIELDS
 .data.SDS2_EXT_REG0_NONE_RTL8380_FIELDS
                0x0000000083f777f8       0x10 board/Realtek/rtl838x/librtl838x.o
                0x0000000083f777f8                SDS2_EXT_REG0_NONE_RTL8380_FIELDS
 .data.SDS_DUMMY34_RTL8380_FIELDS
                0x0000000083f77808        0x8 board/Realtek/rtl838x/librtl838x.o
                0x0000000083f77808                SDS_DUMMY34_RTL8380_FIELDS
 .data.SDS2_REG30_RTL8380_FIELDS
                0x0000000083f77810       0x10 board/Realtek/rtl838x/librtl838x.o
                0x0000000083f77810                SDS2_REG30_RTL8380_FIELDS
 .data.SDS2_REG29_RTL8380_FIELDS
                0x0000000083f77820       0x10 board/Realtek/rtl838x/librtl838x.o
                0x0000000083f77820                SDS2_REG29_RTL8380_FIELDS
 .data.SDS2_REG28_RTL8380_FIELDS
                0x0000000083f77830       0x40 board/Realtek/rtl838x/librtl838x.o
                0x0000000083f77830                SDS2_REG28_RTL8380_FIELDS
 .data.SDS2_REG27_RTL8380_FIELDS
                0x0000000083f77870       0x10 board/Realtek/rtl838x/librtl838x.o
                0x0000000083f77870                SDS2_REG27_RTL8380_FIELDS
 .data.SDS2_REG26_RTL8380_FIELDS
                0x0000000083f77880       0x18 board/Realtek/rtl838x/librtl838x.o
                0x0000000083f77880                SDS2_REG26_RTL8380_FIELDS
 .data.SDS2_REG25_RTL8380_FIELDS
                0x0000000083f77898       0x10 board/Realtek/rtl838x/librtl838x.o
                0x0000000083f77898                SDS2_REG25_RTL8380_FIELDS
 .data.SDS2_REG24_RTL8380_FIELDS
                0x0000000083f778a8       0x10 board/Realtek/rtl838x/librtl838x.o
                0x0000000083f778a8                SDS2_REG24_RTL8380_FIELDS
 .data.SDS2_REG23_RTL8380_FIELDS
                0x0000000083f778b8       0x10 board/Realtek/rtl838x/librtl838x.o
                0x0000000083f778b8                SDS2_REG23_RTL8380_FIELDS
 .data.SDS2_REG22_RTL8380_FIELDS
                0x0000000083f778c8       0x10 board/Realtek/rtl838x/librtl838x.o
                0x0000000083f778c8                SDS2_REG22_RTL8380_FIELDS
 .data.SDS2_REG21_RTL8380_FIELDS
                0x0000000083f778d8       0x10 board/Realtek/rtl838x/librtl838x.o
                0x0000000083f778d8                SDS2_REG21_RTL8380_FIELDS
 .data.SDS2_REG20_RTL8380_FIELDS
                0x0000000083f778e8       0x10 board/Realtek/rtl838x/librtl838x.o
                0x0000000083f778e8                SDS2_REG20_RTL8380_FIELDS
 .data.SDS2_REG19_RTL8380_FIELDS
                0x0000000083f778f8       0x10 board/Realtek/rtl838x/librtl838x.o
                0x0000000083f778f8                SDS2_REG19_RTL8380_FIELDS
 .data.SDS2_REG18_RTL8380_FIELDS
                0x0000000083f77908       0x10 board/Realtek/rtl838x/librtl838x.o
                0x0000000083f77908                SDS2_REG18_RTL8380_FIELDS
 .data.SDS2_REG17_RTL8380_FIELDS
                0x0000000083f77918       0x20 board/Realtek/rtl838x/librtl838x.o
                0x0000000083f77918                SDS2_REG17_RTL8380_FIELDS
 .data.SDS2_REG16_RTL8380_FIELDS
                0x0000000083f77938       0x10 board/Realtek/rtl838x/librtl838x.o
                0x0000000083f77938                SDS2_REG16_RTL8380_FIELDS
 .data.SDS2_REG15_RTL8380_FIELDS
                0x0000000083f77948       0x10 board/Realtek/rtl838x/librtl838x.o
                0x0000000083f77948                SDS2_REG15_RTL8380_FIELDS
 .data.SDS2_REG14_RTL8380_FIELDS
                0x0000000083f77958       0x68 board/Realtek/rtl838x/librtl838x.o
                0x0000000083f77958                SDS2_REG14_RTL8380_FIELDS
 .data.SDS2_REG13_RTL8380_FIELDS
                0x0000000083f779c0       0x30 board/Realtek/rtl838x/librtl838x.o
                0x0000000083f779c0                SDS2_REG13_RTL8380_FIELDS
 .data.SDS2_REG12_RTL8380_FIELDS
                0x0000000083f779f0       0x38 board/Realtek/rtl838x/librtl838x.o
                0x0000000083f779f0                SDS2_REG12_RTL8380_FIELDS
 .data.SDS2_REG11_RTL8380_FIELDS
                0x0000000083f77a28       0x10 board/Realtek/rtl838x/librtl838x.o
                0x0000000083f77a28                SDS2_REG11_RTL8380_FIELDS
 .data.SDS2_REG10_RTL8380_FIELDS
                0x0000000083f77a38       0x50 board/Realtek/rtl838x/librtl838x.o
                0x0000000083f77a38                SDS2_REG10_RTL8380_FIELDS
 .data.SDS2_REG9_RTL8380_FIELDS
                0x0000000083f77a88       0x10 board/Realtek/rtl838x/librtl838x.o
                0x0000000083f77a88                SDS2_REG9_RTL8380_FIELDS
 .data.SDS2_REG8_RTL8380_FIELDS
                0x0000000083f77a98       0x48 board/Realtek/rtl838x/librtl838x.o
                0x0000000083f77a98                SDS2_REG8_RTL8380_FIELDS
 .data.SDS2_REG7_RTL8380_FIELDS
                0x0000000083f77ae0       0x58 board/Realtek/rtl838x/librtl838x.o
                0x0000000083f77ae0                SDS2_REG7_RTL8380_FIELDS
 .data.SDS2_REG6_RTL8380_FIELDS
                0x0000000083f77b38       0x40 board/Realtek/rtl838x/librtl838x.o
                0x0000000083f77b38                SDS2_REG6_RTL8380_FIELDS
 .data.SDS2_REG5_RTL8380_FIELDS
                0x0000000083f77b78       0x60 board/Realtek/rtl838x/librtl838x.o
                0x0000000083f77b78                SDS2_REG5_RTL8380_FIELDS
 .data.SDS2_REG4_RTL8380_FIELDS
                0x0000000083f77bd8       0x48 board/Realtek/rtl838x/librtl838x.o
                0x0000000083f77bd8                SDS2_REG4_RTL8380_FIELDS
 .data.SDS2_REG3_RTL8380_FIELDS
                0x0000000083f77c20       0x50 board/Realtek/rtl838x/librtl838x.o
                0x0000000083f77c20                SDS2_REG3_RTL8380_FIELDS
 .data.SDS2_REG2_RTL8380_FIELDS
                0x0000000083f77c70       0x48 board/Realtek/rtl838x/librtl838x.o
                0x0000000083f77c70                SDS2_REG2_RTL8380_FIELDS
 .data.SDS2_REG1_RTL8380_FIELDS
                0x0000000083f77cb8       0x50 board/Realtek/rtl838x/librtl838x.o
                0x0000000083f77cb8                SDS2_REG1_RTL8380_FIELDS
 .data.SDS2_REG0_RTL8380_FIELDS
                0x0000000083f77d08       0x78 board/Realtek/rtl838x/librtl838x.o
                0x0000000083f77d08                SDS2_REG0_RTL8380_FIELDS
 .data.SDS_DUMMY33_RTL8380_FIELDS
                0x0000000083f77d80        0x8 board/Realtek/rtl838x/librtl838x.o
                0x0000000083f77d80                SDS_DUMMY33_RTL8380_FIELDS
 .data.SDS1_FIB_EXT_REG30_RTL8380_FIELDS
                0x0000000083f77d88       0x10 board/Realtek/rtl838x/librtl838x.o
                0x0000000083f77d88                SDS1_FIB_EXT_REG30_RTL8380_FIELDS
 .data.SDS1_FIB_EXT_REG29_RTL8380_FIELDS
                0x0000000083f77d98       0x10 board/Realtek/rtl838x/librtl838x.o
                0x0000000083f77d98                SDS1_FIB_EXT_REG29_RTL8380_FIELDS
 .data.SDS1_FIB_EXT_REG28_RTL8380_FIELDS
                0x0000000083f77da8       0x10 board/Realtek/rtl838x/librtl838x.o
                0x0000000083f77da8                SDS1_FIB_EXT_REG28_RTL8380_FIELDS
 .data.SDS1_FIB_EXT_REG27_RTL8380_FIELDS
                0x0000000083f77db8       0x10 board/Realtek/rtl838x/librtl838x.o
                0x0000000083f77db8                SDS1_FIB_EXT_REG27_RTL8380_FIELDS
 .data.SDS1_FIB_EXT_REG26_RTL8380_FIELDS
                0x0000000083f77dc8       0x10 board/Realtek/rtl838x/librtl838x.o
                0x0000000083f77dc8                SDS1_FIB_EXT_REG26_RTL8380_FIELDS
 .data.SDS1_FIB_EXT_REG25_RTL8380_FIELDS
                0x0000000083f77dd8       0x10 board/Realtek/rtl838x/librtl838x.o
                0x0000000083f77dd8                SDS1_FIB_EXT_REG25_RTL8380_FIELDS
 .data.SDS1_FIB_EXT_REG24_RTL8380_FIELDS
                0x0000000083f77de8       0x10 board/Realtek/rtl838x/librtl838x.o
                0x0000000083f77de8                SDS1_FIB_EXT_REG24_RTL8380_FIELDS
 .data.SDS1_FIB_EXT_REG23_RTL8380_FIELDS
                0x0000000083f77df8       0x38 board/Realtek/rtl838x/librtl838x.o
                0x0000000083f77df8                SDS1_FIB_EXT_REG23_RTL8380_FIELDS
 .data.SDS1_FIB_EXT_REG22_RTL8380_FIELDS
                0x0000000083f77e30       0x30 board/Realtek/rtl838x/librtl838x.o
                0x0000000083f77e30                SDS1_FIB_EXT_REG22_RTL8380_FIELDS
 .data.SDS1_FIB_EXT_REG21_RTL8380_FIELDS
                0x0000000083f77e60       0x20 board/Realtek/rtl838x/librtl838x.o
                0x0000000083f77e60                SDS1_FIB_EXT_REG21_RTL8380_FIELDS
 .data.SDS1_FIB_EXT_REG20_RTL8380_FIELDS
                0x0000000083f77e80       0x38 board/Realtek/rtl838x/librtl838x.o
                0x0000000083f77e80                SDS1_FIB_EXT_REG20_RTL8380_FIELDS
 .data.SDS1_FIB_EXT_REG19_RTL8380_FIELDS
                0x0000000083f77eb8       0x48 board/Realtek/rtl838x/librtl838x.o
                0x0000000083f77eb8                SDS1_FIB_EXT_REG19_RTL8380_FIELDS
 .data.SDS1_FIB_EXT_REG18_RTL8380_FIELDS
                0x0000000083f77f00       0x28 board/Realtek/rtl838x/librtl838x.o
                0x0000000083f77f00                SDS1_FIB_EXT_REG18_RTL8380_FIELDS
 .data.SDS1_FIB_EXT_REG17_RTL8380_FIELDS
                0x0000000083f77f28       0x38 board/Realtek/rtl838x/librtl838x.o
                0x0000000083f77f28                SDS1_FIB_EXT_REG17_RTL8380_FIELDS
 .data.SDS1_FIB_EXT_REG16_RTL8380_FIELDS
                0x0000000083f77f60       0x88 board/Realtek/rtl838x/librtl838x.o
                0x0000000083f77f60                SDS1_FIB_EXT_REG16_RTL8380_FIELDS
 .data.SDS1_FIB_EXT_REG15_RTL8380_FIELDS
                0x0000000083f77fe8       0x10 board/Realtek/rtl838x/librtl838x.o
                0x0000000083f77fe8                SDS1_FIB_EXT_REG15_RTL8380_FIELDS
 .data.SDS1_FIB_EXT_REG14_RTL8380_FIELDS
                0x0000000083f77ff8       0x10 board/Realtek/rtl838x/librtl838x.o
                0x0000000083f77ff8                SDS1_FIB_EXT_REG14_RTL8380_FIELDS
 .data.SDS1_FIB_EXT_REG13_RTL8380_FIELDS
                0x0000000083f78008       0x20 board/Realtek/rtl838x/librtl838x.o
                0x0000000083f78008                SDS1_FIB_EXT_REG13_RTL8380_FIELDS
 .data.SDS1_FIB_EXT_REG12_RTL8380_FIELDS
                0x0000000083f78028       0x10 board/Realtek/rtl838x/librtl838x.o
                0x0000000083f78028                SDS1_FIB_EXT_REG12_RTL8380_FIELDS
 .data.SDS1_FIB_EXT_REG11_RTL8380_FIELDS
                0x0000000083f78038       0x10 board/Realtek/rtl838x/librtl838x.o
                0x0000000083f78038                SDS1_FIB_EXT_REG11_RTL8380_FIELDS
 .data.SDS1_FIB_EXT_REG10_RTL8380_FIELDS
                0x0000000083f78048       0x10 board/Realtek/rtl838x/librtl838x.o
                0x0000000083f78048                SDS1_FIB_EXT_REG10_RTL8380_FIELDS
 .data.SDS1_FIB_EXT_REG9_RTL8380_FIELDS
                0x0000000083f78058       0x10 board/Realtek/rtl838x/librtl838x.o
                0x0000000083f78058                SDS1_FIB_EXT_REG9_RTL8380_FIELDS
 .data.SDS1_FIB_EXT_REG8_RTL8380_FIELDS
                0x0000000083f78068       0x10 board/Realtek/rtl838x/librtl838x.o
                0x0000000083f78068                SDS1_FIB_EXT_REG8_RTL8380_FIELDS
 .data.SDS1_FIB_EXT_REG7_RTL8380_FIELDS
                0x0000000083f78078       0x10 board/Realtek/rtl838x/librtl838x.o
                0x0000000083f78078                SDS1_FIB_EXT_REG7_RTL8380_FIELDS
 .data.SDS1_FIB_EXT_REG6_RTL8380_FIELDS
                0x0000000083f78088       0x28 board/Realtek/rtl838x/librtl838x.o
                0x0000000083f78088                SDS1_FIB_EXT_REG6_RTL8380_FIELDS
 .data.SDS1_FIB_EXT_REG5_RTL8380_FIELDS
                0x0000000083f780b0       0x10 board/Realtek/rtl838x/librtl838x.o
                0x0000000083f780b0                SDS1_FIB_EXT_REG5_RTL8380_FIELDS
 .data.SDS1_FIB_EXT_REG4_RTL8380_FIELDS
                0x0000000083f780c0       0x10 board/Realtek/rtl838x/librtl838x.o
                0x0000000083f780c0                SDS1_FIB_EXT_REG4_RTL8380_FIELDS
 .data.SDS1_FIB_EXT_REG3_RTL8380_FIELDS
                0x0000000083f780d0       0x20 board/Realtek/rtl838x/librtl838x.o
                0x0000000083f780d0                SDS1_FIB_EXT_REG3_RTL8380_FIELDS
 .data.SDS1_FIB_EXT_REG2_RTL8380_FIELDS
                0x0000000083f780f0       0x10 board/Realtek/rtl838x/librtl838x.o
                0x0000000083f780f0                SDS1_FIB_EXT_REG2_RTL8380_FIELDS
 .data.SDS1_FIB_EXT_REG1_RTL8380_FIELDS
                0x0000000083f78100       0x40 board/Realtek/rtl838x/librtl838x.o
                0x0000000083f78100                SDS1_FIB_EXT_REG1_RTL8380_FIELDS
 .data.SDS1_FIB_EXT_REG0_RTL8380_FIELDS
                0x0000000083f78140       0x68 board/Realtek/rtl838x/librtl838x.o
                0x0000000083f78140                SDS1_FIB_EXT_REG0_RTL8380_FIELDS
 .data.SDS1_FIB_REG31_NONE_RTL8380_FIELDS
                0x0000000083f781a8       0x10 board/Realtek/rtl838x/librtl838x.o
                0x0000000083f781a8                SDS1_FIB_REG31_NONE_RTL8380_FIELDS
 .data.SDS1_FIB_REG30_NONE_RTL8380_FIELDS
                0x0000000083f781b8       0x10 board/Realtek/rtl838x/librtl838x.o
                0x0000000083f781b8                SDS1_FIB_REG30_NONE_RTL8380_FIELDS
 .data.SDS1_FIB_REG29_NONE_RTL8380_FIELDS
                0x0000000083f781c8       0x10 board/Realtek/rtl838x/librtl838x.o
                0x0000000083f781c8                SDS1_FIB_REG29_NONE_RTL8380_FIELDS
 .data.SDS1_FIB_REG28_NONE_RTL8380_FIELDS
                0x0000000083f781d8       0x10 board/Realtek/rtl838x/librtl838x.o
                0x0000000083f781d8                SDS1_FIB_REG28_NONE_RTL8380_FIELDS
 .data.SDS1_FIB_REG27_NONE_RTL8380_FIELDS
                0x0000000083f781e8       0x10 board/Realtek/rtl838x/librtl838x.o
                0x0000000083f781e8                SDS1_FIB_REG27_NONE_RTL8380_FIELDS
 .data.SDS1_FIB_REG26_NONE_RTL8380_FIELDS
                0x0000000083f781f8       0x10 board/Realtek/rtl838x/librtl838x.o
                0x0000000083f781f8                SDS1_FIB_REG26_NONE_RTL8380_FIELDS
 .data.SDS1_FIB_REG25_NONE_RTL8380_FIELDS
                0x0000000083f78208       0x10 board/Realtek/rtl838x/librtl838x.o
                0x0000000083f78208                SDS1_FIB_REG25_NONE_RTL8380_FIELDS
 .data.SDS1_FIB_REG24_NONE_RTL8380_FIELDS
                0x0000000083f78218       0x10 board/Realtek/rtl838x/librtl838x.o
                0x0000000083f78218                SDS1_FIB_REG24_NONE_RTL8380_FIELDS
 .data.SDS1_FIB_REG23_NONE_RTL8380_FIELDS
                0x0000000083f78228       0x10 board/Realtek/rtl838x/librtl838x.o
                0x0000000083f78228                SDS1_FIB_REG23_NONE_RTL8380_FIELDS
 .data.SDS1_FIB_REG22_NONE_RTL8380_FIELDS
                0x0000000083f78238       0x10 board/Realtek/rtl838x/librtl838x.o
                0x0000000083f78238                SDS1_FIB_REG22_NONE_RTL8380_FIELDS
 .data.SDS1_FIB_REG21_NONE_RTL8380_FIELDS
                0x0000000083f78248       0x10 board/Realtek/rtl838x/librtl838x.o
                0x0000000083f78248                SDS1_FIB_REG21_NONE_RTL8380_FIELDS
 .data.SDS1_FIB_REG20_NONE_RTL8380_FIELDS
                0x0000000083f78258       0x10 board/Realtek/rtl838x/librtl838x.o
                0x0000000083f78258                SDS1_FIB_REG20_NONE_RTL8380_FIELDS
 .data.SDS1_FIB_REG19_NONE_RTL8380_FIELDS
                0x0000000083f78268       0x10 board/Realtek/rtl838x/librtl838x.o
                0x0000000083f78268                SDS1_FIB_REG19_NONE_RTL8380_FIELDS
 .data.SDS1_FIB_REG18_NONE_RTL8380_FIELDS
                0x0000000083f78278       0x10 board/Realtek/rtl838x/librtl838x.o
                0x0000000083f78278                SDS1_FIB_REG18_NONE_RTL8380_FIELDS
 .data.SDS1_FIB_REG17_NONE_RTL8380_FIELDS
                0x0000000083f78288       0x10 board/Realtek/rtl838x/librtl838x.o
                0x0000000083f78288                SDS1_FIB_REG17_NONE_RTL8380_FIELDS
 .data.SDS1_FIB_REG16_NONE_RTL8380_FIELDS
                0x0000000083f78298       0x10 board/Realtek/rtl838x/librtl838x.o
                0x0000000083f78298                SDS1_FIB_REG16_NONE_RTL8380_FIELDS
 .data.SDS1_FIB_REG15_NONE_RTL8380_FIELDS
                0x0000000083f782a8       0x10 board/Realtek/rtl838x/librtl838x.o
                0x0000000083f782a8                SDS1_FIB_REG15_NONE_RTL8380_FIELDS
 .data.SDS1_FIB_REG14_NONE_RTL8380_FIELDS
                0x0000000083f782b8       0x10 board/Realtek/rtl838x/librtl838x.o
                0x0000000083f782b8                SDS1_FIB_REG14_NONE_RTL8380_FIELDS
 .data.SDS1_FIB_REG13_NONE_RTL8380_FIELDS
                0x0000000083f782c8       0x10 board/Realtek/rtl838x/librtl838x.o
                0x0000000083f782c8                SDS1_FIB_REG13_NONE_RTL8380_FIELDS
 .data.SDS1_FIB_REG12_NONE_RTL8380_FIELDS
                0x0000000083f782d8       0x10 board/Realtek/rtl838x/librtl838x.o
                0x0000000083f782d8                SDS1_FIB_REG12_NONE_RTL8380_FIELDS
 .data.SDS1_FIB_REG11_NONE_RTL8380_FIELDS
                0x0000000083f782e8       0x10 board/Realtek/rtl838x/librtl838x.o
                0x0000000083f782e8                SDS1_FIB_REG11_NONE_RTL8380_FIELDS
 .data.SDS1_FIB_REG10_NONE_RTL8380_FIELDS
                0x0000000083f782f8       0x10 board/Realtek/rtl838x/librtl838x.o
                0x0000000083f782f8                SDS1_FIB_REG10_NONE_RTL8380_FIELDS
 .data.SDS1_FIB_REG9_NONE_RTL8380_FIELDS
                0x0000000083f78308       0x10 board/Realtek/rtl838x/librtl838x.o
                0x0000000083f78308                SDS1_FIB_REG9_NONE_RTL8380_FIELDS
 .data.SDS1_FIB_REG8_NONE_RTL8380_FIELDS
                0x0000000083f78318       0x10 board/Realtek/rtl838x/librtl838x.o
                0x0000000083f78318                SDS1_FIB_REG8_NONE_RTL8380_FIELDS
 .data.SDS1_FIB_REG7_NONE_RTL8380_FIELDS
                0x0000000083f78328       0x10 board/Realtek/rtl838x/librtl838x.o
                0x0000000083f78328                SDS1_FIB_REG7_NONE_RTL8380_FIELDS
 .data.SDS1_FIB_REG6_NONE_RTL8380_FIELDS
                0x0000000083f78338       0x10 board/Realtek/rtl838x/librtl838x.o
                0x0000000083f78338                SDS1_FIB_REG6_NONE_RTL8380_FIELDS
 .data.SDS1_FIB_REG5_NONE_RTL8380_FIELDS
                0x0000000083f78348       0x10 board/Realtek/rtl838x/librtl838x.o
                0x0000000083f78348                SDS1_FIB_REG5_NONE_RTL8380_FIELDS
 .data.SDS1_FIB_REG4_NONE_RTL8380_FIELDS
                0x0000000083f78358       0x10 board/Realtek/rtl838x/librtl838x.o
                0x0000000083f78358                SDS1_FIB_REG4_NONE_RTL8380_FIELDS
 .data.SDS1_FIB_REG3_NONE_RTL8380_FIELDS
                0x0000000083f78368       0x10 board/Realtek/rtl838x/librtl838x.o
                0x0000000083f78368                SDS1_FIB_REG3_NONE_RTL8380_FIELDS
 .data.SDS1_FIB_REG2_NONE_RTL8380_FIELDS
                0x0000000083f78378       0x10 board/Realtek/rtl838x/librtl838x.o
                0x0000000083f78378                SDS1_FIB_REG2_NONE_RTL8380_FIELDS
 .data.SDS1_FIB_REG1_NONE_RTL8380_FIELDS
                0x0000000083f78388       0x10 board/Realtek/rtl838x/librtl838x.o
                0x0000000083f78388                SDS1_FIB_REG1_NONE_RTL8380_FIELDS
 .data.SDS1_FIB_REG0_NONE_RTL8380_FIELDS
                0x0000000083f78398       0x10 board/Realtek/rtl838x/librtl838x.o
                0x0000000083f78398                SDS1_FIB_REG0_NONE_RTL8380_FIELDS
 .data.SDS1_EXT_REG31_NONE_RTL8380_FIELDS
                0x0000000083f783a8       0x10 board/Realtek/rtl838x/librtl838x.o
                0x0000000083f783a8                SDS1_EXT_REG31_NONE_RTL8380_FIELDS
 .data.SDS1_EXT_REG30_NONE_RTL8380_FIELDS
                0x0000000083f783b8       0x10 board/Realtek/rtl838x/librtl838x.o
                0x0000000083f783b8                SDS1_EXT_REG30_NONE_RTL8380_FIELDS
 .data.SDS1_EXT_REG29_NONE_RTL8380_FIELDS
                0x0000000083f783c8       0x10 board/Realtek/rtl838x/librtl838x.o
                0x0000000083f783c8                SDS1_EXT_REG29_NONE_RTL8380_FIELDS
 .data.SDS1_EXT_REG28_NONE_RTL8380_FIELDS
                0x0000000083f783d8       0x10 board/Realtek/rtl838x/librtl838x.o
                0x0000000083f783d8                SDS1_EXT_REG28_NONE_RTL8380_FIELDS
 .data.SDS1_EXT_REG27_NONE_RTL8380_FIELDS
                0x0000000083f783e8       0x10 board/Realtek/rtl838x/librtl838x.o
                0x0000000083f783e8                SDS1_EXT_REG27_NONE_RTL8380_FIELDS
 .data.SDS1_EXT_REG26_NONE_RTL8380_FIELDS
                0x0000000083f783f8       0x10 board/Realtek/rtl838x/librtl838x.o
                0x0000000083f783f8                SDS1_EXT_REG26_NONE_RTL8380_FIELDS
 .data.SDS1_EXT_REG25_NONE_RTL8380_FIELDS
                0x0000000083f78408       0x10 board/Realtek/rtl838x/librtl838x.o
                0x0000000083f78408                SDS1_EXT_REG25_NONE_RTL8380_FIELDS
 .data.SDS1_EXT_REG24_NONE_RTL8380_FIELDS
                0x0000000083f78418       0x10 board/Realtek/rtl838x/librtl838x.o
                0x0000000083f78418                SDS1_EXT_REG24_NONE_RTL8380_FIELDS
 .data.SDS1_EXT_REG23_NONE_RTL8380_FIELDS
                0x0000000083f78428       0x10 board/Realtek/rtl838x/librtl838x.o
                0x0000000083f78428                SDS1_EXT_REG23_NONE_RTL8380_FIELDS
 .data.SDS1_EXT_REG22_NONE_RTL8380_FIELDS
                0x0000000083f78438       0x10 board/Realtek/rtl838x/librtl838x.o
                0x0000000083f78438                SDS1_EXT_REG22_NONE_RTL8380_FIELDS
 .data.SDS1_EXT_REG21_NONE_RTL8380_FIELDS
                0x0000000083f78448       0x10 board/Realtek/rtl838x/librtl838x.o
                0x0000000083f78448                SDS1_EXT_REG21_NONE_RTL8380_FIELDS
 .data.SDS1_EXT_REG20_NONE_RTL8380_FIELDS
                0x0000000083f78458       0x10 board/Realtek/rtl838x/librtl838x.o
                0x0000000083f78458                SDS1_EXT_REG20_NONE_RTL8380_FIELDS
 .data.SDS1_EXT_REG19_NONE_RTL8380_FIELDS
                0x0000000083f78468       0x10 board/Realtek/rtl838x/librtl838x.o
                0x0000000083f78468                SDS1_EXT_REG19_NONE_RTL8380_FIELDS
 .data.SDS1_EXT_REG18_NONE_RTL8380_FIELDS
                0x0000000083f78478       0x10 board/Realtek/rtl838x/librtl838x.o
                0x0000000083f78478                SDS1_EXT_REG18_NONE_RTL8380_FIELDS
 .data.SDS1_EXT_REG17_NONE_RTL8380_FIELDS
                0x0000000083f78488       0x10 board/Realtek/rtl838x/librtl838x.o
                0x0000000083f78488                SDS1_EXT_REG17_NONE_RTL8380_FIELDS
 .data.SDS1_EXT_REG16_NONE_RTL8380_FIELDS
                0x0000000083f78498       0x10 board/Realtek/rtl838x/librtl838x.o
                0x0000000083f78498                SDS1_EXT_REG16_NONE_RTL8380_FIELDS
 .data.SDS1_EXT_REG15_NONE_RTL8380_FIELDS
                0x0000000083f784a8       0x10 board/Realtek/rtl838x/librtl838x.o
                0x0000000083f784a8                SDS1_EXT_REG15_NONE_RTL8380_FIELDS
 .data.SDS1_EXT_REG14_NONE_RTL8380_FIELDS
                0x0000000083f784b8       0x10 board/Realtek/rtl838x/librtl838x.o
                0x0000000083f784b8                SDS1_EXT_REG14_NONE_RTL8380_FIELDS
 .data.SDS1_EXT_REG13_NONE_RTL8380_FIELDS
                0x0000000083f784c8       0x10 board/Realtek/rtl838x/librtl838x.o
                0x0000000083f784c8                SDS1_EXT_REG13_NONE_RTL8380_FIELDS
 .data.SDS1_EXT_REG12_NONE_RTL8380_FIELDS
                0x0000000083f784d8       0x10 board/Realtek/rtl838x/librtl838x.o
                0x0000000083f784d8                SDS1_EXT_REG12_NONE_RTL8380_FIELDS
 .data.SDS1_EXT_REG11_NONE_RTL8380_FIELDS
                0x0000000083f784e8       0x10 board/Realtek/rtl838x/librtl838x.o
                0x0000000083f784e8                SDS1_EXT_REG11_NONE_RTL8380_FIELDS
 .data.SDS1_EXT_REG10_NONE_RTL8380_FIELDS
                0x0000000083f784f8       0x10 board/Realtek/rtl838x/librtl838x.o
                0x0000000083f784f8                SDS1_EXT_REG10_NONE_RTL8380_FIELDS
 .data.SDS1_EXT_REG9_NONE_RTL8380_FIELDS
                0x0000000083f78508       0x10 board/Realtek/rtl838x/librtl838x.o
                0x0000000083f78508                SDS1_EXT_REG9_NONE_RTL8380_FIELDS
 .data.SDS1_EXT_REG8_NONE_RTL8380_FIELDS
                0x0000000083f78518       0x10 board/Realtek/rtl838x/librtl838x.o
                0x0000000083f78518                SDS1_EXT_REG8_NONE_RTL8380_FIELDS
 .data.SDS1_EXT_REG7_NONE_RTL8380_FIELDS
                0x0000000083f78528       0x10 board/Realtek/rtl838x/librtl838x.o
                0x0000000083f78528                SDS1_EXT_REG7_NONE_RTL8380_FIELDS
 .data.SDS1_EXT_REG6_NONE_RTL8380_FIELDS
                0x0000000083f78538       0x10 board/Realtek/rtl838x/librtl838x.o
                0x0000000083f78538                SDS1_EXT_REG6_NONE_RTL8380_FIELDS
 .data.SDS1_EXT_REG5_NONE_RTL8380_FIELDS
                0x0000000083f78548       0x10 board/Realtek/rtl838x/librtl838x.o
                0x0000000083f78548                SDS1_EXT_REG5_NONE_RTL8380_FIELDS
 .data.SDS1_EXT_REG4_NONE_RTL8380_FIELDS
                0x0000000083f78558       0x10 board/Realtek/rtl838x/librtl838x.o
                0x0000000083f78558                SDS1_EXT_REG4_NONE_RTL8380_FIELDS
 .data.SDS1_EXT_REG3_NONE_RTL8380_FIELDS
                0x0000000083f78568       0x10 board/Realtek/rtl838x/librtl838x.o
                0x0000000083f78568                SDS1_EXT_REG3_NONE_RTL8380_FIELDS
 .data.SDS1_EXT_REG2_NONE_RTL8380_FIELDS
                0x0000000083f78578       0x10 board/Realtek/rtl838x/librtl838x.o
                0x0000000083f78578                SDS1_EXT_REG2_NONE_RTL8380_FIELDS
 .data.SDS1_EXT_REG1_NONE_RTL8380_FIELDS
                0x0000000083f78588       0x10 board/Realtek/rtl838x/librtl838x.o
                0x0000000083f78588                SDS1_EXT_REG1_NONE_RTL8380_FIELDS
 .data.SDS1_EXT_REG0_NONE_RTL8380_FIELDS
                0x0000000083f78598       0x10 board/Realtek/rtl838x/librtl838x.o
                0x0000000083f78598                SDS1_EXT_REG0_NONE_RTL8380_FIELDS
 .data.SDS_DUMMY17_RTL8380_FIELDS
                0x0000000083f785a8        0x8 board/Realtek/rtl838x/librtl838x.o
                0x0000000083f785a8                SDS_DUMMY17_RTL8380_FIELDS
 .data.SDS1_REG30_RTL8380_FIELDS
                0x0000000083f785b0       0x10 board/Realtek/rtl838x/librtl838x.o
                0x0000000083f785b0                SDS1_REG30_RTL8380_FIELDS
 .data.SDS1_REG29_RTL8380_FIELDS
                0x0000000083f785c0       0x10 board/Realtek/rtl838x/librtl838x.o
                0x0000000083f785c0                SDS1_REG29_RTL8380_FIELDS
 .data.SDS1_REG28_RTL8380_FIELDS
                0x0000000083f785d0       0x40 board/Realtek/rtl838x/librtl838x.o
                0x0000000083f785d0                SDS1_REG28_RTL8380_FIELDS
 .data.SDS1_REG27_RTL8380_FIELDS
                0x0000000083f78610       0x10 board/Realtek/rtl838x/librtl838x.o
                0x0000000083f78610                SDS1_REG27_RTL8380_FIELDS
 .data.SDS1_REG26_RTL8380_FIELDS
                0x0000000083f78620       0x18 board/Realtek/rtl838x/librtl838x.o
                0x0000000083f78620                SDS1_REG26_RTL8380_FIELDS
 .data.SDS1_REG25_RTL8380_FIELDS
                0x0000000083f78638       0x10 board/Realtek/rtl838x/librtl838x.o
                0x0000000083f78638                SDS1_REG25_RTL8380_FIELDS
 .data.SDS1_REG24_RTL8380_FIELDS
                0x0000000083f78648       0x10 board/Realtek/rtl838x/librtl838x.o
                0x0000000083f78648                SDS1_REG24_RTL8380_FIELDS
 .data.SDS1_REG23_RTL8380_FIELDS
                0x0000000083f78658       0x10 board/Realtek/rtl838x/librtl838x.o
                0x0000000083f78658                SDS1_REG23_RTL8380_FIELDS
 .data.SDS1_REG22_RTL8380_FIELDS
                0x0000000083f78668       0x10 board/Realtek/rtl838x/librtl838x.o
                0x0000000083f78668                SDS1_REG22_RTL8380_FIELDS
 .data.SDS1_REG21_RTL8380_FIELDS
                0x0000000083f78678       0x10 board/Realtek/rtl838x/librtl838x.o
                0x0000000083f78678                SDS1_REG21_RTL8380_FIELDS
 .data.SDS1_REG20_RTL8380_FIELDS
                0x0000000083f78688       0x10 board/Realtek/rtl838x/librtl838x.o
                0x0000000083f78688                SDS1_REG20_RTL8380_FIELDS
 .data.SDS1_REG19_RTL8380_FIELDS
                0x0000000083f78698       0x10 board/Realtek/rtl838x/librtl838x.o
                0x0000000083f78698                SDS1_REG19_RTL8380_FIELDS
 .data.SDS1_REG18_RTL8380_FIELDS
                0x0000000083f786a8       0x10 board/Realtek/rtl838x/librtl838x.o
                0x0000000083f786a8                SDS1_REG18_RTL8380_FIELDS
 .data.SDS1_REG17_RTL8380_FIELDS
                0x0000000083f786b8       0x20 board/Realtek/rtl838x/librtl838x.o
                0x0000000083f786b8                SDS1_REG17_RTL8380_FIELDS
 .data.SDS1_REG16_RTL8380_FIELDS
                0x0000000083f786d8       0x10 board/Realtek/rtl838x/librtl838x.o
                0x0000000083f786d8                SDS1_REG16_RTL8380_FIELDS
 .data.SDS1_REG15_RTL8380_FIELDS
                0x0000000083f786e8       0x10 board/Realtek/rtl838x/librtl838x.o
                0x0000000083f786e8                SDS1_REG15_RTL8380_FIELDS
 .data.SDS1_REG14_RTL8380_FIELDS
                0x0000000083f786f8       0x68 board/Realtek/rtl838x/librtl838x.o
                0x0000000083f786f8                SDS1_REG14_RTL8380_FIELDS
 .data.SDS1_REG13_RTL8380_FIELDS
                0x0000000083f78760       0x30 board/Realtek/rtl838x/librtl838x.o
                0x0000000083f78760                SDS1_REG13_RTL8380_FIELDS
 .data.SDS1_REG12_RTL8380_FIELDS
                0x0000000083f78790       0x38 board/Realtek/rtl838x/librtl838x.o
                0x0000000083f78790                SDS1_REG12_RTL8380_FIELDS
 .data.SDS1_REG11_RTL8380_FIELDS
                0x0000000083f787c8       0x10 board/Realtek/rtl838x/librtl838x.o
                0x0000000083f787c8                SDS1_REG11_RTL8380_FIELDS
 .data.SDS1_REG10_RTL8380_FIELDS
                0x0000000083f787d8       0x50 board/Realtek/rtl838x/librtl838x.o
                0x0000000083f787d8                SDS1_REG10_RTL8380_FIELDS
 .data.SDS1_REG9_RTL8380_FIELDS
                0x0000000083f78828       0x10 board/Realtek/rtl838x/librtl838x.o
                0x0000000083f78828                SDS1_REG9_RTL8380_FIELDS
 .data.SDS1_REG8_RTL8380_FIELDS
                0x0000000083f78838       0x48 board/Realtek/rtl838x/librtl838x.o
                0x0000000083f78838                SDS1_REG8_RTL8380_FIELDS
 .data.SDS1_REG7_RTL8380_FIELDS
                0x0000000083f78880       0x58 board/Realtek/rtl838x/librtl838x.o
                0x0000000083f78880                SDS1_REG7_RTL8380_FIELDS
 .data.SDS1_REG6_RTL8380_FIELDS
                0x0000000083f788d8       0x40 board/Realtek/rtl838x/librtl838x.o
                0x0000000083f788d8                SDS1_REG6_RTL8380_FIELDS
 .data.SDS1_REG5_RTL8380_FIELDS
                0x0000000083f78918       0x60 board/Realtek/rtl838x/librtl838x.o
                0x0000000083f78918                SDS1_REG5_RTL8380_FIELDS
 .data.SDS1_REG4_RTL8380_FIELDS
                0x0000000083f78978       0x48 board/Realtek/rtl838x/librtl838x.o
                0x0000000083f78978                SDS1_REG4_RTL8380_FIELDS
 .data.SDS1_REG3_RTL8380_FIELDS
                0x0000000083f789c0       0x50 board/Realtek/rtl838x/librtl838x.o
                0x0000000083f789c0                SDS1_REG3_RTL8380_FIELDS
 .data.SDS1_REG2_RTL8380_FIELDS
                0x0000000083f78a10       0x48 board/Realtek/rtl838x/librtl838x.o
                0x0000000083f78a10                SDS1_REG2_RTL8380_FIELDS
 .data.SDS1_REG1_RTL8380_FIELDS
                0x0000000083f78a58       0x50 board/Realtek/rtl838x/librtl838x.o
                0x0000000083f78a58                SDS1_REG1_RTL8380_FIELDS
 .data.SDS1_REG0_RTL8380_FIELDS
                0x0000000083f78aa8       0x78 board/Realtek/rtl838x/librtl838x.o
                0x0000000083f78aa8                SDS1_REG0_RTL8380_FIELDS
 .data.SDS_DUMMY16_RTL8380_FIELDS
                0x0000000083f78b20        0x8 board/Realtek/rtl838x/librtl838x.o
                0x0000000083f78b20                SDS_DUMMY16_RTL8380_FIELDS
 .data.SDS0_FIB_EXT_REG30_RTL8380_FIELDS
                0x0000000083f78b28       0x10 board/Realtek/rtl838x/librtl838x.o
                0x0000000083f78b28                SDS0_FIB_EXT_REG30_RTL8380_FIELDS
 .data.SDS0_FIB_EXT_REG29_RTL8380_FIELDS
                0x0000000083f78b38       0x10 board/Realtek/rtl838x/librtl838x.o
                0x0000000083f78b38                SDS0_FIB_EXT_REG29_RTL8380_FIELDS
 .data.SDS0_FIB_EXT_REG28_RTL8380_FIELDS
                0x0000000083f78b48       0x10 board/Realtek/rtl838x/librtl838x.o
                0x0000000083f78b48                SDS0_FIB_EXT_REG28_RTL8380_FIELDS
 .data.SDS0_FIB_EXT_REG27_RTL8380_FIELDS
                0x0000000083f78b58       0x10 board/Realtek/rtl838x/librtl838x.o
                0x0000000083f78b58                SDS0_FIB_EXT_REG27_RTL8380_FIELDS
 .data.SDS0_FIB_EXT_REG26_RTL8380_FIELDS
                0x0000000083f78b68       0x10 board/Realtek/rtl838x/librtl838x.o
                0x0000000083f78b68                SDS0_FIB_EXT_REG26_RTL8380_FIELDS
 .data.SDS0_FIB_EXT_REG25_RTL8380_FIELDS
                0x0000000083f78b78       0x10 board/Realtek/rtl838x/librtl838x.o
                0x0000000083f78b78                SDS0_FIB_EXT_REG25_RTL8380_FIELDS
 .data.SDS0_FIB_EXT_REG24_RTL8380_FIELDS
                0x0000000083f78b88       0x10 board/Realtek/rtl838x/librtl838x.o
                0x0000000083f78b88                SDS0_FIB_EXT_REG24_RTL8380_FIELDS
 .data.SDS0_FIB_EXT_REG23_RTL8380_FIELDS
                0x0000000083f78b98       0x38 board/Realtek/rtl838x/librtl838x.o
                0x0000000083f78b98                SDS0_FIB_EXT_REG23_RTL8380_FIELDS
 .data.SDS0_FIB_EXT_REG22_RTL8380_FIELDS
                0x0000000083f78bd0       0x30 board/Realtek/rtl838x/librtl838x.o
                0x0000000083f78bd0                SDS0_FIB_EXT_REG22_RTL8380_FIELDS
 .data.SDS0_FIB_EXT_REG21_RTL8380_FIELDS
                0x0000000083f78c00       0x20 board/Realtek/rtl838x/librtl838x.o
                0x0000000083f78c00                SDS0_FIB_EXT_REG21_RTL8380_FIELDS
 .data.SDS0_FIB_EXT_REG20_RTL8380_FIELDS
                0x0000000083f78c20       0x38 board/Realtek/rtl838x/librtl838x.o
                0x0000000083f78c20                SDS0_FIB_EXT_REG20_RTL8380_FIELDS
 .data.SDS0_FIB_EXT_REG19_RTL8380_FIELDS
                0x0000000083f78c58       0x48 board/Realtek/rtl838x/librtl838x.o
                0x0000000083f78c58                SDS0_FIB_EXT_REG19_RTL8380_FIELDS
 .data.SDS0_FIB_EXT_REG18_RTL8380_FIELDS
                0x0000000083f78ca0       0x28 board/Realtek/rtl838x/librtl838x.o
                0x0000000083f78ca0                SDS0_FIB_EXT_REG18_RTL8380_FIELDS
 .data.SDS0_FIB_EXT_REG17_RTL8380_FIELDS
                0x0000000083f78cc8       0x38 board/Realtek/rtl838x/librtl838x.o
                0x0000000083f78cc8                SDS0_FIB_EXT_REG17_RTL8380_FIELDS
 .data.SDS0_FIB_EXT_REG16_RTL8380_FIELDS
                0x0000000083f78d00       0x88 board/Realtek/rtl838x/librtl838x.o
                0x0000000083f78d00                SDS0_FIB_EXT_REG16_RTL8380_FIELDS
 .data.SDS0_FIB_EXT_REG15_RTL8380_FIELDS
                0x0000000083f78d88       0x10 board/Realtek/rtl838x/librtl838x.o
                0x0000000083f78d88                SDS0_FIB_EXT_REG15_RTL8380_FIELDS
 .data.SDS0_FIB_EXT_REG14_RTL8380_FIELDS
                0x0000000083f78d98       0x10 board/Realtek/rtl838x/librtl838x.o
                0x0000000083f78d98                SDS0_FIB_EXT_REG14_RTL8380_FIELDS
 .data.SDS0_FIB_EXT_REG13_RTL8380_FIELDS
                0x0000000083f78da8       0x20 board/Realtek/rtl838x/librtl838x.o
                0x0000000083f78da8                SDS0_FIB_EXT_REG13_RTL8380_FIELDS
 .data.SDS0_FIB_EXT_REG12_RTL8380_FIELDS
                0x0000000083f78dc8       0x10 board/Realtek/rtl838x/librtl838x.o
                0x0000000083f78dc8                SDS0_FIB_EXT_REG12_RTL8380_FIELDS
 .data.SDS0_FIB_EXT_REG11_RTL8380_FIELDS
                0x0000000083f78dd8       0x10 board/Realtek/rtl838x/librtl838x.o
                0x0000000083f78dd8                SDS0_FIB_EXT_REG11_RTL8380_FIELDS
 .data.SDS0_FIB_EXT_REG10_RTL8380_FIELDS
                0x0000000083f78de8       0x10 board/Realtek/rtl838x/librtl838x.o
                0x0000000083f78de8                SDS0_FIB_EXT_REG10_RTL8380_FIELDS
 .data.SDS0_FIB_EXT_REG9_RTL8380_FIELDS
                0x0000000083f78df8       0x10 board/Realtek/rtl838x/librtl838x.o
                0x0000000083f78df8                SDS0_FIB_EXT_REG9_RTL8380_FIELDS
 .data.SDS0_FIB_EXT_REG8_RTL8380_FIELDS
                0x0000000083f78e08       0x10 board/Realtek/rtl838x/librtl838x.o
                0x0000000083f78e08                SDS0_FIB_EXT_REG8_RTL8380_FIELDS
 .data.SDS0_FIB_EXT_REG7_RTL8380_FIELDS
                0x0000000083f78e18       0x10 board/Realtek/rtl838x/librtl838x.o
                0x0000000083f78e18                SDS0_FIB_EXT_REG7_RTL8380_FIELDS
 .data.SDS0_FIB_EXT_REG6_RTL8380_FIELDS
                0x0000000083f78e28       0x28 board/Realtek/rtl838x/librtl838x.o
                0x0000000083f78e28                SDS0_FIB_EXT_REG6_RTL8380_FIELDS
 .data.SDS0_FIB_EXT_REG5_RTL8380_FIELDS
                0x0000000083f78e50       0x10 board/Realtek/rtl838x/librtl838x.o
                0x0000000083f78e50                SDS0_FIB_EXT_REG5_RTL8380_FIELDS
 .data.SDS0_FIB_EXT_REG4_RTL8380_FIELDS
                0x0000000083f78e60       0x10 board/Realtek/rtl838x/librtl838x.o
                0x0000000083f78e60                SDS0_FIB_EXT_REG4_RTL8380_FIELDS
 .data.SDS0_FIB_EXT_REG3_RTL8380_FIELDS
                0x0000000083f78e70       0x20 board/Realtek/rtl838x/librtl838x.o
                0x0000000083f78e70                SDS0_FIB_EXT_REG3_RTL8380_FIELDS
 .data.SDS0_FIB_EXT_REG2_RTL8380_FIELDS
                0x0000000083f78e90       0x10 board/Realtek/rtl838x/librtl838x.o
                0x0000000083f78e90                SDS0_FIB_EXT_REG2_RTL8380_FIELDS
 .data.SDS0_FIB_EXT_REG1_RTL8380_FIELDS
                0x0000000083f78ea0       0x40 board/Realtek/rtl838x/librtl838x.o
                0x0000000083f78ea0                SDS0_FIB_EXT_REG1_RTL8380_FIELDS
 .data.SDS0_FIB_EXT_REG0_RTL8380_FIELDS
                0x0000000083f78ee0       0x68 board/Realtek/rtl838x/librtl838x.o
                0x0000000083f78ee0                SDS0_FIB_EXT_REG0_RTL8380_FIELDS
 .data.SDS0_FIB_REG31_NONE_RTL8380_FIELDS
                0x0000000083f78f48       0x10 board/Realtek/rtl838x/librtl838x.o
                0x0000000083f78f48                SDS0_FIB_REG31_NONE_RTL8380_FIELDS
 .data.SDS0_FIB_REG30_NONE_RTL8380_FIELDS
                0x0000000083f78f58       0x10 board/Realtek/rtl838x/librtl838x.o
                0x0000000083f78f58                SDS0_FIB_REG30_NONE_RTL8380_FIELDS
 .data.SDS0_FIB_REG29_NONE_RTL8380_FIELDS
                0x0000000083f78f68       0x10 board/Realtek/rtl838x/librtl838x.o
                0x0000000083f78f68                SDS0_FIB_REG29_NONE_RTL8380_FIELDS
 .data.SDS0_FIB_REG28_NONE_RTL8380_FIELDS
                0x0000000083f78f78       0x10 board/Realtek/rtl838x/librtl838x.o
                0x0000000083f78f78                SDS0_FIB_REG28_NONE_RTL8380_FIELDS
 .data.SDS0_FIB_REG27_NONE_RTL8380_FIELDS
                0x0000000083f78f88       0x10 board/Realtek/rtl838x/librtl838x.o
                0x0000000083f78f88                SDS0_FIB_REG27_NONE_RTL8380_FIELDS
 .data.SDS0_FIB_REG26_NONE_RTL8380_FIELDS
                0x0000000083f78f98       0x10 board/Realtek/rtl838x/librtl838x.o
                0x0000000083f78f98                SDS0_FIB_REG26_NONE_RTL8380_FIELDS
 .data.SDS0_FIB_REG25_NONE_RTL8380_FIELDS
                0x0000000083f78fa8       0x10 board/Realtek/rtl838x/librtl838x.o
                0x0000000083f78fa8                SDS0_FIB_REG25_NONE_RTL8380_FIELDS
 .data.SDS0_FIB_REG24_NONE_RTL8380_FIELDS
                0x0000000083f78fb8       0x10 board/Realtek/rtl838x/librtl838x.o
                0x0000000083f78fb8                SDS0_FIB_REG24_NONE_RTL8380_FIELDS
 .data.SDS0_FIB_REG23_NONE_RTL8380_FIELDS
                0x0000000083f78fc8       0x10 board/Realtek/rtl838x/librtl838x.o
                0x0000000083f78fc8                SDS0_FIB_REG23_NONE_RTL8380_FIELDS
 .data.SDS0_FIB_REG22_NONE_RTL8380_FIELDS
                0x0000000083f78fd8       0x10 board/Realtek/rtl838x/librtl838x.o
                0x0000000083f78fd8                SDS0_FIB_REG22_NONE_RTL8380_FIELDS
 .data.SDS0_FIB_REG21_NONE_RTL8380_FIELDS
                0x0000000083f78fe8       0x10 board/Realtek/rtl838x/librtl838x.o
                0x0000000083f78fe8                SDS0_FIB_REG21_NONE_RTL8380_FIELDS
 .data.SDS0_FIB_REG20_NONE_RTL8380_FIELDS
                0x0000000083f78ff8       0x10 board/Realtek/rtl838x/librtl838x.o
                0x0000000083f78ff8                SDS0_FIB_REG20_NONE_RTL8380_FIELDS
 .data.SDS0_FIB_REG19_NONE_RTL8380_FIELDS
                0x0000000083f79008       0x10 board/Realtek/rtl838x/librtl838x.o
                0x0000000083f79008                SDS0_FIB_REG19_NONE_RTL8380_FIELDS
 .data.SDS0_FIB_REG18_NONE_RTL8380_FIELDS
                0x0000000083f79018       0x10 board/Realtek/rtl838x/librtl838x.o
                0x0000000083f79018                SDS0_FIB_REG18_NONE_RTL8380_FIELDS
 .data.SDS0_FIB_REG17_NONE_RTL8380_FIELDS
                0x0000000083f79028       0x10 board/Realtek/rtl838x/librtl838x.o
                0x0000000083f79028                SDS0_FIB_REG17_NONE_RTL8380_FIELDS
 .data.SDS0_FIB_REG16_NONE_RTL8380_FIELDS
                0x0000000083f79038       0x10 board/Realtek/rtl838x/librtl838x.o
                0x0000000083f79038                SDS0_FIB_REG16_NONE_RTL8380_FIELDS
 .data.SDS0_FIB_REG15_NONE_RTL8380_FIELDS
                0x0000000083f79048       0x10 board/Realtek/rtl838x/librtl838x.o
                0x0000000083f79048                SDS0_FIB_REG15_NONE_RTL8380_FIELDS
 .data.SDS0_FIB_REG14_NONE_RTL8380_FIELDS
                0x0000000083f79058       0x10 board/Realtek/rtl838x/librtl838x.o
                0x0000000083f79058                SDS0_FIB_REG14_NONE_RTL8380_FIELDS
 .data.SDS0_FIB_REG13_NONE_RTL8380_FIELDS
                0x0000000083f79068       0x10 board/Realtek/rtl838x/librtl838x.o
                0x0000000083f79068                SDS0_FIB_REG13_NONE_RTL8380_FIELDS
 .data.SDS0_FIB_REG12_NONE_RTL8380_FIELDS
                0x0000000083f79078       0x10 board/Realtek/rtl838x/librtl838x.o
                0x0000000083f79078                SDS0_FIB_REG12_NONE_RTL8380_FIELDS
 .data.SDS0_FIB_REG11_NONE_RTL8380_FIELDS
                0x0000000083f79088       0x10 board/Realtek/rtl838x/librtl838x.o
                0x0000000083f79088                SDS0_FIB_REG11_NONE_RTL8380_FIELDS
 .data.SDS0_FIB_REG10_NONE_RTL8380_FIELDS
                0x0000000083f79098       0x10 board/Realtek/rtl838x/librtl838x.o
                0x0000000083f79098                SDS0_FIB_REG10_NONE_RTL8380_FIELDS
 .data.SDS0_FIB_REG9_NONE_RTL8380_FIELDS
                0x0000000083f790a8       0x10 board/Realtek/rtl838x/librtl838x.o
                0x0000000083f790a8                SDS0_FIB_REG9_NONE_RTL8380_FIELDS
 .data.SDS0_FIB_REG8_NONE_RTL8380_FIELDS
                0x0000000083f790b8       0x10 board/Realtek/rtl838x/librtl838x.o
                0x0000000083f790b8                SDS0_FIB_REG8_NONE_RTL8380_FIELDS
 .data.SDS0_FIB_REG7_NONE_RTL8380_FIELDS
                0x0000000083f790c8       0x10 board/Realtek/rtl838x/librtl838x.o
                0x0000000083f790c8                SDS0_FIB_REG7_NONE_RTL8380_FIELDS
 .data.SDS0_FIB_REG6_NONE_RTL8380_FIELDS
                0x0000000083f790d8       0x10 board/Realtek/rtl838x/librtl838x.o
                0x0000000083f790d8                SDS0_FIB_REG6_NONE_RTL8380_FIELDS
 .data.SDS0_FIB_REG5_NONE_RTL8380_FIELDS
                0x0000000083f790e8       0x10 board/Realtek/rtl838x/librtl838x.o
                0x0000000083f790e8                SDS0_FIB_REG5_NONE_RTL8380_FIELDS
 .data.SDS0_FIB_REG4_NONE_RTL8380_FIELDS
                0x0000000083f790f8       0x10 board/Realtek/rtl838x/librtl838x.o
                0x0000000083f790f8                SDS0_FIB_REG4_NONE_RTL8380_FIELDS
 .data.SDS0_FIB_REG3_NONE_RTL8380_FIELDS
                0x0000000083f79108       0x10 board/Realtek/rtl838x/librtl838x.o
                0x0000000083f79108                SDS0_FIB_REG3_NONE_RTL8380_FIELDS
 .data.SDS0_FIB_REG2_NONE_RTL8380_FIELDS
                0x0000000083f79118       0x10 board/Realtek/rtl838x/librtl838x.o
                0x0000000083f79118                SDS0_FIB_REG2_NONE_RTL8380_FIELDS
 .data.SDS0_FIB_REG1_NONE_RTL8380_FIELDS
                0x0000000083f79128       0x10 board/Realtek/rtl838x/librtl838x.o
                0x0000000083f79128                SDS0_FIB_REG1_NONE_RTL8380_FIELDS
 .data.SDS0_FIB_REG0_NONE_RTL8380_FIELDS
                0x0000000083f79138       0x10 board/Realtek/rtl838x/librtl838x.o
                0x0000000083f79138                SDS0_FIB_REG0_NONE_RTL8380_FIELDS
 .data.SDS0_EXT_REG31_NONE_RTL8380_FIELDS
                0x0000000083f79148       0x10 board/Realtek/rtl838x/librtl838x.o
                0x0000000083f79148                SDS0_EXT_REG31_NONE_RTL8380_FIELDS
 .data.SDS0_EXT_REG30_NONE_RTL8380_FIELDS
                0x0000000083f79158       0x10 board/Realtek/rtl838x/librtl838x.o
                0x0000000083f79158                SDS0_EXT_REG30_NONE_RTL8380_FIELDS
 .data.SDS0_EXT_REG29_NONE_RTL8380_FIELDS
                0x0000000083f79168       0x10 board/Realtek/rtl838x/librtl838x.o
                0x0000000083f79168                SDS0_EXT_REG29_NONE_RTL8380_FIELDS
 .data.SDS0_EXT_REG28_NONE_RTL8380_FIELDS
                0x0000000083f79178       0x10 board/Realtek/rtl838x/librtl838x.o
                0x0000000083f79178                SDS0_EXT_REG28_NONE_RTL8380_FIELDS
 .data.SDS0_EXT_REG27_NONE_RTL8380_FIELDS
                0x0000000083f79188       0x10 board/Realtek/rtl838x/librtl838x.o
                0x0000000083f79188                SDS0_EXT_REG27_NONE_RTL8380_FIELDS
 .data.SDS0_EXT_REG26_NONE_RTL8380_FIELDS
                0x0000000083f79198       0x10 board/Realtek/rtl838x/librtl838x.o
                0x0000000083f79198                SDS0_EXT_REG26_NONE_RTL8380_FIELDS
 .data.SDS0_EXT_REG25_NONE_RTL8380_FIELDS
                0x0000000083f791a8       0x10 board/Realtek/rtl838x/librtl838x.o
                0x0000000083f791a8                SDS0_EXT_REG25_NONE_RTL8380_FIELDS
 .data.SDS0_EXT_REG24_NONE_RTL8380_FIELDS
                0x0000000083f791b8       0x10 board/Realtek/rtl838x/librtl838x.o
                0x0000000083f791b8                SDS0_EXT_REG24_NONE_RTL8380_FIELDS
 .data.SDS0_EXT_REG23_NONE_RTL8380_FIELDS
                0x0000000083f791c8       0x10 board/Realtek/rtl838x/librtl838x.o
                0x0000000083f791c8                SDS0_EXT_REG23_NONE_RTL8380_FIELDS
 .data.SDS0_EXT_REG22_NONE_RTL8380_FIELDS
                0x0000000083f791d8       0x10 board/Realtek/rtl838x/librtl838x.o
                0x0000000083f791d8                SDS0_EXT_REG22_NONE_RTL8380_FIELDS
 .data.SDS0_EXT_REG21_NONE_RTL8380_FIELDS
                0x0000000083f791e8       0x10 board/Realtek/rtl838x/librtl838x.o
                0x0000000083f791e8                SDS0_EXT_REG21_NONE_RTL8380_FIELDS
 .data.SDS0_EXT_REG20_NONE_RTL8380_FIELDS
                0x0000000083f791f8       0x10 board/Realtek/rtl838x/librtl838x.o
                0x0000000083f791f8                SDS0_EXT_REG20_NONE_RTL8380_FIELDS
 .data.SDS0_EXT_REG19_NONE_RTL8380_FIELDS
                0x0000000083f79208       0x10 board/Realtek/rtl838x/librtl838x.o
                0x0000000083f79208                SDS0_EXT_REG19_NONE_RTL8380_FIELDS
 .data.SDS0_EXT_REG18_NONE_RTL8380_FIELDS
                0x0000000083f79218       0x10 board/Realtek/rtl838x/librtl838x.o
                0x0000000083f79218                SDS0_EXT_REG18_NONE_RTL8380_FIELDS
 .data.SDS0_EXT_REG17_NONE_RTL8380_FIELDS
                0x0000000083f79228       0x10 board/Realtek/rtl838x/librtl838x.o
                0x0000000083f79228                SDS0_EXT_REG17_NONE_RTL8380_FIELDS
 .data.SDS0_EXT_REG16_NONE_RTL8380_FIELDS
                0x0000000083f79238       0x10 board/Realtek/rtl838x/librtl838x.o
                0x0000000083f79238                SDS0_EXT_REG16_NONE_RTL8380_FIELDS
 .data.SDS0_EXT_REG15_NONE_RTL8380_FIELDS
                0x0000000083f79248       0x10 board/Realtek/rtl838x/librtl838x.o
                0x0000000083f79248                SDS0_EXT_REG15_NONE_RTL8380_FIELDS
 .data.SDS0_EXT_REG14_NONE_RTL8380_FIELDS
                0x0000000083f79258       0x10 board/Realtek/rtl838x/librtl838x.o
                0x0000000083f79258                SDS0_EXT_REG14_NONE_RTL8380_FIELDS
 .data.SDS0_EXT_REG13_NONE_RTL8380_FIELDS
                0x0000000083f79268       0x10 board/Realtek/rtl838x/librtl838x.o
                0x0000000083f79268                SDS0_EXT_REG13_NONE_RTL8380_FIELDS
 .data.SDS0_EXT_REG12_NONE_RTL8380_FIELDS
                0x0000000083f79278       0x10 board/Realtek/rtl838x/librtl838x.o
                0x0000000083f79278                SDS0_EXT_REG12_NONE_RTL8380_FIELDS
 .data.SDS0_EXT_REG11_NONE_RTL8380_FIELDS
                0x0000000083f79288       0x10 board/Realtek/rtl838x/librtl838x.o
                0x0000000083f79288                SDS0_EXT_REG11_NONE_RTL8380_FIELDS
 .data.SDS0_EXT_REG10_NONE_RTL8380_FIELDS
                0x0000000083f79298       0x10 board/Realtek/rtl838x/librtl838x.o
                0x0000000083f79298                SDS0_EXT_REG10_NONE_RTL8380_FIELDS
 .data.SDS0_EXT_REG9_NONE_RTL8380_FIELDS
                0x0000000083f792a8       0x10 board/Realtek/rtl838x/librtl838x.o
                0x0000000083f792a8                SDS0_EXT_REG9_NONE_RTL8380_FIELDS
 .data.SDS0_EXT_REG8_NONE_RTL8380_FIELDS
                0x0000000083f792b8       0x10 board/Realtek/rtl838x/librtl838x.o
                0x0000000083f792b8                SDS0_EXT_REG8_NONE_RTL8380_FIELDS
 .data.SDS0_EXT_REG7_NONE_RTL8380_FIELDS
                0x0000000083f792c8       0x10 board/Realtek/rtl838x/librtl838x.o
                0x0000000083f792c8                SDS0_EXT_REG7_NONE_RTL8380_FIELDS
 .data.SDS0_EXT_REG6_NONE_RTL8380_FIELDS
                0x0000000083f792d8       0x10 board/Realtek/rtl838x/librtl838x.o
                0x0000000083f792d8                SDS0_EXT_REG6_NONE_RTL8380_FIELDS
 .data.SDS0_EXT_REG5_NONE_RTL8380_FIELDS
                0x0000000083f792e8       0x10 board/Realtek/rtl838x/librtl838x.o
                0x0000000083f792e8                SDS0_EXT_REG5_NONE_RTL8380_FIELDS
 .data.SDS0_EXT_REG4_NONE_RTL8380_FIELDS
                0x0000000083f792f8       0x10 board/Realtek/rtl838x/librtl838x.o
                0x0000000083f792f8                SDS0_EXT_REG4_NONE_RTL8380_FIELDS
 .data.SDS0_EXT_REG3_NONE_RTL8380_FIELDS
                0x0000000083f79308       0x10 board/Realtek/rtl838x/librtl838x.o
                0x0000000083f79308                SDS0_EXT_REG3_NONE_RTL8380_FIELDS
 .data.SDS0_EXT_REG2_NONE_RTL8380_FIELDS
                0x0000000083f79318       0x10 board/Realtek/rtl838x/librtl838x.o
                0x0000000083f79318                SDS0_EXT_REG2_NONE_RTL8380_FIELDS
 .data.SDS0_EXT_REG1_NONE_RTL8380_FIELDS
                0x0000000083f79328       0x10 board/Realtek/rtl838x/librtl838x.o
                0x0000000083f79328                SDS0_EXT_REG1_NONE_RTL8380_FIELDS
 .data.SDS0_EXT_REG0_NONE_RTL8380_FIELDS
                0x0000000083f79338       0x10 board/Realtek/rtl838x/librtl838x.o
                0x0000000083f79338                SDS0_EXT_REG0_NONE_RTL8380_FIELDS
 .data.SDS_DUMMY0_RTL8380_FIELDS
                0x0000000083f79348        0x8 board/Realtek/rtl838x/librtl838x.o
                0x0000000083f79348                SDS_DUMMY0_RTL8380_FIELDS
 .data.SDS0_REG30_RTL8380_FIELDS
                0x0000000083f79350       0x10 board/Realtek/rtl838x/librtl838x.o
                0x0000000083f79350                SDS0_REG30_RTL8380_FIELDS
 .data.SDS0_REG29_RTL8380_FIELDS
                0x0000000083f79360       0x10 board/Realtek/rtl838x/librtl838x.o
                0x0000000083f79360                SDS0_REG29_RTL8380_FIELDS
 .data.SDS0_REG28_RTL8380_FIELDS
                0x0000000083f79370       0x40 board/Realtek/rtl838x/librtl838x.o
                0x0000000083f79370                SDS0_REG28_RTL8380_FIELDS
 .data.SDS0_REG27_RTL8380_FIELDS
                0x0000000083f793b0       0x10 board/Realtek/rtl838x/librtl838x.o
                0x0000000083f793b0                SDS0_REG27_RTL8380_FIELDS
 .data.SDS0_REG26_RTL8380_FIELDS
                0x0000000083f793c0       0x18 board/Realtek/rtl838x/librtl838x.o
                0x0000000083f793c0                SDS0_REG26_RTL8380_FIELDS
 .data.SDS0_REG25_RTL8380_FIELDS
                0x0000000083f793d8       0x10 board/Realtek/rtl838x/librtl838x.o
                0x0000000083f793d8                SDS0_REG25_RTL8380_FIELDS
 .data.SDS0_REG24_RTL8380_FIELDS
                0x0000000083f793e8       0x10 board/Realtek/rtl838x/librtl838x.o
                0x0000000083f793e8                SDS0_REG24_RTL8380_FIELDS
 .data.SDS0_REG23_RTL8380_FIELDS
                0x0000000083f793f8       0x10 board/Realtek/rtl838x/librtl838x.o
                0x0000000083f793f8                SDS0_REG23_RTL8380_FIELDS
 .data.SDS0_REG22_RTL8380_FIELDS
                0x0000000083f79408       0x10 board/Realtek/rtl838x/librtl838x.o
                0x0000000083f79408                SDS0_REG22_RTL8380_FIELDS
 .data.SDS0_REG21_RTL8380_FIELDS
                0x0000000083f79418       0x10 board/Realtek/rtl838x/librtl838x.o
                0x0000000083f79418                SDS0_REG21_RTL8380_FIELDS
 .data.SDS0_REG20_RTL8380_FIELDS
                0x0000000083f79428       0x10 board/Realtek/rtl838x/librtl838x.o
                0x0000000083f79428                SDS0_REG20_RTL8380_FIELDS
 .data.SDS0_REG19_RTL8380_FIELDS
                0x0000000083f79438       0x10 board/Realtek/rtl838x/librtl838x.o
                0x0000000083f79438                SDS0_REG19_RTL8380_FIELDS
 .data.SDS0_REG18_RTL8380_FIELDS
                0x0000000083f79448       0x10 board/Realtek/rtl838x/librtl838x.o
                0x0000000083f79448                SDS0_REG18_RTL8380_FIELDS
 .data.SDS0_REG17_RTL8380_FIELDS
                0x0000000083f79458       0x20 board/Realtek/rtl838x/librtl838x.o
                0x0000000083f79458                SDS0_REG17_RTL8380_FIELDS
 .data.SDS0_REG16_RTL8380_FIELDS
                0x0000000083f79478       0x10 board/Realtek/rtl838x/librtl838x.o
                0x0000000083f79478                SDS0_REG16_RTL8380_FIELDS
 .data.SDS0_REG15_RTL8380_FIELDS
                0x0000000083f79488       0x10 board/Realtek/rtl838x/librtl838x.o
                0x0000000083f79488                SDS0_REG15_RTL8380_FIELDS
 .data.SDS0_REG14_RTL8380_FIELDS
                0x0000000083f79498       0x68 board/Realtek/rtl838x/librtl838x.o
                0x0000000083f79498                SDS0_REG14_RTL8380_FIELDS
 .data.SDS0_REG13_RTL8380_FIELDS
                0x0000000083f79500       0x30 board/Realtek/rtl838x/librtl838x.o
                0x0000000083f79500                SDS0_REG13_RTL8380_FIELDS
 .data.SDS0_REG12_RTL8380_FIELDS
                0x0000000083f79530       0x38 board/Realtek/rtl838x/librtl838x.o
                0x0000000083f79530                SDS0_REG12_RTL8380_FIELDS
 .data.SDS0_REG11_RTL8380_FIELDS
                0x0000000083f79568       0x10 board/Realtek/rtl838x/librtl838x.o
                0x0000000083f79568                SDS0_REG11_RTL8380_FIELDS
 .data.SDS0_REG10_RTL8380_FIELDS
                0x0000000083f79578       0x50 board/Realtek/rtl838x/librtl838x.o
                0x0000000083f79578                SDS0_REG10_RTL8380_FIELDS
 .data.SDS0_REG9_RTL8380_FIELDS
                0x0000000083f795c8       0x10 board/Realtek/rtl838x/librtl838x.o
                0x0000000083f795c8                SDS0_REG9_RTL8380_FIELDS
 .data.SDS0_REG8_RTL8380_FIELDS
                0x0000000083f795d8       0x48 board/Realtek/rtl838x/librtl838x.o
                0x0000000083f795d8                SDS0_REG8_RTL8380_FIELDS
 .data.SDS0_REG7_RTL8380_FIELDS
                0x0000000083f79620       0x58 board/Realtek/rtl838x/librtl838x.o
                0x0000000083f79620                SDS0_REG7_RTL8380_FIELDS
 .data.SDS0_REG6_RTL8380_FIELDS
                0x0000000083f79678       0x40 board/Realtek/rtl838x/librtl838x.o
                0x0000000083f79678                SDS0_REG6_RTL8380_FIELDS
 .data.SDS0_REG5_RTL8380_FIELDS
                0x0000000083f796b8       0x60 board/Realtek/rtl838x/librtl838x.o
                0x0000000083f796b8                SDS0_REG5_RTL8380_FIELDS
 .data.SDS0_REG4_RTL8380_FIELDS
                0x0000000083f79718       0x48 board/Realtek/rtl838x/librtl838x.o
                0x0000000083f79718                SDS0_REG4_RTL8380_FIELDS
 .data.SDS0_REG3_RTL8380_FIELDS
                0x0000000083f79760       0x50 board/Realtek/rtl838x/librtl838x.o
                0x0000000083f79760                SDS0_REG3_RTL8380_FIELDS
 .data.SDS0_REG2_RTL8380_FIELDS
                0x0000000083f797b0       0x48 board/Realtek/rtl838x/librtl838x.o
                0x0000000083f797b0                SDS0_REG2_RTL8380_FIELDS
 .data.SDS0_REG1_RTL8380_FIELDS
                0x0000000083f797f8       0x50 board/Realtek/rtl838x/librtl838x.o
                0x0000000083f797f8                SDS0_REG1_RTL8380_FIELDS
 .data.SDS0_REG0_RTL8380_FIELDS
                0x0000000083f79848       0x78 board/Realtek/rtl838x/librtl838x.o
                0x0000000083f79848                SDS0_REG0_RTL8380_FIELDS
 .data.SDS5_NWAY_STS_RTL8380_FIELDS
                0x0000000083f798c0        0x8 board/Realtek/rtl838x/librtl838x.o
                0x0000000083f798c0                SDS5_NWAY_STS_RTL8380_FIELDS
 .data.SDS4_NWAY_STS_RTL8380_FIELDS
                0x0000000083f798c8        0x8 board/Realtek/rtl838x/librtl838x.o
                0x0000000083f798c8                SDS4_NWAY_STS_RTL8380_FIELDS
 .data.SDS23_NWAY_STS_RTL8380_FIELDS
                0x0000000083f798d0        0x8 board/Realtek/rtl838x/librtl838x.o
                0x0000000083f798d0                SDS23_NWAY_STS_RTL8380_FIELDS
 .data.SDS01_NWAY_STS_RTL8380_FIELDS
                0x0000000083f798d8        0x8 board/Realtek/rtl838x/librtl838x.o
                0x0000000083f798d8                SDS01_NWAY_STS_RTL8380_FIELDS
 .data.DMY_REG45_RTL8380_FIELDS
                0x0000000083f798e0        0x8 board/Realtek/rtl838x/librtl838x.o
                0x0000000083f798e0                DMY_REG45_RTL8380_FIELDS
 .data.DMY_REG40_RTL8380_FIELDS
                0x0000000083f798e8        0x8 board/Realtek/rtl838x/librtl838x.o
                0x0000000083f798e8                DMY_REG40_RTL8380_FIELDS
 .data.MAC_TX_DISABLE_RTL8380_FIELDS
                0x0000000083f798f0       0x10 board/Realtek/rtl838x/librtl838x.o
                0x0000000083f798f0                MAC_TX_DISABLE_RTL8380_FIELDS
 .data.DMY_REG5_RTL8380_FIELDS
                0x0000000083f79900       0x20 board/Realtek/rtl838x/librtl838x.o
                0x0000000083f79900                DMY_REG5_RTL8380_FIELDS
 .data.DMY_PORT_REG1_RTL8380_FIELDS
                0x0000000083f79920        0x8 board/Realtek/rtl838x/librtl838x.o
                0x0000000083f79920                DMY_PORT_REG1_RTL8380_FIELDS
 .data.MAC_INT_GPHY_CTRL_6_RTL8380_FIELDS
                0x0000000083f79928       0x68 board/Realtek/rtl838x/librtl838x.o
                0x0000000083f79928                MAC_INT_GPHY_CTRL_6_RTL8380_FIELDS
 .data.MAC_INT_GPHY_CTRL_5_RTL8380_FIELDS
                0x0000000083f79990       0x28 board/Realtek/rtl838x/librtl838x.o
                0x0000000083f79990                MAC_INT_GPHY_CTRL_5_RTL8380_FIELDS
 .data.MAC_INT_GPHY_CTRL_4_RTL8380_FIELDS
                0x0000000083f799b8        0x8 board/Realtek/rtl838x/librtl838x.o
                0x0000000083f799b8                MAC_INT_GPHY_CTRL_4_RTL8380_FIELDS
 .data.MAC_INT_GPHY_CTRL_3_RTL8380_FIELDS
                0x0000000083f799c0        0x8 board/Realtek/rtl838x/librtl838x.o
                0x0000000083f799c0                MAC_INT_GPHY_CTRL_3_RTL8380_FIELDS
 .data.MAC_INT_GPHY_CTRL_2_RTL8380_FIELDS
                0x0000000083f799c8        0x8 board/Realtek/rtl838x/librtl838x.o
                0x0000000083f799c8                MAC_INT_GPHY_CTRL_2_RTL8380_FIELDS
 .data.MAC_INT_GPHY_CTRL_1_RTL8380_FIELDS
                0x0000000083f799d0       0x40 board/Realtek/rtl838x/librtl838x.o
                0x0000000083f799d0                MAC_INT_GPHY_CTRL_1_RTL8380_FIELDS
 .data.P8_RESERVED_REG_3_RTL8380_FIELDS
                0x0000000083f79a10        0x8 board/Realtek/rtl838x/librtl838x.o
                0x0000000083f79a10                P8_RESERVED_REG_3_RTL8380_FIELDS
 .data.P8_RESERVED_REG_2_RTL8380_FIELDS
                0x0000000083f79a18        0x8 board/Realtek/rtl838x/librtl838x.o
                0x0000000083f79a18                P8_RESERVED_REG_2_RTL8380_FIELDS
 .data.P8_RESERVED_REG_1_RTL8380_FIELDS
                0x0000000083f79a20        0x8 board/Realtek/rtl838x/librtl838x.o
                0x0000000083f79a20                P8_RESERVED_REG_1_RTL8380_FIELDS
 .data.P8_PCS_ABILITY_RTL8380_FIELDS
                0x0000000083f79a28        0x8 board/Realtek/rtl838x/librtl838x.o
                0x0000000083f79a28                P8_PCS_ABILITY_RTL8380_FIELDS
 .data.MAC_CPU_PORT_CTRL_RTL8380_FIELDS
                0x0000000083f79a30       0x10 board/Realtek/rtl838x/librtl838x.o
                0x0000000083f79a30                MAC_CPU_PORT_CTRL_RTL8380_FIELDS
 .data.MAC_CPU_TAG_ID_CTRL_RTL8380_FIELDS
                0x0000000083f79a40       0x10 board/Realtek/rtl838x/librtl838x.o
                0x0000000083f79a40                MAC_CPU_TAG_ID_CTRL_RTL8380_FIELDS
 .data.SMI_PORT24_27_ADDR_CTRL_RTL8380_FIELDS
                0x0000000083f79a50       0x28 board/Realtek/rtl838x/librtl838x.o
                0x0000000083f79a50                SMI_PORT24_27_ADDR_CTRL_RTL8380_FIELDS
 .data.SMI_PORT18_23_ADDR_CTRL_RTL8380_FIELDS
                0x0000000083f79a78       0x38 board/Realtek/rtl838x/librtl838x.o
                0x0000000083f79a78                SMI_PORT18_23_ADDR_CTRL_RTL8380_FIELDS
 .data.SMI_PORT12_17_ADDR_CTRL_RTL8380_FIELDS
                0x0000000083f79ab0       0x38 board/Realtek/rtl838x/librtl838x.o
                0x0000000083f79ab0                SMI_PORT12_17_ADDR_CTRL_RTL8380_FIELDS
 .data.SMI_PORT6_11_ADDR_CTRL_RTL8380_FIELDS
                0x0000000083f79ae8       0x38 board/Realtek/rtl838x/librtl838x.o
                0x0000000083f79ae8                SMI_PORT6_11_ADDR_CTRL_RTL8380_FIELDS
 .data.SMI_PORT0_5_ADDR_CTRL_RTL8380_FIELDS
                0x0000000083f79b20       0x38 board/Realtek/rtl838x/librtl838x.o
                0x0000000083f79b20                SMI_PORT0_5_ADDR_CTRL_RTL8380_FIELDS
 .data.SMI_ACCESS_PHY_CTRL_3_RTL8380_FIELDS
                0x0000000083f79b58       0x18 board/Realtek/rtl838x/librtl838x.o
                0x0000000083f79b58                SMI_ACCESS_PHY_CTRL_3_RTL8380_FIELDS
 .data.SMI_ACCESS_PHY_CTRL_2_RTL8380_FIELDS
                0x0000000083f79b70       0x10 board/Realtek/rtl838x/librtl838x.o
                0x0000000083f79b70                SMI_ACCESS_PHY_CTRL_2_RTL8380_FIELDS
 .data.SMI_ACCESS_PHY_CTRL_1_RTL8380_FIELDS
                0x0000000083f79b80       0x38 board/Realtek/rtl838x/librtl838x.o
                0x0000000083f79b80                SMI_ACCESS_PHY_CTRL_1_RTL8380_FIELDS
 .data.SMI_ACCESS_PHY_CTRL_0_RTL8380_FIELDS
                0x0000000083f79bb8       0x10 board/Realtek/rtl838x/librtl838x.o
                0x0000000083f79bb8                SMI_ACCESS_PHY_CTRL_0_RTL8380_FIELDS
 .data.MAC_MSTR_SLV_FAULT_STS_RTL8380_FIELDS
                0x0000000083f79bc8       0x10 board/Realtek/rtl838x/librtl838x.o
                0x0000000083f79bc8                MAC_MSTR_SLV_FAULT_STS_RTL8380_FIELDS
 .data.MAC_MSTR_SLV_STS_RTL8380_FIELDS
                0x0000000083f79bd8       0x10 board/Realtek/rtl838x/librtl838x.o
                0x0000000083f79bd8                MAC_MSTR_SLV_STS_RTL8380_FIELDS
 .data.MAC_FEFI_STS_RTL8380_FIELDS
                0x0000000083f79be8       0x10 board/Realtek/rtl838x/librtl838x.o
                0x0000000083f79be8                MAC_FEFI_STS_RTL8380_FIELDS
 .data.MAC_EEE_ABLTY_RTL8380_FIELDS
                0x0000000083f79bf8       0x10 board/Realtek/rtl838x/librtl838x.o
                0x0000000083f79bf8                MAC_EEE_ABLTY_RTL8380_FIELDS
 .data.MAC_RX_PAUSE_STS_RTL8380_FIELDS
                0x0000000083f79c08       0x10 board/Realtek/rtl838x/librtl838x.o
                0x0000000083f79c08                MAC_RX_PAUSE_STS_RTL8380_FIELDS
 .data.MAC_TX_PAUSE_STS_RTL8380_FIELDS
                0x0000000083f79c18       0x10 board/Realtek/rtl838x/librtl838x.o
                0x0000000083f79c18                MAC_TX_PAUSE_STS_RTL8380_FIELDS
 .data.MAC_LINK_DUP_STS_RTL8380_FIELDS
                0x0000000083f79c28       0x10 board/Realtek/rtl838x/librtl838x.o
                0x0000000083f79c28                MAC_LINK_DUP_STS_RTL8380_FIELDS
 .data.MAC_GLITE_STS_RTL8380_FIELDS
                0x0000000083f79c38       0x10 board/Realtek/rtl838x/librtl838x.o
                0x0000000083f79c38                MAC_GLITE_STS_RTL8380_FIELDS
 .data.MAC_LINK_SPD_STS_RTL8380_FIELDS
                0x0000000083f79c48        0x8 board/Realtek/rtl838x/librtl838x.o
                0x0000000083f79c48                MAC_LINK_SPD_STS_RTL8380_FIELDS
 .data.MAC_LINK_MEDIA_STS_RTL8380_FIELDS
                0x0000000083f79c50       0x10 board/Realtek/rtl838x/librtl838x.o
                0x0000000083f79c50                MAC_LINK_MEDIA_STS_RTL8380_FIELDS
 .data.MAC_LINK_STS_RTL8380_FIELDS
                0x0000000083f79c60       0x10 board/Realtek/rtl838x/librtl838x.o
                0x0000000083f79c60                MAC_LINK_STS_RTL8380_FIELDS
 .data.SERDES_NWAY_FAIL_RTL8380_FIELDS
                0x0000000083f79c70       0x10 board/Realtek/rtl838x/librtl838x.o
                0x0000000083f79c70                SERDES_NWAY_FAIL_RTL8380_FIELDS
 .data.SMI_LINK_FAIL_RTL8380_FIELDS
                0x0000000083f79c80       0x10 board/Realtek/rtl838x/librtl838x.o
                0x0000000083f79c80                SMI_LINK_FAIL_RTL8380_FIELDS
 .data.SMI_POLL_CTRL_RTL8380_FIELDS
                0x0000000083f79c90       0x10 board/Realtek/rtl838x/librtl838x.o
                0x0000000083f79c90                SMI_POLL_CTRL_RTL8380_FIELDS
 .data.SMI_CONFIG_CTRL_RTL8380_FIELDS
                0x0000000083f79ca0       0x18 board/Realtek/rtl838x/librtl838x.o
                0x0000000083f79ca0                SMI_CONFIG_CTRL_RTL8380_FIELDS
 .data.MAC_FORCE_MODE_CTRL_RTL8380_FIELDS
                0x0000000083f79cb8       0xe0 board/Realtek/rtl838x/librtl838x.o
                0x0000000083f79cb8                MAC_FORCE_MODE_CTRL_RTL8380_FIELDS
 .data.SMI_GLB_CTRL_RTL8380_FIELDS
                0x0000000083f79d98       0x98 board/Realtek/rtl838x/librtl838x.o
                0x0000000083f79d98                SMI_GLB_CTRL_RTL8380_FIELDS
 .data.PHY_UP_CTRL_RTL8380_FIELDS
                0x0000000083f79e30       0x10 board/Realtek/rtl838x/librtl838x.o
                0x0000000083f79e30                PHY_UP_CTRL_RTL8380_FIELDS
 .data.MAC_EEPROM_DOWN_LOAD_GROUP_MAC_POS_RTL8380_FIELDS
                0x0000000083f79e40       0x10 board/Realtek/rtl838x/librtl838x.o
                0x0000000083f79e40                MAC_EEPROM_DOWN_LOAD_GROUP_MAC_POS_RTL8380_FIELDS
 .data.MAC_EEPROM_DOWN_LOAD_TABLE_POS_RTL8380_FIELDS
                0x0000000083f79e50       0x10 board/Realtek/rtl838x/librtl838x.o
                0x0000000083f79e50                MAC_EEPROM_DOWN_LOAD_TABLE_POS_RTL8380_FIELDS
 .data.MAC_EEPROM_DOWN_LOAD_PHY_POS_RTL8380_FIELDS
                0x0000000083f79e60       0x10 board/Realtek/rtl838x/librtl838x.o
                0x0000000083f79e60                MAC_EEPROM_DOWN_LOAD_PHY_POS_RTL8380_FIELDS
 .data.MAC_EEPROM_DOWN_LOAD_MAC_POS_RTL8380_FIELDS
                0x0000000083f79e70       0x10 board/Realtek/rtl838x/librtl838x.o
                0x0000000083f79e70                MAC_EEPROM_DOWN_LOAD_MAC_POS_RTL8380_FIELDS
 .data.MAC_EEPROM_TYPE_CTRL_RTL8380_FIELDS
                0x0000000083f79e80       0x10 board/Realtek/rtl838x/librtl838x.o
                0x0000000083f79e80                MAC_EEPROM_TYPE_CTRL_RTL8380_FIELDS
 .data.MAC_EEPROM_DOWN_LOAD_STS_RTL8380_FIELDS
                0x0000000083f79e90       0x20 board/Realtek/rtl838x/librtl838x.o
                0x0000000083f79e90                MAC_EEPROM_DOWN_LOAD_STS_RTL8380_FIELDS
 .data.MAC_EEPROM_DOWN_LOAD_CNTRL_RTL8380_FIELDS
                0x0000000083f79eb0       0x18 board/Realtek/rtl838x/librtl838x.o
                0x0000000083f79eb0                MAC_EEPROM_DOWN_LOAD_CNTRL_RTL8380_FIELDS
 .data.MAC_ADDR_CTRL_MAC_RTL8380_FIELDS
                0x0000000083f79ec8       0x18 board/Realtek/rtl838x/librtl838x.o
                0x0000000083f79ec8                MAC_ADDR_CTRL_MAC_RTL8380_FIELDS
 .data.MAC_ADDR_CTRL_ALE_RTL8380_FIELDS
                0x0000000083f79ee0       0x18 board/Realtek/rtl838x/librtl838x.o
                0x0000000083f79ee0                MAC_ADDR_CTRL_ALE_RTL8380_FIELDS
 .data.MAC_ADDR_CTRL_RTL8380_FIELDS
                0x0000000083f79ef8       0x18 board/Realtek/rtl838x/librtl838x.o
                0x0000000083f79ef8                MAC_ADDR_CTRL_RTL8380_FIELDS
 .data.HALF_CHG_STS_RTL8380_FIELDS
                0x0000000083f79f10       0x18 board/Realtek/rtl838x/librtl838x.o
                0x0000000083f79f10                HALF_CHG_STS_RTL8380_FIELDS
 .data.HALF_CHG_CTRL_RTL8380_FIELDS
                0x0000000083f79f28       0x28 board/Realtek/rtl838x/librtl838x.o
                0x0000000083f79f28                HALF_CHG_CTRL_RTL8380_FIELDS
 .data.MAC_PORT_CTRL_RTL8380_FIELDS
                0x0000000083f79f50       0x68 board/Realtek/rtl838x/librtl838x.o
                0x0000000083f79f50                MAC_PORT_CTRL_RTL8380_FIELDS
 .data.MAC_GLB_CTRL_RTL8380_FIELDS
                0x0000000083f79fb8       0xa0 board/Realtek/rtl838x/librtl838x.o
                0x0000000083f79fb8                MAC_GLB_CTRL_RTL8380_FIELDS
 .data.MAC_MAX_LEN_CTRL_DUPLICATED_RTL8380_FIELDS
                0x0000000083f7a058       0x20 board/Realtek/rtl838x/librtl838x.o
                0x0000000083f7a058                MAC_MAX_LEN_CTRL_DUPLICATED_RTL8380_FIELDS
 .data.MAC_MAX_LEN_CTRL_RTL8380_FIELDS
                0x0000000083f7a078       0x20 board/Realtek/rtl838x/librtl838x.o
                0x0000000083f7a078                MAC_MAX_LEN_CTRL_RTL8380_FIELDS
 .data.MAC_IF_CTRL_RTL8380_FIELDS
                0x0000000083f7a098       0x18 board/Realtek/rtl838x/librtl838x.o
                0x0000000083f7a098                MAC_IF_CTRL_RTL8380_FIELDS
 .data.I2C_SLV_ADDR_CTRL_RTL8380_FIELDS
                0x0000000083f7a0b0       0x10 board/Realtek/rtl838x/librtl838x.o
                0x0000000083f7a0b0                I2C_SLV_ADDR_CTRL_RTL8380_FIELDS
 .data.EXT_VERSION_RTL8380_FIELDS
                0x0000000083f7a0c0       0x10 board/Realtek/rtl838x/librtl838x.o
                0x0000000083f7a0c0                EXT_VERSION_RTL8380_FIELDS
 .data.DMY_REG2_RTL8380_FIELDS
                0x0000000083f7a0d0        0x8 board/Realtek/rtl838x/librtl838x.o
                0x0000000083f7a0d0                DMY_REG2_RTL8380_FIELDS
 .data.DEBUG_SUB_MODE5_RTL8380_FIELDS
                0x0000000083f7a0d8        0x8 board/Realtek/rtl838x/librtl838x.o
                0x0000000083f7a0d8                DEBUG_SUB_MODE5_RTL8380_FIELDS
 .data.DEBUG_SUB_MODE4_RTL8380_FIELDS
                0x0000000083f7a0e0        0x8 board/Realtek/rtl838x/librtl838x.o
                0x0000000083f7a0e0                DEBUG_SUB_MODE4_RTL8380_FIELDS
 .data.DEBUG_SUB_MODE3_RTL8380_FIELDS
                0x0000000083f7a0e8        0x8 board/Realtek/rtl838x/librtl838x.o
                0x0000000083f7a0e8                DEBUG_SUB_MODE3_RTL8380_FIELDS
 .data.DEBUG_SUB_MODE2_RTL8380_FIELDS
                0x0000000083f7a0f0        0x8 board/Realtek/rtl838x/librtl838x.o
                0x0000000083f7a0f0                DEBUG_SUB_MODE2_RTL8380_FIELDS
 .data.DEBUG_SUB_MODE1_RTL8380_FIELDS
                0x0000000083f7a0f8        0x8 board/Realtek/rtl838x/librtl838x.o
                0x0000000083f7a0f8                DEBUG_SUB_MODE1_RTL8380_FIELDS
 .data.DEBUG_SUB_MODE0_RTL8380_FIELDS
                0x0000000083f7a100        0x8 board/Realtek/rtl838x/librtl838x.o
                0x0000000083f7a100                DEBUG_SUB_MODE0_RTL8380_FIELDS
 .data.DEBUG_MODE_RTL8380_FIELDS
                0x0000000083f7a108        0x8 board/Realtek/rtl838x/librtl838x.o
                0x0000000083f7a108                DEBUG_MODE_RTL8380_FIELDS
 .data.SYNCE_CHIP_CTRL_RTL8380_FIELDS
                0x0000000083f7a110       0x10 board/Realtek/rtl838x/librtl838x.o
                0x0000000083f7a110                SYNCE_CHIP_CTRL_RTL8380_FIELDS
 .data.VOLTAGE_CTRL_RTL8380_FIELDS
                0x0000000083f7a120       0x10 board/Realtek/rtl838x/librtl838x.o
                0x0000000083f7a120                VOLTAGE_CTRL_RTL8380_FIELDS
 .data.THERMAL_METER_RESULT_RTL8380_FIELDS
                0x0000000083f7a130       0x28 board/Realtek/rtl838x/librtl838x.o
                0x0000000083f7a130                THERMAL_METER_RESULT_RTL8380_FIELDS
 .data.THERMAL_METER_CTRL2_RTL8380_FIELDS
                0x0000000083f7a158       0x10 board/Realtek/rtl838x/librtl838x.o
                0x0000000083f7a158                THERMAL_METER_CTRL2_RTL8380_FIELDS
 .data.THERMAL_METER_CTRL1_RTL8380_FIELDS
                0x0000000083f7a168       0x10 board/Realtek/rtl838x/librtl838x.o
                0x0000000083f7a168                THERMAL_METER_CTRL1_RTL8380_FIELDS
 .data.THERMAL_METER_CTRL0_RTL8380_FIELDS
                0x0000000083f7a178       0x48 board/Realtek/rtl838x/librtl838x.o
                0x0000000083f7a178                THERMAL_METER_CTRL0_RTL8380_FIELDS
 .data.TDM_CFG_RTL8380_FIELDS
                0x0000000083f7a1c0       0x18 board/Realtek/rtl838x/librtl838x.o
                0x0000000083f7a1c0                TDM_CFG_RTL8380_FIELDS
 .data.SPD_SENSOR3_RESULT_RTL8380_FIELDS
                0x0000000083f7a1d8       0x20 board/Realtek/rtl838x/librtl838x.o
                0x0000000083f7a1d8                SPD_SENSOR3_RESULT_RTL8380_FIELDS
 .data.SPD_SENSOR2_RESULT_RTL8380_FIELDS
                0x0000000083f7a1f8       0x20 board/Realtek/rtl838x/librtl838x.o
                0x0000000083f7a1f8                SPD_SENSOR2_RESULT_RTL8380_FIELDS
 .data.SPD_SENSOR1_RESULT_RTL8380_FIELDS
                0x0000000083f7a218       0x20 board/Realtek/rtl838x/librtl838x.o
                0x0000000083f7a218                SPD_SENSOR1_RESULT_RTL8380_FIELDS
 .data.SPD_SENSOR0_RESULT_RTL8380_FIELDS
                0x0000000083f7a238       0x20 board/Realtek/rtl838x/librtl838x.o
                0x0000000083f7a238                SPD_SENSOR0_RESULT_RTL8380_FIELDS
 .data.SPD_SENSOR3_CTRL_RTL8380_FIELDS
                0x0000000083f7a258       0x28 board/Realtek/rtl838x/librtl838x.o
                0x0000000083f7a258                SPD_SENSOR3_CTRL_RTL8380_FIELDS
 .data.SPD_SENSOR2_CTRL_RTL8380_FIELDS
                0x0000000083f7a280       0x28 board/Realtek/rtl838x/librtl838x.o
                0x0000000083f7a280                SPD_SENSOR2_CTRL_RTL8380_FIELDS
 .data.SPD_SENSOR1_CTRL_RTL8380_FIELDS
                0x0000000083f7a2a8       0x28 board/Realtek/rtl838x/librtl838x.o
                0x0000000083f7a2a8                SPD_SENSOR1_CTRL_RTL8380_FIELDS
 .data.SPD_SENSOR0_CTRL_RTL8380_FIELDS
                0x0000000083f7a2d0       0x28 board/Realtek/rtl838x/librtl838x.o
                0x0000000083f7a2d0                SPD_SENSOR0_CTRL_RTL8380_FIELDS
 .data.EFUSE_DATA_CTRL_RTL8380_FIELDS
                0x0000000083f7a2f8       0x10 board/Realtek/rtl838x/librtl838x.o
                0x0000000083f7a2f8                EFUSE_DATA_CTRL_RTL8380_FIELDS
 .data.EFUSE_GLB_CTRL_RTL8380_FIELDS
                0x0000000083f7a308       0x28 board/Realtek/rtl838x/librtl838x.o
                0x0000000083f7a308                EFUSE_GLB_CTRL_RTL8380_FIELDS
 .data.EFUSE_CMD_CTRL_RTL8380_FIELDS
                0x0000000083f7a330       0x20 board/Realtek/rtl838x/librtl838x.o
                0x0000000083f7a330                EFUSE_CMD_CTRL_RTL8380_FIELDS
 .data.EFUSE_TRIG_CTRL_RTL8380_FIELDS
                0x0000000083f7a350       0x10 board/Realtek/rtl838x/librtl838x.o
                0x0000000083f7a350                EFUSE_TRIG_CTRL_RTL8380_FIELDS
 .data.EFUSE_EN_CTRL_RTL8380_FIELDS
                0x0000000083f7a360        0x8 board/Realtek/rtl838x/librtl838x.o
                0x0000000083f7a360                EFUSE_EN_CTRL_RTL8380_FIELDS
 .data.RGMII1_DRIVING_ABILITY_CTRL_RTL8380_FIELDS
                0x0000000083f7a368       0x30 board/Realtek/rtl838x/librtl838x.o
                0x0000000083f7a368                RGMII1_DRIVING_ABILITY_CTRL_RTL8380_FIELDS
 .data.IO_DRIVING_ABILITY_CTRL_RTL8380_FIELDS
                0x0000000083f7a398       0xd8 board/Realtek/rtl838x/librtl838x.o
                0x0000000083f7a398                IO_DRIVING_ABILITY_CTRL_RTL8380_FIELDS
 .data.INT_MODE_CTRL_RTL8380_FIELDS
                0x0000000083f7a470       0x18 board/Realtek/rtl838x/librtl838x.o
                0x0000000083f7a470                INT_MODE_CTRL_RTL8380_FIELDS
 .data.INT_RW_CTRL_RTL8380_FIELDS
                0x0000000083f7a488       0x18 board/Realtek/rtl838x/librtl838x.o
                0x0000000083f7a488                INT_RW_CTRL_RTL8380_FIELDS
 .data.STRAP_DBG_RTL8380_FIELDS
                0x0000000083f7a4a0        0x8 board/Realtek/rtl838x/librtl838x.o
                0x0000000083f7a4a0                STRAP_DBG_RTL8380_FIELDS
 .data.BOND_DBG_RTL8380_FIELDS
                0x0000000083f7a4a8       0x10 board/Realtek/rtl838x/librtl838x.o
                0x0000000083f7a4a8                BOND_DBG_RTL8380_FIELDS
 .data.EXTRA_GPIO_DATA_1_RTL8380_FIELDS
                0x0000000083f7a4b8       0x10 board/Realtek/rtl838x/librtl838x.o
                0x0000000083f7a4b8                EXTRA_GPIO_DATA_1_RTL8380_FIELDS
 .data.EXTRA_GPIO_DATA_0_RTL8380_FIELDS
                0x0000000083f7a4c8        0x8 board/Realtek/rtl838x/librtl838x.o
                0x0000000083f7a4c8                EXTRA_GPIO_DATA_0_RTL8380_FIELDS
 .data.EXTRA_GPIO_DIR_1_RTL8380_FIELDS
                0x0000000083f7a4d0       0x10 board/Realtek/rtl838x/librtl838x.o
                0x0000000083f7a4d0                EXTRA_GPIO_DIR_1_RTL8380_FIELDS
 .data.EXTRA_GPIO_DIR_0_RTL8380_FIELDS
                0x0000000083f7a4e0        0x8 board/Realtek/rtl838x/librtl838x.o
                0x0000000083f7a4e0                EXTRA_GPIO_DIR_0_RTL8380_FIELDS
 .data.EXTRA_GPIO_CTRL_RTL8380_FIELDS
                0x0000000083f7a4e8       0x30 board/Realtek/rtl838x/librtl838x.o
                0x0000000083f7a4e8                EXTRA_GPIO_CTRL_RTL8380_FIELDS
 .data.LED_RTCT_CTRL_RTL8380_FIELDS
                0x0000000083f7a518       0x80 board/Realtek/rtl838x/librtl838x.o
                0x0000000083f7a518                LED_RTCT_CTRL_RTL8380_FIELDS
 .data.LED_STS_CTRL_11_RTL8380_FIELDS
                0x0000000083f7a598       0x50 board/Realtek/rtl838x/librtl838x.o
                0x0000000083f7a598                LED_STS_CTRL_11_RTL8380_FIELDS
 .data.LED_STS_CTRL_10_RTL8380_FIELDS
                0x0000000083f7a5e8       0x50 board/Realtek/rtl838x/librtl838x.o
                0x0000000083f7a5e8                LED_STS_CTRL_10_RTL8380_FIELDS
 .data.LED_STS_CTRL_9_RTL8380_FIELDS
                0x0000000083f7a638       0x50 board/Realtek/rtl838x/librtl838x.o
                0x0000000083f7a638                LED_STS_CTRL_9_RTL8380_FIELDS
 .data.LED_STS_CTRL_8_RTL8380_FIELDS
                0x0000000083f7a688       0x28 board/Realtek/rtl838x/librtl838x.o
                0x0000000083f7a688                LED_STS_CTRL_8_RTL8380_FIELDS
 .data.LED_STS_CTRL_7_RTL8380_FIELDS
                0x0000000083f7a6b0       0x60 board/Realtek/rtl838x/librtl838x.o
                0x0000000083f7a6b0                LED_STS_CTRL_7_RTL8380_FIELDS
 .data.LED_STS_CTRL_6_RTL8380_FIELDS
                0x0000000083f7a710       0x60 board/Realtek/rtl838x/librtl838x.o
                0x0000000083f7a710                LED_STS_CTRL_6_RTL8380_FIELDS
 .data.LED_STS_CTRL_5_RTL8380_FIELDS
                0x0000000083f7a770       0x28 board/Realtek/rtl838x/librtl838x.o
                0x0000000083f7a770                LED_STS_CTRL_5_RTL8380_FIELDS
 .data.LED_STS_CTRL_4_RTL8380_FIELDS
                0x0000000083f7a798       0x60 board/Realtek/rtl838x/librtl838x.o
                0x0000000083f7a798                LED_STS_CTRL_4_RTL8380_FIELDS
 .data.LED_STS_CTRL_3_RTL8380_FIELDS
                0x0000000083f7a7f8       0x60 board/Realtek/rtl838x/librtl838x.o
                0x0000000083f7a7f8                LED_STS_CTRL_3_RTL8380_FIELDS
 .data.LED_STS_CTRL_2_RTL8380_FIELDS
                0x0000000083f7a858       0x28 board/Realtek/rtl838x/librtl838x.o
                0x0000000083f7a858                LED_STS_CTRL_2_RTL8380_FIELDS
 .data.LED_STS_CTRL_1_RTL8380_FIELDS
                0x0000000083f7a880       0x60 board/Realtek/rtl838x/librtl838x.o
                0x0000000083f7a880                LED_STS_CTRL_1_RTL8380_FIELDS
 .data.LED_STS_CTRL_0_RTL8380_FIELDS
                0x0000000083f7a8e0       0x60 board/Realtek/rtl838x/librtl838x.o
                0x0000000083f7a8e0                LED_STS_CTRL_0_RTL8380_FIELDS
 .data.LED_LOAD_LV3_RTL8380_FIELDS
                0x0000000083f7a940       0x10 board/Realtek/rtl838x/librtl838x.o
                0x0000000083f7a940                LED_LOAD_LV3_RTL8380_FIELDS
 .data.LED_LOAD_LV2_RTL8380_FIELDS
                0x0000000083f7a950       0x10 board/Realtek/rtl838x/librtl838x.o
                0x0000000083f7a950                LED_LOAD_LV2_RTL8380_FIELDS
 .data.LED_LOAD_LV1_RTL8380_FIELDS
                0x0000000083f7a960       0x10 board/Realtek/rtl838x/librtl838x.o
                0x0000000083f7a960                LED_LOAD_LV1_RTL8380_FIELDS
 .data.EXT_GPIO_INDRT_ACCESS_RTL8380_FIELDS
                0x0000000083f7a970       0x30 board/Realtek/rtl838x/librtl838x.o
                0x0000000083f7a970                EXT_GPIO_INDRT_ACCESS_RTL8380_FIELDS
 .data.EXT_GPIO_DATA_CTRL_1_RTL8380_FIELDS
                0x0000000083f7a9a0       0x10 board/Realtek/rtl838x/librtl838x.o
                0x0000000083f7a9a0                EXT_GPIO_DATA_CTRL_1_RTL8380_FIELDS
 .data.EXT_GPIO_DATA_CTRL_0_RTL8380_FIELDS
                0x0000000083f7a9b0        0x8 board/Realtek/rtl838x/librtl838x.o
                0x0000000083f7a9b0                EXT_GPIO_DATA_CTRL_0_RTL8380_FIELDS
 .data.EXT_GPIO_DIR_CTRL_1_RTL8380_FIELDS
                0x0000000083f7a9b8       0x10 board/Realtek/rtl838x/librtl838x.o
                0x0000000083f7a9b8                EXT_GPIO_DIR_CTRL_1_RTL8380_FIELDS
 .data.EXT_GPIO_DIR_CTRL_0_RTL8380_FIELDS
                0x0000000083f7a9c8        0x8 board/Realtek/rtl838x/librtl838x.o
                0x0000000083f7a9c8                EXT_GPIO_DIR_CTRL_0_RTL8380_FIELDS
 .data.LED_SW_P_CTRL_RTL8380_FIELDS
                0x0000000083f7a9d0       0x20 board/Realtek/rtl838x/librtl838x.o
                0x0000000083f7a9d0                LED_SW_P_CTRL_RTL8380_FIELDS
 .data.LED2_SW_P_EN_CTRL_RTL8380_FIELDS
                0x0000000083f7a9f0       0x10 board/Realtek/rtl838x/librtl838x.o
                0x0000000083f7a9f0                LED2_SW_P_EN_CTRL_RTL8380_FIELDS
 .data.LED1_SW_P_EN_CTRL_RTL8380_FIELDS
                0x0000000083f7aa00       0x10 board/Realtek/rtl838x/librtl838x.o
                0x0000000083f7aa00                LED1_SW_P_EN_CTRL_RTL8380_FIELDS
 .data.LED0_SW_P_EN_CTRL_RTL8380_FIELDS
                0x0000000083f7aa10       0x10 board/Realtek/rtl838x/librtl838x.o
                0x0000000083f7aa10                LED0_SW_P_EN_CTRL_RTL8380_FIELDS
 .data.LED_SW_CTRL_RTL8380_FIELDS
                0x0000000083f7aa20       0x18 board/Realtek/rtl838x/librtl838x.o
                0x0000000083f7aa20                LED_SW_CTRL_RTL8380_FIELDS
 .data.LED_P_EN_CTRL_RTL8380_FIELDS
                0x0000000083f7aa38       0x10 board/Realtek/rtl838x/librtl838x.o
                0x0000000083f7aa38                LED_P_EN_CTRL_RTL8380_FIELDS
 .data.LED_MODE_CTRL_RTL8380_FIELDS
                0x0000000083f7aa48       0x38 board/Realtek/rtl838x/librtl838x.o
                0x0000000083f7aa48                LED_MODE_CTRL_RTL8380_FIELDS
 .data.LED_MODE_SEL_RTL8380_FIELDS
                0x0000000083f7aa80       0x18 board/Realtek/rtl838x/librtl838x.o
                0x0000000083f7aa80                LED_MODE_SEL_RTL8380_FIELDS
 .data.LED_GLB_CTRL_RTL8380_FIELDS
                0x0000000083f7aa98       0x88 board/Realtek/rtl838x/librtl838x.o
                0x0000000083f7aa98                LED_GLB_CTRL_RTL8380_FIELDS
 .data.EXTENDED_FEATURE_CTRL0_RTL8380_FIELDS
                0x0000000083f7ab20       0x18 board/Realtek/rtl838x/librtl838x.o
                0x0000000083f7ab20                EXTENDED_FEATURE_CTRL0_RTL8380_FIELDS
 .data.SDS_CFG_REG_RTL8380_FIELDS
                0x0000000083f7ab38       0x48 board/Realtek/rtl838x/librtl838x.o
                0x0000000083f7ab38                SDS_CFG_REG_RTL8380_FIELDS
 .data.SDS_MODEL_NO_REG1_RTL8380_FIELDS
                0x0000000083f7ab80       0x10 board/Realtek/rtl838x/librtl838x.o
                0x0000000083f7ab80                SDS_MODEL_NO_REG1_RTL8380_FIELDS
 .data.SDS_MODEL_NO_REG0_RTL8380_FIELDS
                0x0000000083f7ab90       0x18 board/Realtek/rtl838x/librtl838x.o
                0x0000000083f7ab90                SDS_MODEL_NO_REG0_RTL8380_FIELDS
 .data.SDS_MODE_SEL_RTL8380_FIELDS
                0x0000000083f7aba8       0x38 board/Realtek/rtl838x/librtl838x.o
                0x0000000083f7aba8                SDS_MODE_SEL_RTL8380_FIELDS
 .data.SDS5_INTF_CTRL_RTL8380_FIELDS
                0x0000000083f7abe0       0xa0 board/Realtek/rtl838x/librtl838x.o
                0x0000000083f7abe0                SDS5_INTF_CTRL_RTL8380_FIELDS
 .data.SDS4_INTF_CTRL_RTL8380_FIELDS
                0x0000000083f7ac80       0xf8 board/Realtek/rtl838x/librtl838x.o
                0x0000000083f7ac80                SDS4_INTF_CTRL_RTL8380_FIELDS
 .data.EXT_PHY_20_23_CTRL_RTL8380_FIELDS
                0x0000000083f7ad78       0xc8 board/Realtek/rtl838x/librtl838x.o
                0x0000000083f7ad78                EXT_PHY_20_23_CTRL_RTL8380_FIELDS
 .data.EXT_PHY_16_19_CTRL_RTL8380_FIELDS
                0x0000000083f7ae40       0xc8 board/Realtek/rtl838x/librtl838x.o
                0x0000000083f7ae40                EXT_PHY_16_19_CTRL_RTL8380_FIELDS
 .data.EXT_PHY_4_7_CTRL_RTL8380_FIELDS
                0x0000000083f7af08       0xc8 board/Realtek/rtl838x/librtl838x.o
                0x0000000083f7af08                EXT_PHY_4_7_CTRL_RTL8380_FIELDS
 .data.EXT_PHY_0_3_CTRL_RTL8380_FIELDS
                0x0000000083f7afd0       0xc8 board/Realtek/rtl838x/librtl838x.o
                0x0000000083f7afd0                EXT_PHY_0_3_CTRL_RTL8380_FIELDS
 .data.INT_GPHY_5_7_CTRL_RTL8380_FIELDS
                0x0000000083f7b098       0x98 board/Realtek/rtl838x/librtl838x.o
                0x0000000083f7b098                INT_GPHY_5_7_CTRL_RTL8380_FIELDS
 .data.INT_GPHY_0_4_CTRL_RTL8380_FIELDS
                0x0000000083f7b130       0xf8 board/Realtek/rtl838x/librtl838x.o
                0x0000000083f7b130                INT_GPHY_0_4_CTRL_RTL8380_FIELDS
 .data.RGMII1_INTF_CTRL_RTL8380_FIELDS
                0x0000000083f7b228       0x30 board/Realtek/rtl838x/librtl838x.o
                0x0000000083f7b228                RGMII1_INTF_CTRL_RTL8380_FIELDS
 .data.GMII_INTF_CTRL_RTL8380_FIELDS
                0x0000000083f7b258       0x40 board/Realtek/rtl838x/librtl838x.o
                0x0000000083f7b258                GMII_INTF_CTRL_RTL8380_FIELDS
 .data.GMII_INTF_SEL_RTL8380_FIELDS
                0x0000000083f7b298       0x20 board/Realtek/rtl838x/librtl838x.o
                0x0000000083f7b298                GMII_INTF_SEL_RTL8380_FIELDS
 .data.rtk_maple_reg_list
                0x0000000083f7b2b8     0x6b58 board/Realtek/rtl838x/librtl838x.o
                0x0000000083f7b2b8                rtk_maple_reg_list
 .data.RTL8380_VLAN_EGR_CNVT_FIELDS
                0x0000000083f81e10       0x68 board/Realtek/rtl838x/librtl838x.o
                0x0000000083f81e10                RTL8380_VLAN_EGR_CNVT_FIELDS
 .data.RTL8380_VLAN_FIELDS
                0x0000000083f81e78       0x14 board/Realtek/rtl838x/librtl838x.o
                0x0000000083f81e78                RTL8380_VLAN_FIELDS
 .data.RTL8380_UNTAG_FIELDS
                0x0000000083f81e8c        0x4 board/Realtek/rtl838x/librtl838x.o
                0x0000000083f81e8c                RTL8380_UNTAG_FIELDS
 .data.RTL8380_ROUTING_FIELDS
                0x0000000083f81e90        0x4 board/Realtek/rtl838x/librtl838x.o
                0x0000000083f81e90                RTL8380_ROUTING_FIELDS
 .data.RTL8380_MSTI_FIELDS
                0x0000000083f81e94       0x74 board/Realtek/rtl838x/librtl838x.o
                0x0000000083f81e94                RTL8380_MSTI_FIELDS
 .data.RTL8380_MC_PMSK_FIELDS
                0x0000000083f81f08        0x4 board/Realtek/rtl838x/librtl838x.o
                0x0000000083f81f08                RTL8380_MC_PMSK_FIELDS
 .data.RTL8380_LOG_FIELDS
                0x0000000083f81f0c        0x4 board/Realtek/rtl838x/librtl838x.o
                0x0000000083f81f0c                RTL8380_LOG_FIELDS
 .data.RTL8380_L2_UC_FIELDS
                0x0000000083f81f10       0x30 board/Realtek/rtl838x/librtl838x.o
                0x0000000083f81f10                RTL8380_L2_UC_FIELDS
 .data.RTL8380_L2_NEXT_HOP_LEGACY_FIELDS
                0x0000000083f81f40       0x1c board/Realtek/rtl838x/librtl838x.o
                0x0000000083f81f40                RTL8380_L2_NEXT_HOP_LEGACY_FIELDS
 .data.RTL8380_L2_NEXT_HOP_FIELDS
                0x0000000083f81f5c       0x34 board/Realtek/rtl838x/librtl838x.o
                0x0000000083f81f5c                RTL8380_L2_NEXT_HOP_FIELDS
 .data.RTL8380_L2_MC_FIELDS
                0x0000000083f81f90       0x18 board/Realtek/rtl838x/librtl838x.o
                0x0000000083f81f90                RTL8380_L2_MC_FIELDS
 .data.RTL8380_L2_IP_MC_SIP_FIELDS
                0x0000000083f81fa8       0x18 board/Realtek/rtl838x/librtl838x.o
                0x0000000083f81fa8                RTL8380_L2_IP_MC_SIP_FIELDS
 .data.RTL8380_L2_IP_MC_FIELDS
                0x0000000083f81fc0       0x14 board/Realtek/rtl838x/librtl838x.o
                0x0000000083f81fc0                RTL8380_L2_IP_MC_FIELDS
 .data.RTL8380_L2_CAM_UC_FIELDS
                0x0000000083f81fd4       0x30 board/Realtek/rtl838x/librtl838x.o
                0x0000000083f81fd4                RTL8380_L2_CAM_UC_FIELDS
 .data.RTL8380_L2_CAM_MC_FIELDS
                0x0000000083f82004       0x18 board/Realtek/rtl838x/librtl838x.o
                0x0000000083f82004                RTL8380_L2_CAM_MC_FIELDS
 .data.RTL8380_L2_CAM_IP_MC_SIP_FIELDS
                0x0000000083f8201c       0x18 board/Realtek/rtl838x/librtl838x.o
                0x0000000083f8201c                RTL8380_L2_CAM_IP_MC_SIP_FIELDS
 .data.RTL8380_L2_CAM_IP_MC_FIELDS
                0x0000000083f82034       0x14 board/Realtek/rtl838x/librtl838x.o
                0x0000000083f82034                RTL8380_L2_CAM_IP_MC_FIELDS
 .data.RTL8380_IACL_FIELDS
                0x0000000083f82048      0x12c board/Realtek/rtl838x/librtl838x.o
                0x0000000083f82048                RTL8380_IACL_FIELDS
 .data.rtk_maple_table_list
                0x0000000083f82174      0x1b0 board/Realtek/rtl838x/librtl838x.o
                0x0000000083f82174                rtk_maple_table_list
 .data.phy_8380sds_info
                0x0000000083f82324       0x48 board/Realtek/rtl838x/librtl838x.o
                0x0000000083f82324                phy_8380sds_info
 .data.rtl8380_macdrv
                0x0000000083f8236c       0x64 board/Realtek/rtl838x/librtl838x.o
                0x0000000083f8236c                rtl8380_macdrv
                0x0000000083f823d0                . = ALIGN (0x4)
 *(EXCLUDE_FILE(arch/mips/cpu/mips4kec/rtl838x/librtl838x.o) .sdata*)
                0x0000000083f823d0                . = ALIGN (0x4)
 *(EXCLUDE_FILE(arch/mips/cpu/mips4kec/rtl838x/librtl838x.o) .rodata*)
 .rodata.str1.4
                0x0000000083f823d0       0x16 arch/mips/cpu/mips4kec/libmips4kec.o
                                         0x18 (size before relaxing)
 *fill*         0x0000000083f823e6        0x2 
 .rodata.str1.4
                0x0000000083f823e8      0x3a9 arch/mips/lib/libmips.o
                                        0x3b0 (size before relaxing)
 *fill*         0x0000000083f82791        0x3 
 .rodata.flash_init
                0x0000000083f82794       0x3c arch/mips/lib/libmips.o
 .rodata.str1.4
                0x0000000083f827d0     0x2fd2 common/libcommon.o
                                       0x31f0 (size before relaxing)
 *fill*         0x0000000083f857a2        0x2 
 .rodata.boot_os
                0x0000000083f857a4       0x4c common/libcommon.o
 .rodata.__func__.3666
                0x0000000083f857f0       0x10 common/libcommon.o
 .rodata.__func__.3700
                0x0000000083f85800       0x10 common/libcommon.o
 .rodata.version_string
                0x0000000083f85810       0x34 common/libcommon.o
                0x0000000083f85810                version_string
 .rodata.CSWTCH.56
                0x0000000083f85844       0x18 common/libcommon.o
 .rodata.__func__.3276
                0x0000000083f8585c        0xc common/libcommon.o
 .rodata.__func__.3269
                0x0000000083f85868       0x10 common/libcommon.o
 .rodata.default_environment
                0x0000000083f85878      0x104 common/libcommon.o
                0x0000000083f85878                default_environment
 .rodata.__func__.3350
                0x0000000083f8597c        0x8 common/libcommon.o
 .rodata.uimage_comp
                0x0000000083f85984       0x48 common/libcommon.o
 .rodata.uimage_type
                0x0000000083f859cc       0xc0 common/libcommon.o
 .rodata.uimage_os
                0x0000000083f85a8c       0x54 common/libcommon.o
 .rodata.uimage_arch
                0x0000000083f85ae0       0xf0 common/libcommon.o
 .rodata.readline_into_buffer
                0x0000000083f85bd0       0x20 common/libcommon.o
 .rodata.tab_seq
                0x0000000083f85bf0        0xc common/libcommon.o
 .rodata.erase_seq
                0x0000000083f85bfc        0x4 common/libcommon.o
 .rodata.srec_decode
                0x0000000083f85c00       0x28 common/libcommon.o
 .rodata.CSWTCH.32
                0x0000000083f85c28       0x20 common/libcommon.o
 *fill*         0x0000000083f85c48        0x8 
 .rodata        0x0000000083f85c50       0x30 drivers/rtc/librtc.o
 .rodata.crc16_tab
                0x0000000083f85c80      0x200 lib/libgeneric.o
 .rodata.crc_table
                0x0000000083f85e80      0x400 lib/libgeneric.o
 .rodata.str1.4
                0x0000000083f86280      0x142 lib/libgeneric.o
                                        0x154 (size before relaxing)
 *fill*         0x0000000083f863c2        0x2 
 .rodata._ctype
                0x0000000083f863c4      0x100 lib/libgeneric.o
                0x0000000083f863c4                _ctype
 .rodata.digits.3124
                0x0000000083f864c4       0x10 lib/libgeneric.o
 .rodata.hex_asc
                0x0000000083f864d4       0x14 lib/libgeneric.o
                0x0000000083f864d4                hex_asc
 .rodata.kLiteralNextStates
                0x0000000083f864e8       0x18 lib/lzma/liblzma.o
 .rodata.str1.4
                0x0000000083f86500      0x23d lib/zlib/libz.o
                                        0x244 (size before relaxing)
 *fill*         0x0000000083f8673d        0x3 
 .rodata.inflate
                0x0000000083f86740       0x74 lib/zlib/libz.o
 .rodata.order.3458
                0x0000000083f867b4       0x28 lib/zlib/libz.o
 .rodata.dext.3365
                0x0000000083f867dc       0x40 lib/zlib/libz.o
 .rodata.dbase.3364
                0x0000000083f8681c       0x40 lib/zlib/libz.o
 .rodata.lext.3363
                0x0000000083f8685c       0x40 lib/zlib/libz.o
 .rodata.lbase.3362
                0x0000000083f8689c       0x40 lib/zlib/libz.o
 .rodata.distfix
                0x0000000083f868dc       0x80 lib/zlib/libz.o
 .rodata.lenfix
                0x0000000083f8695c      0x800 lib/zlib/libz.o
 *fill*         0x0000000083f8715c        0x4 
 .rodata        0x0000000083f87160       0x20 net/libnet.o
 .rodata.str1.4
                0x0000000083f87180      0x688 net/libnet.o
                                        0x70c (size before relaxing)
 .rodata.NetLoop
                0x0000000083f87808       0x34 net/libnet.o
 .rodata.TftpSend
                0x0000000083f8783c       0x1c net/libnet.o
 *fill*         0x0000000083f87858        0x8 
 .rodata        0x0000000083f87860      0x1c0 board/Realtek/rtl838x/librtl838x.o
 .rodata.str1.4
                0x0000000083f87a20     0x5d20 board/Realtek/rtl838x/librtl838x.o
                                       0x65a8 (size before relaxing)
 .rodata.__FUNCTION__.3679
                0x0000000083f8d740        0xc board/Realtek/rtl838x/librtl838x.o
 .rodata.__FUNCTION__.3652
                0x0000000083f8d74c        0xc board/Realtek/rtl838x/librtl838x.o
 .rodata.__FUNCTION__.3630
                0x0000000083f8d758       0x14 board/Realtek/rtl838x/librtl838x.o
 .rodata.__FUNCTION__.3414
                0x0000000083f8d76c       0x10 board/Realtek/rtl838x/librtl838x.o
 .rodata.__FUNCTION__.3375
                0x0000000083f8d77c        0xc board/Realtek/rtl838x/librtl838x.o
 .rodata.__FUNCTION__.3353
                0x0000000083f8d788       0x14 board/Realtek/rtl838x/librtl838x.o
 .rodata.__FUNCTION__.3331
                0x0000000083f8d79c       0x18 board/Realtek/rtl838x/librtl838x.o
 .rodata.__FUNCTION__.3305
                0x0000000083f8d7b4       0x14 board/Realtek/rtl838x/librtl838x.o
 .rodata.__FUNCTION__.3279
                0x0000000083f8d7c8       0x10 board/Realtek/rtl838x/librtl838x.o
 .rodata.__FUNCTION__.3257
                0x0000000083f8d7d8       0x14 board/Realtek/rtl838x/librtl838x.o
 .rodata.__FUNCTION__.3235
                0x0000000083f8d7ec       0x14 board/Realtek/rtl838x/librtl838x.o
 .rodata.__FUNCTION__.3213
                0x0000000083f8d800       0x18 board/Realtek/rtl838x/librtl838x.o
 .rodata.toggle_pattern
                0x0000000083f8d818       0x30 board/Realtek/rtl838x/librtl838x.o
                0x0000000083f8d818                toggle_pattern
 .rodata.line_toggle_pattern
                0x0000000083f8d848       0x20 board/Realtek/rtl838x/librtl838x.o
                0x0000000083f8d848                line_toggle_pattern
 .rodata.dram_patterns
                0x0000000083f8d868       0x50 board/Realtek/rtl838x/librtl838x.o
                0x0000000083f8d868                dram_patterns
 .rodata.sdk_get_paritition_info
                0x0000000083f8d8b8       0x20 board/Realtek/rtl838x/librtl838x.o
 .rodata.partitions
                0x0000000083f8d8d8       0x90 board/Realtek/rtl838x/librtl838x.o
                0x0000000083f8d8d8                partitions
 .rodata.__FUNCTION__.8331
                0x0000000083f8d968        0xc board/Realtek/rtl838x/librtl838x.o
 .rodata.hwp_defaultProfilePort_build
                0x0000000083f8d974       0x3c board/Realtek/rtl838x/librtl838x.o
 .rodata.nic_db
                0x0000000083f8d9b0       0x10 board/Realtek/rtl838x/librtl838x.o
 .rodata.__FUNCTION__.9057
                0x0000000083f8d9c0       0x10 board/Realtek/rtl838x/librtl838x.o
 .rodata.rtl8231_db
                0x0000000083f8d9d0       0x10 board/Realtek/rtl838x/librtl838x.o
 .rodata.gpio_db
                0x0000000083f8d9e0       0x10 board/Realtek/rtl838x/librtl838x.o
 .rodata.i2c_db
                0x0000000083f8d9f0       0x10 board/Realtek/rtl838x/librtl838x.o
 .rodata.phy_construct_config_init
                0x0000000083f8da00       0x48 board/Realtek/rtl838x/librtl838x.o
 .rodata._phy_probe_defaultProfilePort_update
                0x0000000083f8da48       0x8c board/Realtek/rtl838x/librtl838x.o
 .rodata.__FUNCTION__.23634
                0x0000000083f8dad4       0x10 board/Realtek/rtl838x/librtl838x.o
 .rodata._dal_phy_debug_batch_entry_print
                0x0000000083f8dae4       0x2c board/Realtek/rtl838x/librtl838x.o
 .rodata._dal_phy_debug_batch_run_op
                0x0000000083f8db10       0x20 board/Realtek/rtl838x/librtl838x.o
 .rodata.dal_phy_debug_batch_op_set
                0x0000000083f8db30       0x34 board/Realtek/rtl838x/librtl838x.o
 .rodata.__FUNCTION__.31341
                0x0000000083f8db64       0x20 board/Realtek/rtl838x/librtl838x.o
 .rodata.__FUNCTION__.31328
                0x0000000083f8db84       0x18 board/Realtek/rtl838x/librtl838x.o
 .rodata.__FUNCTION__.31313
                0x0000000083f8db9c       0x1c board/Realtek/rtl838x/librtl838x.o
 .rodata.__FUNCTION__.31298
                0x0000000083f8dbb8       0x20 board/Realtek/rtl838x/librtl838x.o
 .rodata.__FUNCTION__.31285
                0x0000000083f8dbd8       0x20 board/Realtek/rtl838x/librtl838x.o
 .rodata.__FUNCTION__.31268
                0x0000000083f8dbf8       0x1c board/Realtek/rtl838x/librtl838x.o
 .rodata.__FUNCTION__.31251
                0x0000000083f8dc14       0x20 board/Realtek/rtl838x/librtl838x.o
 .rodata.__FUNCTION__.31221
                0x0000000083f8dc34       0x18 board/Realtek/rtl838x/librtl838x.o
 .rodata.__FUNCTION__.31214
                0x0000000083f8dc4c       0x20 board/Realtek/rtl838x/librtl838x.o
 .rodata.__FUNCTION__.31206
                0x0000000083f8dc6c       0x20 board/Realtek/rtl838x/librtl838x.o
 .rodata.__FUNCTION__.31192
                0x0000000083f8dc8c       0x1c board/Realtek/rtl838x/librtl838x.o
 .rodata.__FUNCTION__.30699
                0x0000000083f8dca8       0x10 board/Realtek/rtl838x/librtl838x.o
 .rodata.__FUNCTION__.22664
                0x0000000083f8dcb8        0xc board/Realtek/rtl838x/librtl838x.o
 .rodata.phy_8214fc_ledCtrl_get
                0x0000000083f8dcc4       0x20 board/Realtek/rtl838x/librtl838x.o
 .rodata.phy_8214fc_ledCtrl_set
                0x0000000083f8dce4       0x20 board/Realtek/rtl838x/librtl838x.o
 .rodata.__FUNCTION__.4119
                0x0000000083f8dd04        0xc board/Realtek/rtl838x/librtl838x.o
 .rodata.reasonTbl
                0x0000000083f8dd10       0x80 board/Realtek/rtl838x/librtl838x.o
 .rodata.__FUNCTION__.7581
                0x0000000083f8dd90       0x14 board/Realtek/rtl838x/librtl838x.o
 .rodata.__FUNCTION__.7795
                0x0000000083f8dda4       0x10 board/Realtek/rtl838x/librtl838x.o
 .rodata.__FUNCTION__.7075
                0x0000000083f8ddb4       0x14 board/Realtek/rtl838x/librtl838x.o
 .rodata.rtl8380_serdes_soft_reset_release
                0x0000000083f8ddc8       0x30 board/Realtek/rtl838x/librtl838x.o
 .rodata.rtl8380_serdes5_nophy_6275b
                0x0000000083f8ddf8       0x88 board/Realtek/rtl838x/librtl838x.o
 .rodata.rtl8380_serdes5_fiber_6275b
                0x0000000083f8de80       0x90 board/Realtek/rtl838x/librtl838x.o
 .rodata.rtl8380_serdes5_rsgmii_6275b
                0x0000000083f8df10       0x80 board/Realtek/rtl838x/librtl838x.o
 .rodata.rtl8380_serdes4_nophy_6275b
                0x0000000083f8df90       0x58 board/Realtek/rtl838x/librtl838x.o
 .rodata.rtl8380_serdes4_fiber_6275b
                0x0000000083f8dfe8       0x60 board/Realtek/rtl838x/librtl838x.o
 .rodata.rtl8380_serdes4_rsgmiip_6275b
                0x0000000083f8e048       0x58 board/Realtek/rtl838x/librtl838x.o
 .rodata.rtl8380_serdes4_qsgmii_6275b
                0x0000000083f8e0a0       0x58 board/Realtek/rtl838x/librtl838x.o
 .rodata.rtl8380_serdes4_rsgmii_6275b
                0x0000000083f8e0f8       0x88 board/Realtek/rtl838x/librtl838x.o
 .rodata.rtl8380_serdes23_xsmii_6275b
                0x0000000083f8e180      0x108 board/Realtek/rtl838x/librtl838x.o
 .rodata.rtl8380_serdes23_qsgmii_6275b_8218d_e
                0x0000000083f8e288       0xa8 board/Realtek/rtl838x/librtl838x.o
 .rodata.rtl8380_serdes23_qsgmii_6275b
                0x0000000083f8e330       0xa8 board/Realtek/rtl838x/librtl838x.o
 .rodata.rtl8380_serdes23_rsgmiip_6275b
                0x0000000083f8e3d8       0xa8 board/Realtek/rtl838x/librtl838x.o
 .rodata.rtl8380_serdes5_nophy_6275a
                0x0000000083f8e480       0xb0 board/Realtek/rtl838x/librtl838x.o
 .rodata.rtl8380_serdes5_fiber_6275a
                0x0000000083f8e530       0xb0 board/Realtek/rtl838x/librtl838x.o
 .rodata.rtl8380_serdes5_rsgmii_6275a
                0x0000000083f8e5e0       0xa0 board/Realtek/rtl838x/librtl838x.o
 .rodata.rtl8380_serdes4_nophy_6275a
                0x0000000083f8e680       0x58 board/Realtek/rtl838x/librtl838x.o
 .rodata.rtl8380_serdes4_fiber_6275a
                0x0000000083f8e6d8       0x58 board/Realtek/rtl838x/librtl838x.o
 .rodata.rtl8380_serdes4_rsgmiip_6275a
                0x0000000083f8e730       0x48 board/Realtek/rtl838x/librtl838x.o
 .rodata.rtl8380_serdes4_qsgmii_6275a
                0x0000000083f8e778       0x48 board/Realtek/rtl838x/librtl838x.o
 .rodata.rtl8380_serdes4_rsgmii_6275a
                0x0000000083f8e7c0       0xa0 board/Realtek/rtl838x/librtl838x.o
 .rodata.rtl8380_serdes23_xsmii_6275a
                0x0000000083f8e860      0x140 board/Realtek/rtl838x/librtl838x.o
 .rodata.rtl8380_serdes23_qsgmii_6275a
                0x0000000083f8e9a0       0x88 board/Realtek/rtl838x/librtl838x.o
 .rodata.rtl8380_serdes23_rsgmiip_6275a
                0x0000000083f8ea28       0x88 board/Realtek/rtl838x/librtl838x.o
 .rodata.rtl8380_serdes_common_patch
                0x0000000083f8eab0       0x80 board/Realtek/rtl838x/librtl838x.o
 .rodata.rtl8380_serdes_soft_reset_take
                0x0000000083f8eb30       0x40 board/Realtek/rtl838x/librtl838x.o
 .rodata.__FUNCTION__.31450
                0x0000000083f8eb70       0x14 board/Realtek/rtl838x/librtl838x.o
                0x0000000083f8eb84                . = ALIGN (0x4)
                0x0000000083f8eb84                __u_boot_cmd_start = .
 *(.u_boot_cmd)
 .u_boot_cmd    0x0000000083f8eb84       0x1c arch/mips/lib/libmips.o
                0x0000000083f8eb84                __u_boot_cmd_sleep
 .u_boot_cmd    0x0000000083f8eba0      0x39c common/libcommon.o
                0x0000000083f8eba0                __u_boot_cmd_reset
                0x0000000083f8ebbc                __u_boot_cmd_go
                0x0000000083f8ebd8                __u_boot_cmd_boota
                0x0000000083f8ebf4                __u_boot_cmd_iminfo
                0x0000000083f8ec10                __u_boot_cmd_bootm
                0x0000000083f8ec2c                __u_boot_cmd_protect
                0x0000000083f8ec48                __u_boot_cmd_erase
                0x0000000083f8ec64                __u_boot_cmd_flinfo
                0x0000000083f8ec80                __u_boot_cmd_question_mark
                0x0000000083f8ec9c                __u_boot_cmd_help
                0x0000000083f8ecb8                __u_boot_cmd_loady
                0x0000000083f8ecd4                __u_boot_cmd_loadb
                0x0000000083f8ecf0                __u_boot_cmd_loads
                0x0000000083f8ed0c                __u_boot_cmd_mtest
                0x0000000083f8ed28                __u_boot_cmd_loop
                0x0000000083f8ed44                __u_boot_cmd_base
                0x0000000083f8ed60                __u_boot_cmd_crc32
                0x0000000083f8ed7c                __u_boot_cmd_cmp
                0x0000000083f8ed98                __u_boot_cmd_cp
                0x0000000083f8edb4                __u_boot_cmd_mw
                0x0000000083f8edd0                __u_boot_cmd_nm
                0x0000000083f8edec                __u_boot_cmd_mm
                0x0000000083f8ee08                __u_boot_cmd_md
                0x0000000083f8ee24                __u_boot_cmd_ping
                0x0000000083f8ee40                __u_boot_cmd_tftpboot
                0x0000000083f8ee5c                __u_boot_cmd_bootp
                0x0000000083f8ee78                __u_boot_cmd_run
                0x0000000083f8ee94                __u_boot_cmd_setenv
                0x0000000083f8eeb0                __u_boot_cmd_printenv
                0x0000000083f8eecc                __u_boot_cmd_env
                0x0000000083f8eee8                __u_boot_cmd_saveenv
                0x0000000083f8ef04                __u_boot_cmd_sf
                0x0000000083f8ef20                __u_boot_cmd_version
 .u_boot_cmd    0x0000000083f8ef3c       0xe0 board/Realtek/rtl838x/librtl838x.o
                0x0000000083f8ef3c                __u_boot_cmd_mdram_test
                0x0000000083f8ef58                __u_boot_cmd_savesys
                0x0000000083f8ef74                __u_boot_cmd_setsys
                0x0000000083f8ef90                __u_boot_cmd_printsys
                0x0000000083f8efac                __u_boot_cmd_upgrade
                0x0000000083f8efc8                __u_boot_cmd_flshow
                0x0000000083f8efe4                __u_boot_cmd_flerase
                0x0000000083f8f000                __u_boot_cmd_rtk
                0x0000000083f8f01c                __u_boot_cmd_end = .
                0x0000000083f8f01c                . = ALIGN (0x4)
 *(.rel.dyn)
 .rel.dyn       0x0000000083f8f01c       0x10 arch/mips/lib/libmips.o
                0x000000009fc06f84                uboot_start = LOADADDR (.dram)
                0x000000000008f02c                uboot_size = SIZEOF (.dram)
                0x0000000083f8f02c                . = ALIGN (0x4)
                0x0000000083f8f02c                uboot_end_data = .

.sbss
 *(EXCLUDE_FILE(arch/mips/cpu/mips4kec/rtl838x/librtl838x.o) .sbss*)
                0x0000000083f8f02c                . = ALIGN (0x4)

.bss            0x0000000083f8f02c    0x1d508 load address 0x0000000000200000
 *(EXCLUDE_FILE(arch/mips/cpu/mips4kec/rtl838x/librtl838x.o) .bss*)
 .bss.linux_env_idx
                0x0000000083f8f02c        0x4 arch/mips/lib/libmips.o
 .bss.linux_env_p
                0x0000000083f8f030        0x4 arch/mips/lib/libmips.o
 .bss.linux_env
                0x0000000083f8f034        0x4 arch/mips/lib/libmips.o
 .bss.linux_argv
                0x0000000083f8f038        0x4 arch/mips/lib/libmips.o
 .bss.linux_argc
                0x0000000083f8f03c        0x4 arch/mips/lib/libmips.o
 .bss._accumulate_time_ms
                0x0000000083f8f040        0x4 arch/mips/lib/libmips.o
 .bss.otto_sf   0x0000000083f8f044       0x20 arch/mips/lib/libmips.o
 .bss.otto_slave
                0x0000000083f8f064        0x8 arch/mips/lib/libmips.o
 .bss.addr_modifier
                0x0000000083f8f06c        0x4 arch/mips/lib/libmips.o
 .bss.erase_unit
                0x0000000083f8f070        0x4 arch/mips/lib/libmips.o
                0x0000000083f8f070                erase_unit
 .bss.wr_boundary
                0x0000000083f8f074        0x4 arch/mips/lib/libmips.o
                0x0000000083f8f074                wr_boundary
 .bss.rdbusy_len_offset
                0x0000000083f8f078        0x1 arch/mips/lib/libmips.o
 .bss.sr_len_offset
                0x0000000083f8f079        0x1 arch/mips/lib/libmips.o
 *fill*         0x0000000083f8f07a        0x2 
 .bss.rd_dummy_byte
                0x0000000083f8f07c        0x4 arch/mips/lib/libmips.o
 .bss.wr_dummy_byte
                0x0000000083f8f080        0x4 arch/mips/lib/libmips.o
 .bss.k_data_escape_saved
                0x0000000083f8f084        0x4 common/libcommon.o
 .bss.k_data_escape
                0x0000000083f8f088        0x4 common/libcommon.o
 .bss.bin_start_address
                0x0000000083f8f08c        0x4 common/libcommon.o
 .bss.os_data_addr_saved
                0x0000000083f8f090        0x4 common/libcommon.o
 .bss.os_data_addr
                0x0000000083f8f094        0x4 common/libcommon.o
 .bss.os_data_state_saved
                0x0000000083f8f098        0x4 common/libcommon.o
 .bss.os_data_state
                0x0000000083f8f09c        0x4 common/libcommon.o
 .bss.a_b       0x0000000083f8f0a0       0x18 common/libcommon.o
 .bss.base_address
                0x0000000083f8f0b8        0x4 common/libcommon.o
 .bss.mm_last_size
                0x0000000083f8f0bc        0x4 common/libcommon.o
 .bss.mm_last_addr
                0x0000000083f8f0c0        0x4 common/libcommon.o
 .bss.dp_last_size
                0x0000000083f8f0c4        0x4 common/libcommon.o
 .bss.dp_last_addr
                0x0000000083f8f0c8        0x4 common/libcommon.o
 .bss.flash     0x0000000083f8f0cc        0x4 common/libcommon.o
 .bss.tmp_buf.3083
                0x0000000083f8f0d0      0x200 common/libcommon.o
 .bss.tmp_buf   0x0000000083f8f2d0      0x200 common/libcommon.o
 .bss.ctrlc_was_pressed
                0x0000000083f8f4d0        0x4 common/libcommon.o
 .bss.ctrlc_disabled
                0x0000000083f8f4d4        0x4 common/libcommon.o
 .bss.current_mallinfo
                0x0000000083f8f4d8       0x28 common/libcommon.o
 .bss.max_total_mem
                0x0000000083f8f500        0x4 common/libcommon.o
 .bss.max_sbrked_mem
                0x0000000083f8f504        0x4 common/libcommon.o
 .bss.top_pad   0x0000000083f8f508        0x4 common/libcommon.o
 .bss.mem_malloc_brk
                0x0000000083f8f50c        0x4 common/libcommon.o
                0x0000000083f8f50c                mem_malloc_brk
 .bss.mem_malloc_end
                0x0000000083f8f510        0x4 common/libcommon.o
                0x0000000083f8f510                mem_malloc_end
 .bss.mem_malloc_start
                0x0000000083f8f514        0x4 common/libcommon.o
                0x0000000083f8f514                mem_malloc_start
 .bss.env_htab  0x0000000083f8f518        0xc common/libcommon.o
                0x0000000083f8f518                env_htab
 .bss.env_flash
                0x0000000083f8f524        0x4 common/libcommon.o
 .bss.initted.3408
                0x0000000083f8f528        0x4 common/libcommon.o
 .bss.lastcommand.3278
                0x0000000083f8f52c      0x200 common/libcommon.o
 .bss.hist_num  0x0000000083f8f72c        0x4 common/libcommon.o
                0x0000000083f8f72c                hist_num
 .bss.hist_add_idx
                0x0000000083f8f730        0x4 common/libcommon.o
 .bss.hist_max  0x0000000083f8f734        0x4 common/libcommon.o
 .bss.prompt_str
                0x0000000083f8f738       0x20 common/libcommon.o
 .bss.stdio_devices
                0x0000000083f8f758        0xc common/libcommon.o
                0x0000000083f8f758                stdio_devices
 .bss.devs      0x0000000083f8f764       0x3c common/libcommon.o
 .bss.xyz       0x0000000083f8f7a0      0x43c common/libcommon.o
 .bss.errno     0x0000000083f8fbdc        0x4 lib/libgeneric.o
                0x0000000083f8fbdc                errno
 .bss.local.3291
                0x0000000083f8fbe0       0x18 lib/libgeneric.o
 .bss.env_changed_id.3701
                0x0000000083f8fbf8        0x4 net/libnet.o
 .bss.act.3700  0x0000000083f8fbfc        0x4 net/libnet.o
 .bss.first_failed.3695
                0x0000000083f8fc00        0x4 net/libnet.o
 .bss.eth_current
                0x0000000083f8fc04        0x4 net/libnet.o
 .bss.eth_devices
                0x0000000083f8fc08        0x4 net/libnet.o
 .bss.mac.3210  0x0000000083f8fc0c        0x8 net/libnet.o
 .bss.env_changed_id.3139
                0x0000000083f8fc14        0x4 net/libnet.o
 .bss.PingSeqNo
                0x0000000083f8fc18        0x2 net/libnet.o
 *fill*         0x0000000083f8fc1a        0x2 
 .bss.NetTryCount
                0x0000000083f8fc1c        0x4 net/libnet.o
 .bss.timeDelta
                0x0000000083f8fc20        0x4 net/libnet.o
 .bss.timeStart
                0x0000000083f8fc24        0x4 net/libnet.o
 .bss.timeHandler
                0x0000000083f8fc28        0x4 net/libnet.o
 .bss.packetHandler
                0x0000000083f8fc2c        0x4 net/libnet.o
 .bss.NetDevExists
                0x0000000083f8fc30        0x4 net/libnet.o
 .bss.NetRestarted
                0x0000000083f8fc34        0x4 net/libnet.o
 .bss.NetOurRootPath
                0x0000000083f8fc38       0x40 net/libnet.o
                0x0000000083f8fc38                NetOurRootPath
 .bss.NetOurHostName
                0x0000000083f8fc78       0x20 net/libnet.o
                0x0000000083f8fc78                NetOurHostName
 .bss.NetOurNISDomain
                0x0000000083f8fc98       0x20 net/libnet.o
                0x0000000083f8fc98                NetOurNISDomain
 .bss.tftp_filename
                0x0000000083f8fcb8       0x80 net/libnet.o
 .bss.default_filename
                0x0000000083f8fd38       0x10 net/libnet.o
 .bss.TftpState
                0x0000000083f8fd48        0x4 net/libnet.o
 .bss.TftpBlockWrapOffset
                0x0000000083f8fd4c        0x4 net/libnet.o
 .bss.TftpBlockWrap
                0x0000000083f8fd50        0x4 net/libnet.o
 .bss.TftpLastBlock
                0x0000000083f8fd54        0x4 net/libnet.o
 .bss.TftpBlock
                0x0000000083f8fd58        0x4 net/libnet.o
 .bss.TftpTimeoutCount
                0x0000000083f8fd5c        0x4 net/libnet.o
 .bss.TftpOurPort
                0x0000000083f8fd60        0x4 net/libnet.o
 .bss.TftpRemotePort
                0x0000000083f8fd64        0x4 net/libnet.o
 .bss.TftpRemoteIP
                0x0000000083f8fd68        0x4 net/libnet.o
 .bss.$19.3452  0x0000000083f8fd6c        0x4 board/Realtek/rtl838x/librtl838x.o
 .bss.$18.3451  0x0000000083f8fd70        0x4 board/Realtek/rtl838x/librtl838x.o
 .bss.$17.3450  0x0000000083f8fd74        0x4 board/Realtek/rtl838x/librtl838x.o
 .bss.sdk_init_times
                0x0000000083f8fd78        0x8 board/Realtek/rtl838x/librtl838x.o
                0x0000000083f8fd78                sdk_init_times
 .bss.glb_sysinfo_addr
                0x0000000083f8fd80        0x4 board/Realtek/rtl838x/librtl838x.o
                0x0000000083f8fd80                glb_sysinfo_addr
 .bss.env_flash
                0x0000000083f8fd84        0xc board/Realtek/rtl838x/librtl838x.o
 .bss.uboot_cmd_unit
                0x0000000083f8fd90        0x4 board/Realtek/rtl838x/librtl838x.o
                0x0000000083f8fd90                uboot_cmd_unit
 .bss.rtk_dev2unitID
                0x0000000083f8fd94       0x40 board/Realtek/rtl838x/librtl838x.o
                0x0000000083f8fd94                rtk_dev2unitID
 .bss.rtk_unit2devID
                0x0000000083f8fdd4       0x40 board/Realtek/rtl838x/librtl838x.o
                0x0000000083f8fdd4                rtk_unit2devID
 .bss.rtcore_init_status
                0x0000000083f8fe14        0x4 board/Realtek/rtl838x/librtl838x.o
                0x0000000083f8fe14                rtcore_init_status
 .bss.hwp_ExternalCpu
                0x0000000083f8fe18        0x4 board/Realtek/rtl838x/librtl838x.o
                0x0000000083f8fe18                hwp_ExternalCpu
 .bss.parsedInfo_cnt
                0x0000000083f8fe1c        0x4 board/Realtek/rtl838x/librtl838x.o
 .bss.hwp_myHwProfile
                0x0000000083f8fe20        0x4 board/Realtek/rtl838x/librtl838x.o
                0x0000000083f8fe20                hwp_myHwProfile
 .bss.hwp_init_sys_status
                0x0000000083f8fe24        0x4 board/Realtek/rtl838x/librtl838x.o
 .bss.hwp_init_status
                0x0000000083f8fe28        0x4 board/Realtek/rtl838x/librtl838x.o
                0x0000000083f8fe28                hwp_init_status
 .bss.hwp_useDefHwp
                0x0000000083f8fe2c        0x4 board/Realtek/rtl838x/librtl838x.o
                0x0000000083f8fe2c                hwp_useDefHwp
 .bss.hra_write_cb
                0x0000000083f8fe30        0x4 board/Realtek/rtl838x/librtl838x.o
                0x0000000083f8fe30                hra_write_cb
 .bss.hra_read_cb
                0x0000000083f8fe34        0x4 board/Realtek/rtl838x/librtl838x.o
                0x0000000083f8fe34                hra_read_cb
 .bss.ioal_phyReset_init_status
                0x0000000083f8fe38        0x4 board/Realtek/rtl838x/librtl838x.o
                0x0000000083f8fe38                ioal_phyReset_init_status
 .bss.ioal_mem32_write_cb
                0x0000000083f8fe3c        0x4 board/Realtek/rtl838x/librtl838x.o
 .bss.ioal_mem32_read_cb
                0x0000000083f8fe40        0x4 board/Realtek/rtl838x/librtl838x.o
 .bss.drv_swcore_early_init
                0x0000000083f8fe44        0x4 board/Realtek/rtl838x/librtl838x.o
                0x0000000083f8fe44                drv_swcore_early_init
 .bss.gIsrRegistered
                0x0000000083f8fe48        0x4 board/Realtek/rtl838x/librtl838x.o
 .bss.my_isr_param
                0x0000000083f8fe4c       0x80 board/Realtek/rtl838x/librtl838x.o
 .bss.gJumboSize
                0x0000000083f8fecc        0x4 board/Realtek/rtl838x/librtl838x.o
 .bss.rxCRCInclude
                0x0000000083f8fed0        0x4 board/Realtek/rtl838x/librtl838x.o
 .bss.cpuTagId  0x0000000083f8fed4        0x4 board/Realtek/rtl838x/librtl838x.o
 .bss.nic_tx_ring_cntr
                0x0000000083f8fed8        0x4 board/Realtek/rtl838x/librtl838x.o
 .bss.nic_tx_isr_cntr
                0x0000000083f8fedc        0x4 board/Realtek/rtl838x/librtl838x.o
 .bss.nic_rx_failed_cntr
                0x0000000083f8fee0        0x4 board/Realtek/rtl838x/librtl838x.o
 .bss.nic_rx_success_cntr
                0x0000000083f8fee4        0x4 board/Realtek/rtl838x/librtl838x.o
 .bss.nic_tx_failed_cntr
                0x0000000083f8fee8        0x4 board/Realtek/rtl838x/librtl838x.o
 .bss.nic_tx_success_cntr
                0x0000000083f8feec        0x4 board/Realtek/rtl838x/librtl838x.o
 .bss.nic_debug_flag
                0x0000000083f8fef0        0x4 board/Realtek/rtl838x/librtl838x.o
 .bss.totalTxRingNum
                0x0000000083f8fef4        0x4 board/Realtek/rtl838x/librtl838x.o
 .bss.totalRxRingNum
                0x0000000083f8fef8        0x4 board/Realtek/rtl838x/librtl838x.o
 .bss.txRingNum
                0x0000000083f8fefc        0x4 board/Realtek/rtl838x/librtl838x.o
 .bss.rxRingNum
                0x0000000083f8ff00        0x4 board/Realtek/rtl838x/librtl838x.o
 .bss.txRingIdSize
                0x0000000083f8ff04        0x4 board/Realtek/rtl838x/librtl838x.o
 .bss.rxRingIdSize
                0x0000000083f8ff08        0x4 board/Realtek/rtl838x/librtl838x.o
 .bss.jumboFlag
                0x0000000083f8ff0c        0x4 board/Realtek/rtl838x/librtl838x.o
 .bss.pPacket   0x0000000083f8ff10        0x4 board/Realtek/rtl838x/librtl838x.o
 .bss.pNic_txRDPIdx
                0x0000000083f8ff14        0x4 board/Realtek/rtl838x/librtl838x.o
 .bss.pNic_rxRDPIdx
                0x0000000083f8ff18        0x4 board/Realtek/rtl838x/librtl838x.o
 .bss.pNic_txCDPIdx
                0x0000000083f8ff1c        0x4 board/Realtek/rtl838x/librtl838x.o
 .bss.pNic_rxCDPIdx
                0x0000000083f8ff20        0x4 board/Realtek/rtl838x/librtl838x.o
 .bss.pNic_txFDPBase
                0x0000000083f8ff24        0x4 board/Realtek/rtl838x/librtl838x.o
 .bss.pNic_rxFDPBase
                0x0000000083f8ff28        0x4 board/Realtek/rtl838x/librtl838x.o
 .bss._nic_init_conf
                0x0000000083f8ff2c       0x14 board/Realtek/rtl838x/librtl838x.o
 .bss._nic_rx_cb_tbl
                0x0000000083f8ff40       0x40 board/Realtek/rtl838x/librtl838x.o
 .bss.nic_init  0x0000000083f8ff80       0x50 board/Realtek/rtl838x/librtl838x.o
 .bss.memUsage  0x0000000083f8ffd0        0x4 board/Realtek/rtl838x/librtl838x.o
 .bss.gUnit     0x0000000083f8ffd4        0x4 board/Realtek/rtl838x/librtl838x.o
 .bss.extGpiodata
                0x0000000083f8ffd8     0x1280 board/Realtek/rtl838x/librtl838x.o
 .bss.extGpioConfEntry
                0x0000000083f91258     0x4800 board/Realtek/rtl838x/librtl838x.o
 .bss.data      0x0000000083f95a58      0x200 board/Realtek/rtl838x/librtl838x.o
 .bss.gpio_sem  0x0000000083f95c58       0x40 board/Realtek/rtl838x/librtl838x.o
 .bss.i2c_sem   0x0000000083f95c98       0x40 board/Realtek/rtl838x/librtl838x.o
 .bss.general_software_i2c_SDA
                0x0000000083f95cd8       0xf8 board/Realtek/rtl838x/librtl838x.o
 .bss.general_software_i2c_SCK
                0x0000000083f95dd0       0xf8 board/Realtek/rtl838x/librtl838x.o
 .bss.software_i2c_INIT_FLAG
                0x0000000083f95ec8       0x7c board/Realtek/rtl838x/librtl838x.o
 .bss.software_i2c_DELAY
                0x0000000083f95f44       0x7c board/Realtek/rtl838x/librtl838x.o
 .bss.software_i2c_CHIPID
                0x0000000083f95fc0       0x7c board/Realtek/rtl838x/librtl838x.o
 .bss.software_i2c_data_width
                0x0000000083f9603c       0x7c board/Realtek/rtl838x/librtl838x.o
 .bss.software_i2c_addr_width
                0x0000000083f960b8       0x7c board/Realtek/rtl838x/librtl838x.o
 .bss.hal_init_sys_status
                0x0000000083f96134        0x4 board/Realtek/rtl838x/librtl838x.o
 .bss.gMiim_phyRevIdInit
                0x0000000083f96138        0x4 board/Realtek/rtl838x/librtl838x.o
                0x0000000083f96138                gMiim_phyRevIdInit
 .bss.p_rtl8218d_cust_conf
                0x0000000083f9613c        0x4 board/Realtek/rtl838x/librtl838x.o
                0x0000000083f9613c                p_rtl8218d_cust_conf
 .bss.rtl8218d_cust_conf_init
                0x0000000083f96140        0x4 board/Realtek/rtl838x/librtl838x.o
                0x0000000083f96140                rtl8218d_cust_conf_init
 .bss.conf_rtl8218d_cust_board_list
                0x0000000083f96144        0x4 board/Realtek/rtl838x/librtl838x.o
                0x0000000083f96144                conf_rtl8218d_cust_board_list
 .bss.phyctrlLnkList
                0x0000000083f96148       0xb0 board/Realtek/rtl838x/librtl838x.o
                0x0000000083f96148                phyctrlLnkList
 .bss.phyctrlLnkList_init
                0x0000000083f961f8        0x4 board/Realtek/rtl838x/librtl838x.o
                0x0000000083f961f8                phyctrlLnkList_init
 .bss.constructEntry_931x
                0x0000000083f961fc       0x44 board/Realtek/rtl838x/librtl838x.o
                0x0000000083f961fc                constructEntry_931x
 .bss.constructEntry_930x
                0x0000000083f96240       0x44 board/Realtek/rtl838x/librtl838x.o
                0x0000000083f96240                constructEntry_930x
 .bss.constructEntry_839x
                0x0000000083f96284       0x44 board/Realtek/rtl838x/librtl838x.o
                0x0000000083f96284                constructEntry_839x
 .bss.mgmt_dal_mapper
                0x0000000083f962c8       0x18 board/Realtek/rtl838x/librtl838x.o
                0x0000000083f962c8                mgmt_dal_mapper
 .bss.mgmt_sem  0x0000000083f962e0        0x4 board/Realtek/rtl838x/librtl838x.o
 .bss.mgmt_unit_sem
                0x0000000083f962e4        0x4 board/Realtek/rtl838x/librtl838x.o
                0x0000000083f962e4                mgmt_unit_sem
 .bss.mgmt_init
                0x0000000083f962e8        0x4 board/Realtek/rtl838x/librtl838x.o
 .bss.batch_err_cnt
                0x0000000083f962ec        0x4 board/Realtek/rtl838x/librtl838x.o
 .bss.batch_output
                0x0000000083f962f0        0x4 board/Realtek/rtl838x/librtl838x.o
 .bss.batch_portmask
                0x0000000083f962f4        0x8 board/Realtek/rtl838x/librtl838x.o
 .bss.batch_port_state
                0x0000000083f962fc        0x4 board/Realtek/rtl838x/librtl838x.o
 .bss.batch_next_index
                0x0000000083f96300        0x4 board/Realtek/rtl838x/librtl838x.o
 .bss.batch_profile_state
                0x0000000083f96304        0x4 board/Realtek/rtl838x/librtl838x.o
 .bss.batch_profile
                0x0000000083f96308        0x4 board/Realtek/rtl838x/librtl838x.o
 .bss.pPhy_info
                0x0000000083f9630c       0xc0 board/Realtek/rtl838x/librtl838x.o
 .bss.phy_sem   0x0000000083f963cc       0x40 board/Realtek/rtl838x/librtl838x.o
 .bss.phy_init  0x0000000083f9640c       0x40 board/Realtek/rtl838x/librtl838x.o
 .bss.rtk_init_status
                0x0000000083f9644c        0x4 board/Realtek/rtl838x/librtl838x.o
                0x0000000083f9644c                rtk_init_status
 .bss.phy_8214fc_useBasePatch
                0x0000000083f96450      0x400 board/Realtek/rtl838x/librtl838x.o
                0x0000000083f96450                phy_8214fc_useBasePatch
 .bss.portEbl_log
                0x0000000083f96850      0x100 board/Realtek/rtl838x/librtl838x.o
 .bss.sdsMode_log
                0x0000000083f96950      0x100 board/Realtek/rtl838x/librtl838x.o
 .bss.phyInfo_alloc
                0x0000000083f96a50       0x40 board/Realtek/rtl838x/librtl838x.o
 .bss.rtl8218e_info
                0x0000000083f96a90       0x40 board/Realtek/rtl838x/librtl838x.o
                0x0000000083f96a90                rtl8218e_info
 .bss.smi_MDIO  0x0000000083f96ad0        0x4 board/Realtek/rtl838x/librtl838x.o
 .bss.smi_MDC   0x0000000083f96ad4        0x4 board/Realtek/rtl838x/librtl838x.o
 .bss._rtl8231_mdcSem_cb_tbl
                0x0000000083f96ad8       0x40 board/Realtek/rtl838x/librtl838x.o
 .bss.rtl8231_init
                0x0000000083f96b18       0x40 board/Realtek/rtl838x/librtl838x.o
 .bss.i2c_init  0x0000000083f96b58       0x10 board/Realtek/rtl838x/librtl838x.o
 .bss.gpio_init
                0x0000000083f96b68        0x4 board/Realtek/rtl838x/librtl838x.o
 .bss.PABC_DAT_gpoMask
                0x0000000083f96b6c        0x4 board/Realtek/rtl838x/librtl838x.o
 .bss.PABC_DAT_shadow
                0x0000000083f96b70        0x4 board/Realtek/rtl838x/librtl838x.o
 .bss.rtl8380_ver
                0x0000000083f96b74        0x4 board/Realtek/rtl838x/librtl838x.o
 .bss.phy_ctrl_bak3
                0x0000000083f96b78     0x1000 board/Realtek/rtl838x/librtl838x.o
 .bss.phy_ctrl_bak2
                0x0000000083f97b78     0x1000 board/Realtek/rtl838x/librtl838x.o
 .bss.phy_ctrl_bak1
                0x0000000083f98b78     0x1000 board/Realtek/rtl838x/librtl838x.o
 .bss.rtl8380_portmask_list
                0x0000000083f99b78        0x8 board/Realtek/rtl838x/librtl838x.o
 .bss.rtl8380_sds_modify_flag
                0x0000000083f99b80        0x4 board/Realtek/rtl838x/librtl838x.o
                0x0000000083f99b80                rtl8380_sds_modify_flag
 .bss.link_change_callback_f
                0x0000000083f99b84       0x40 board/Realtek/rtl838x/librtl838x.o
 .bss.pMac_info
                0x0000000083f99bc4       0x40 board/Realtek/rtl838x/librtl838x.o
 .bss.port_sem  0x0000000083f99c04       0x40 board/Realtek/rtl838x/librtl838x.o
 .bss.port_init
                0x0000000083f99c44       0x40 board/Realtek/rtl838x/librtl838x.o
 COMMON         0x0000000083f99c84        0x4 arch/mips/lib/libmips.o
                0x0000000083f99c84                monitor_flash_len
 COMMON         0x0000000083f99c88     0x2b25 common/libcommon.o
                0x0000000083f99c88                console_buffer
                0x0000000083f99e89                his_pad_char
                0x0000000083f99e8c                send_ptr
                0x0000000083f99e90                send_parms
                0x0000000083f99ea4                save_addr
                0x0000000083f99ea8                save_size
                0x0000000083f99eac                his_eol
                0x0000000083f99eb0                os_data_char
                0x0000000083f99eb4                his_pad_count
                0x0000000083f99eb8                hist_lines
                0x0000000083f9c6cc                os_data_init
                0x0000000083f9c6d0                hist_list
                0x0000000083f9c720                images
                0x0000000083f9c7ac                his_quote
 *fill*         0x0000000083f9c7ad        0x3 
 COMMON         0x0000000083f9c7b0     0x2544 net/libnet.o
                0x0000000083f9c7b0                NetOurEther
                0x0000000083f9c7b8                NetState
                0x0000000083f9c7bc                NetServerEther
                0x0000000083f9c7c4                NetRxPacketLen
                0x0000000083f9c7c8                NetArpWaitReplyIP
                0x0000000083f9c7cc                NetRxPacket
                0x0000000083f9c7d0                NetIPID
                0x0000000083f9c7d4                NetArpWaitPacketIP
                0x0000000083f9c7d8                BootpTry
                0x0000000083f9c7dc                NetRxPackets
                0x0000000083f9c7ec                NetBootFileSize
                0x0000000083f9c7f0                NetArpWaitTxPacketSize
                0x0000000083f9c7f4                NetArpWaitTry
                0x0000000083f9c7f8                NetOurGatewayIP
                0x0000000083f9c7fc                NetArpWaitTimerStart
                0x0000000083f9c800                NetRestartWrap
                0x0000000083f9c804                PktBuf
                0x0000000083f9e624                BootFile
                0x0000000083f9e6a4                NetOurSubnetMask
                0x0000000083f9e6a8                NetArpWaitTxPacket
                0x0000000083f9e6ac                NetTxPacket
                0x0000000083f9e6b0                NetPingIP
                0x0000000083f9e6b4                NetOurIP
                0x0000000083f9e6b8                NetArpWaitPacketMAC
                0x0000000083f9e6bc                NetArpWaitPacketBuf
                0x0000000083f9ecdc                NetOurDNSIP
                0x0000000083f9ece0                NetServerIP
                0x0000000083f9ece4                NetEtherNullAddr
                0x0000000083f9ecec                NetBootFileXferSize
                0x0000000083f9ecf0                BootpID
 COMMON         0x0000000083f9ecf4     0xd840 board/Realtek/rtl838x/librtl838x.o
                0x0000000083f9ecf4                gMiim_phyRevId
                0x0000000083f9f4f4                rtk_hal_stack_ports
                0x0000000083f9f574                rtkDev
                0x0000000083f9f588                hal_ctrl
                0x0000000083fa08c8                pTxPktHdr
                0x0000000083fa08cc                pRxPktHdr
                0x0000000083fa08d0                hwp_unit_sem
                0x0000000083fa08d4                swDescpEmpty
                0x0000000083fa0f3c                g_gpioDevConfig
                0x0000000083fa0f50                ioal_db
                0x0000000083fa1290                g_extGPIODev_init
                0x0000000083fa1294                testLen
                0x0000000083fa1298                pkt
                0x0000000083fa1894                pkt_recv
                0x0000000083fa1e90                isFail
                0x0000000083fa1e94                hwpEmpty
                0x0000000083fa1eec                pMgmt_node
                0x0000000083fa1f2c                scDescpEmpty
                0x0000000083fa1f34                unitInfoEmpty
                0x0000000083fa2764                serdesDescpEmpty
                0x0000000083fa2768                rcvLen
                0x0000000083fa276c                parsedInfoEmpty
                0x0000000083fa58a0                unitMapStruct
                0x0000000083fa5920                gI2C_dev
                0x0000000083fac120                portDescpEmpty
                0x0000000083fac134                rtl8218d_info
                0x0000000083fac534                uboot_end = .
Address of section .text set to 0x83f00000
LOAD arch/mips/cpu/mips4kec/start.o
START GROUP
LOAD api/libapi.o
LOAD arch/mips/cpu/mips4kec/libmips4kec.o
LOAD arch/mips/cpu/mips4kec/rtl838x/librtl838x.o
LOAD arch/mips/lib/libmips.o
LOAD common/libcommon.o
LOAD disk/libdisk.o
LOAD drivers/bios_emulator/libatibiosemu.o
LOAD drivers/block/libblock.o
LOAD drivers/dma/libdma.o
LOAD drivers/fpga/libfpga.o
LOAD drivers/gpio/libgpio.o
LOAD drivers/hwmon/libhwmon.o
LOAD drivers/i2c/libi2c.o
LOAD drivers/input/libinput.o
LOAD drivers/misc/libmisc.o
LOAD drivers/mmc/libmmc.o
LOAD drivers/mtd/libmtd.o
LOAD drivers/mtd/nand/libnand.o
LOAD drivers/mtd/onenand/libonenand.o
LOAD drivers/mtd/spi/libspi_flash.o
LOAD drivers/mtd/ubi/libubi.o
LOAD drivers/net/libnet.o
LOAD drivers/net/phy/libphy.o
LOAD drivers/pci/libpci.o
LOAD drivers/pcmcia/libpcmcia.o
LOAD drivers/power/libpower.o
LOAD drivers/rtc/librtc.o
LOAD drivers/serial/libserial.o
LOAD drivers/spi/libspi.o
LOAD drivers/twserial/libtws.o
LOAD drivers/usb/eth/libusb_eth.o
LOAD drivers/usb/gadget/libusb_gadget.o
LOAD drivers/usb/host/libusb_host.o
LOAD drivers/usb/musb/libusb_musb.o
LOAD drivers/usb/phy/libusb_phy.o
LOAD drivers/usb/ulpi/libusb_ulpi.o
LOAD drivers/video/libvideo.o
LOAD drivers/watchdog/libwatchdog.o
LOAD fs/cramfs/libcramfs.o
LOAD fs/ext2/libext2fs.o
LOAD fs/fat/libfat.o
LOAD fs/fdos/libfdos.o
LOAD fs/jffs2/libjffs2.o
LOAD fs/reiserfs/libreiserfs.o
LOAD fs/ubifs/libubifs.o
LOAD fs/yaffs2/libyaffs2.o
LOAD lib/libfdt/libfdt.o
LOAD lib/libgeneric.o
LOAD lib/lzma/liblzma.o
LOAD lib/lzo/liblzo.o
LOAD lib/zlib/libz.o
LOAD net/libnet.o
LOAD post/libpost.o
LOAD board/Realtek/rtl838x/librtl838x.o
END GROUP
OUTPUT(u-boot elf32-tradbigmips)

.text           0x0000000083f00000        0x0

.pdr            0x0000000000000000        0x0
 .pdr           0x0000000000000000        0x0 arch/mips/cpu/mips4kec/start.o

.comment        0x0000000000000000       0x43
 .comment       0x0000000000000000       0x43 arch/mips/cpu/mips4kec/rtl838x/librtl838x.o
                                        0x4c8 (size before relaxing)
 .comment       0x0000000000000000       0x88 arch/mips/cpu/mips4kec/libmips4kec.o
 .comment       0x0000000000000000      0x264 arch/mips/lib/libmips.o
 .comment       0x0000000000000000      0x660 common/libcommon.o
 .comment       0x0000000000000000       0x44 drivers/rtc/librtc.o
 .comment       0x0000000000000000      0x440 lib/libgeneric.o
 .comment       0x0000000000000000       0x88 lib/lzma/liblzma.o
 .comment       0x0000000000000000       0x44 lib/zlib/libz.o
 .comment       0x0000000000000000      0x110 net/libnet.o
 .comment       0x0000000000000000     0x182c board/Realtek/rtl838x/librtl838x.o

.gnu.attributes
                0x0000000000000000       0x10
 .gnu.attributes
                0x0000000000000000       0x10 arch/mips/cpu/mips4kec/rtl838x/librtl838x.o
 .gnu.attributes
                0x0000000000000010       0x10 arch/mips/cpu/mips4kec/libmips4kec.o
 .gnu.attributes
                0x0000000000000020       0x10 arch/mips/lib/libmips.o
 .gnu.attributes
                0x0000000000000030       0x10 common/libcommon.o
 .gnu.attributes
                0x0000000000000040       0x10 drivers/rtc/librtc.o
 .gnu.attributes
                0x0000000000000050       0x10 lib/libgeneric.o
 .gnu.attributes
                0x0000000000000060       0x10 lib/lzma/liblzma.o
 .gnu.attributes
                0x0000000000000070       0x10 lib/zlib/libz.o
 .gnu.attributes
                0x0000000000000080       0x10 net/libnet.o
 .gnu.attributes
                0x0000000000000090       0x10 board/Realtek/rtl838x/librtl838x.o

.mdebug.abi32   0x0000000000000000        0x0
 .mdebug.abi32  0x0000000000000000        0x0 arch/mips/cpu/mips4kec/rtl838x/librtl838x.o
 .mdebug.abi32  0x0000000000000000        0x0 arch/mips/cpu/mips4kec/libmips4kec.o
 .mdebug.abi32  0x0000000000000000        0x0 arch/mips/lib/libmips.o
 .mdebug.abi32  0x0000000000000000        0x0 common/libcommon.o
 .mdebug.abi32  0x0000000000000000        0x0 drivers/rtc/librtc.o
 .mdebug.abi32  0x0000000000000000        0x0 lib/libgeneric.o
 .mdebug.abi32  0x0000000000000000        0x0 lib/lzma/liblzma.o
 .mdebug.abi32  0x0000000000000000        0x0 lib/zlib/libz.o
 .mdebug.abi32  0x0000000000000000        0x0 net/libnet.o
 .mdebug.abi32  0x0000000000000000        0x0 board/Realtek/rtl838x/librtl838x.o

.debug_line     0x0000000000000000    0x35ecc
 .debug_line    0x0000000000000000       0xc7 arch/mips/cpu/mips4kec/start.o
 .debug_line    0x00000000000000c7     0x296c arch/mips/cpu/mips4kec/rtl838x/librtl838x.o
 .debug_line    0x0000000000002a33      0x1cd arch/mips/cpu/mips4kec/libmips4kec.o
 .debug_line    0x0000000000002c00     0x11aa arch/mips/lib/libmips.o
 .debug_line    0x0000000000003daa     0x3fe1 common/libcommon.o
 .debug_line    0x0000000000007d8b      0x109 drivers/rtc/librtc.o
 .debug_line    0x0000000000007e94     0x1a70 lib/libgeneric.o
 .debug_line    0x0000000000009904      0x80b lib/lzma/liblzma.o
 .debug_line    0x000000000000a10f      0xa4f lib/zlib/libz.o
 .debug_line    0x000000000000ab5e      0xf82 net/libnet.o
 .debug_line    0x000000000000bae0    0x2a3ec board/Realtek/rtl838x/librtl838x.o

.debug_info     0x0000000000000000   0x26005e
 .debug_info    0x0000000000000000       0x6e arch/mips/cpu/mips4kec/start.o
 .debug_info    0x000000000000006e     0xebe3 arch/mips/cpu/mips4kec/rtl838x/librtl838x.o
 .debug_info    0x000000000000ec51      0xe64 arch/mips/cpu/mips4kec/libmips4kec.o
 .debug_info    0x000000000000fab5     0x70c9 arch/mips/lib/libmips.o
 .debug_info    0x0000000000016b7e    0x11860 common/libcommon.o
 .debug_info    0x00000000000283de      0x254 drivers/rtc/librtc.o
 .debug_info    0x0000000000028632     0x3b99 lib/libgeneric.o
 .debug_info    0x000000000002c1cb     0x1983 lib/lzma/liblzma.o
 .debug_info    0x000000000002db4e     0x1323 lib/zlib/libz.o
 .debug_info    0x000000000002ee71     0x51fd net/libnet.o
 .debug_info    0x000000000003406e   0x22bff0 board/Realtek/rtl838x/librtl838x.o

.debug_abbrev   0x0000000000000000    0x18fae
 .debug_abbrev  0x0000000000000000       0x14 arch/mips/cpu/mips4kec/start.o
 .debug_abbrev  0x0000000000000014     0x2621 arch/mips/cpu/mips4kec/rtl838x/librtl838x.o
 .debug_abbrev  0x0000000000002635      0x266 arch/mips/cpu/mips4kec/libmips4kec.o
 .debug_abbrev  0x000000000000289b     0x149c arch/mips/lib/libmips.o
 .debug_abbrev  0x0000000000003d37     0x3c7c common/libcommon.o
 .debug_abbrev  0x00000000000079b3      0x11c drivers/rtc/librtc.o
 .debug_abbrev  0x0000000000007acf     0x13f1 lib/libgeneric.o
 .debug_abbrev  0x0000000000008ec0      0x515 lib/lzma/liblzma.o
 .debug_abbrev  0x00000000000093d5      0x3ec lib/zlib/libz.o
 .debug_abbrev  0x00000000000097c1      0xff1 net/libnet.o
 .debug_abbrev  0x000000000000a7b2     0xe7fc board/Realtek/rtl838x/librtl838x.o

.debug_aranges  0x0000000000000000     0x55f0
 .debug_aranges
                0x0000000000000000       0x20 arch/mips/cpu/mips4kec/start.o
 .debug_aranges
                0x0000000000000020      0x5a0 arch/mips/cpu/mips4kec/rtl838x/librtl838x.o
 .debug_aranges
                0x00000000000005c0       0x60 arch/mips/cpu/mips4kec/libmips4kec.o
 .debug_aranges
                0x0000000000000620      0x298 arch/mips/lib/libmips.o
 .debug_aranges
                0x00000000000008b8      0x800 common/libcommon.o
 .debug_aranges
                0x00000000000010b8       0x30 drivers/rtc/librtc.o
 .debug_aranges
                0x00000000000010e8      0x398 lib/libgeneric.o
 .debug_aranges
                0x0000000000001480       0xb8 lib/lzma/liblzma.o
 .debug_aranges
                0x0000000000001538       0x68 lib/zlib/libz.o
 .debug_aranges
                0x00000000000015a0      0x220 net/libnet.o
 .debug_aranges
                0x00000000000017c0     0x3e30 board/Realtek/rtl838x/librtl838x.o

.debug_frame    0x0000000000000000    0x11c94
 .debug_frame   0x0000000000000000      0xe60 arch/mips/cpu/mips4kec/rtl838x/librtl838x.o
 .debug_frame   0x0000000000000e60       0x9c arch/mips/cpu/mips4kec/libmips4kec.o
 .debug_frame   0x0000000000000efc      0x7c4 arch/mips/lib/libmips.o
 .debug_frame   0x00000000000016c0     0x1848 common/libcommon.o
 .debug_frame   0x0000000000002f08       0x48 drivers/rtc/librtc.o
 .debug_frame   0x0000000000002f50      0x828 lib/libgeneric.o
 .debug_frame   0x0000000000003778      0x244 lib/lzma/liblzma.o
 .debug_frame   0x00000000000039bc      0x184 lib/zlib/libz.o
 .debug_frame   0x0000000000003b40      0x754 net/libnet.o
 .debug_frame   0x0000000000004294     0xda00 board/Realtek/rtl838x/librtl838x.o

.debug_str      0x0000000000000000    0x6ae9c
 .debug_str     0x0000000000000000     0x201c arch/mips/cpu/mips4kec/rtl838x/librtl838x.o
                                       0xb3af (size before relaxing)
 .debug_str     0x000000000000201c      0x1e4 arch/mips/cpu/mips4kec/libmips4kec.o
                                        0xe64 (size before relaxing)
 .debug_str     0x0000000000002200      0xb2e arch/mips/lib/libmips.o
                                       0x506e (size before relaxing)
 .debug_str     0x0000000000002d2e     0x1fb6 common/libcommon.o
                                       0x70a0 (size before relaxing)
 .debug_str     0x0000000000004ce4       0x7a drivers/rtc/librtc.o
                                        0x25b (size before relaxing)
 .debug_str     0x0000000000004d5e      0x461 lib/libgeneric.o
                                       0x23c4 (size before relaxing)
 .debug_str     0x00000000000051bf      0x50e lib/lzma/liblzma.o
                                        0xa63 (size before relaxing)
 .debug_str     0x00000000000056cd      0x29d lib/zlib/libz.o
                                        0x699 (size before relaxing)
 .debug_str     0x000000000000596a      0xb64 net/libnet.o
                                       0x1c96 (size before relaxing)
 .debug_str     0x00000000000064ce    0x649ce board/Realtek/rtl838x/librtl838x.o
                                     0x30af0d (size before relaxing)

.debug_loc      0x0000000000000000    0x76733
 .debug_loc     0x0000000000000000     0x51d9 arch/mips/cpu/mips4kec/rtl838x/librtl838x.o
 .debug_loc     0x00000000000051d9      0x160 arch/mips/cpu/mips4kec/libmips4kec.o
 .debug_loc     0x0000000000005339     0x229f arch/mips/lib/libmips.o
 .debug_loc     0x00000000000075d8     0xb8a7 common/libcommon.o
 .debug_loc     0x0000000000012e7f      0x1f8 drivers/rtc/librtc.o
 .debug_loc     0x0000000000013077     0x436e lib/libgeneric.o
 .debug_loc     0x00000000000173e5     0x32df lib/lzma/liblzma.o
 .debug_loc     0x000000000001a6c4     0x2c6a lib/zlib/libz.o
 .debug_loc     0x000000000001d32e     0x279d net/libnet.o
 .debug_loc     0x000000000001facb    0x56c68 board/Realtek/rtl838x/librtl838x.o

.debug_ranges   0x0000000000000000     0x8408
 .debug_ranges  0x0000000000000000      0x5a0 arch/mips/cpu/mips4kec/rtl838x/librtl838x.o
 .debug_ranges  0x00000000000005a0       0x40 arch/mips/cpu/mips4kec/libmips4kec.o
 .debug_ranges  0x00000000000005e0      0x2c0 arch/mips/lib/libmips.o
 .debug_ranges  0x00000000000008a0     0x11d8 common/libcommon.o
 .debug_ranges  0x0000000000001a78       0x20 drivers/rtc/librtc.o
 .debug_ranges  0x0000000000001a98      0x4c0 lib/libgeneric.o
 .debug_ranges  0x0000000000001f58      0x720 lib/lzma/liblzma.o
 .debug_ranges  0x0000000000002678       0xd0 lib/zlib/libz.o
 .debug_ranges  0x0000000000002748      0x598 net/libnet.o
 .debug_ranges  0x0000000000002ce0     0x5728 board/Realtek/rtl838x/librtl838x.o
